
Enclave/encl.so:     file format elf64-x86-64


Disassembly of section .plt:

0000000000001000 <.plt>:
    1000:	ff 35 ba 6f 01 00    	push   0x16fba(%rip)        # 17fc0 <_GLOBAL_OFFSET_TABLE_+0x8>
    1006:	ff 25 bc 6f 01 00    	jmp    *0x16fbc(%rip)        # 17fc8 <_GLOBAL_OFFSET_TABLE_+0x10>
    100c:	0f 1f 40 00          	nopl   0x0(%rax)

Disassembly of section .plt.got:

0000000000001010 <_Z9pcl_entryPvS_@plt>:
    1010:	ff 25 ba 6f 01 00    	jmp    *0x16fba(%rip)        # 17fd0 <_Z9pcl_entryPvS_>
    1016:	66 90                	xchg   %ax,%ax

0000000000001018 <ippcpSetCpuFeatures@plt>:
    1018:	ff 25 d2 6f 01 00    	jmp    *0x16fd2(%rip)        # 17ff0 <ippcpSetCpuFeatures>
    101e:	66 90                	xchg   %ax,%ax

Disassembly of section .text:

0000000000002000 <trts_access_version_dummy1>:
    2000:	f3 0f 1e fa          	endbr64 
    2004:	48 8d 05 25 62 01 00 	lea    0x16225(%rip),%rax        # 18230 <sgx_trts_version>
    200b:	c6 00 73             	movb   $0x73,(%rax)
    200e:	c3                   	ret    
    200f:	90                   	nop

0000000000002010 <tstdc_access_version_dummy1>:
    2010:	f3 0f 1e fa          	endbr64 
    2014:	c6 05 c5 80 01 00 73 	movb   $0x73,0x180c5(%rip)        # 1a0e0 <sgx_tstdc_version>
    201b:	48 8d 05 be 80 01 00 	lea    0x180be(%rip),%rax        # 1a0e0 <sgx_tstdc_version>
    2022:	c3                   	ret    
    2023:	66 2e 0f 1f 84 00 00 	cs nopw 0x0(%rax,%rax,1)
    202a:	00 00 00 
    202d:	0f 1f 00             	nopl   (%rax)

0000000000002030 <tcrypto_access_version_dummy1>:
    2030:	f3 0f 1e fa          	endbr64 
    2034:	c6 05 c5 80 01 00 73 	movb   $0x73,0x180c5(%rip)        # 1a100 <sgx_tcrypto_version>
    203b:	48 8d 05 be 80 01 00 	lea    0x180be(%rip),%rax        # 1a100 <sgx_tcrypto_version>
    2042:	c3                   	ret    
    2043:	66 2e 0f 1f 84 00 00 	cs nopw 0x0(%rax,%rax,1)
    204a:	00 00 00 
    204d:	0f 1f 00             	nopl   (%rax)

0000000000002050 <tservice_access_version_dummy1>:
    2050:	f3 0f 1e fa          	endbr64 
    2054:	c6 05 c5 80 01 00 73 	movb   $0x73,0x180c5(%rip)        # 1a120 <sgx_tservice_version>
    205b:	48 8d 05 be 80 01 00 	lea    0x180be(%rip),%rax        # 1a120 <sgx_tservice_version>
    2062:	c3                   	ret    

0000000000002063 <ecall_update_response_loc>:
    2063:	f3 0f 1e fa          	endbr64 
    2067:	51                   	push   %rcx
    2068:	0f 10 07             	movups (%rdi),%xmm0
    206b:	be 04 00 00 00       	mov    $0x4,%esi
    2070:	66 48 0f 7e c7       	movq   %xmm0,%rdi
    2075:	0f 29 05 e4 80 01 00 	movaps %xmm0,0x180e4(%rip)        # 1a160 <msp>
    207c:	e8 df 3b 00 00       	call   5c60 <sgx_is_outside_enclave>
    2081:	85 c0                	test   %eax,%eax
    2083:	75 12                	jne    2097 <ecall_update_response_loc+0x34>
    2085:	31 d2                	xor    %edx,%edx
    2087:	48 89 15 d2 80 01 00 	mov    %rdx,0x180d2(%rip)        # 1a160 <msp>
    208e:	48 89 15 d3 80 01 00 	mov    %rdx,0x180d3(%rip)        # 1a168 <msp+0x8>
    2095:	eb 15                	jmp    20ac <ecall_update_response_loc+0x49>
    2097:	48 8b 3d ca 80 01 00 	mov    0x180ca(%rip),%rdi        # 1a168 <msp+0x8>
    209e:	be 04 00 00 00       	mov    $0x4,%esi
    20a3:	e8 b8 3b 00 00       	call   5c60 <sgx_is_outside_enclave>
    20a8:	85 c0                	test   %eax,%eax
    20aa:	74 d9                	je     2085 <ecall_update_response_loc+0x22>
    20ac:	58                   	pop    %rax
    20ad:	c3                   	ret    

00000000000020ae <ecall_compute_response>:
    20ae:	f3 0f 1e fa          	endbr64 
    20b2:	48 8b 15 a7 80 01 00 	mov    0x180a7(%rip),%rdx        # 1a160 <msp>
    20b9:	48 85 d2             	test   %rdx,%rdx
    20bc:	74 16                	je     20d4 <ecall_compute_response+0x26>
    20be:	48 8b 05 a3 80 01 00 	mov    0x180a3(%rip),%rax        # 1a168 <msp+0x8>
    20c5:	48 85 c0             	test   %rax,%rax
    20c8:	74 0a                	je     20d4 <ecall_compute_response+0x26>
    20ca:	8d 0c 37             	lea    (%rdi,%rsi,1),%ecx
    20cd:	0f af fe             	imul   %esi,%edi
    20d0:	89 0a                	mov    %ecx,(%rdx)
    20d2:	89 38                	mov    %edi,(%rax)
    20d4:	c3                   	ret    

00000000000020d5 <ecall_get_response>:
    20d5:	f3 0f 1e fa          	endbr64 
    20d9:	50                   	push   %rax
    20da:	48 8b 05 7f 80 01 00 	mov    0x1807f(%rip),%rax        # 1a160 <msp>
    20e1:	48 8d 3d 18 0f 01 00 	lea    0x10f18(%rip),%rdi        # 13000 <second_phase+0xa50>
    20e8:	48 63 30             	movslq (%rax),%rsi
    20eb:	31 c0                	xor    %eax,%eax
    20ed:	e8 59 22 00 00       	call   434b <ocall_print_address>
    20f2:	48 8b 05 6f 80 01 00 	mov    0x1806f(%rip),%rax        # 1a168 <msp+0x8>
    20f9:	48 8d 3d 05 0f 01 00 	lea    0x10f05(%rip),%rdi        # 13005 <second_phase+0xa55>
    2100:	48 63 30             	movslq (%rax),%rsi
    2103:	31 c0                	xor    %eax,%eax
    2105:	5a                   	pop    %rdx
    2106:	e9 40 22 00 00       	jmp    434b <ocall_print_address>

000000000000210b <ecall_get_secret>:
    210b:	f3 0f 1e fa          	endbr64 
    210f:	53                   	push   %rbx
    2110:	48 89 d3             	mov    %rdx,%rbx
    2113:	48 ff ca             	dec    %rdx
    2116:	39 3d e4 5e 01 00    	cmp    %edi,0x15ee4(%rip)        # 18000 <pincode>
    211c:	48 89 f1             	mov    %rsi,%rcx
    211f:	48 8b 35 e2 5e 01 00 	mov    0x15ee2(%rip),%rsi        # 18008 <secret>
    2126:	74 07                	je     212f <ecall_get_secret+0x24>
    2128:	48 8d 35 dc 0e 01 00 	lea    0x10edc(%rip),%rsi        # 1300b <second_phase+0xa5b>
    212f:	48 89 cf             	mov    %rcx,%rdi
    2132:	e8 49 e9 00 00       	call   10a80 <strncpy>
    2137:	c6 44 18 ff 00       	movb   $0x0,-0x1(%rax,%rbx,1)
    213c:	5b                   	pop    %rbx
    213d:	c3                   	ret    
    213e:	66 2e 0f 1f 84 00 00 	cs nopw 0x0(%rax,%rax,1)
    2145:	00 00 00 
    2148:	66 2e 0f 1f 84 00 00 	cs nopw 0x0(%rax,%rax,1)
    214f:	00 00 00 
    2152:	66 2e 0f 1f 84 00 00 	cs nopw 0x0(%rax,%rax,1)
    2159:	00 00 00 
    215c:	66 2e 0f 1f 84 00 00 	cs nopw 0x0(%rax,%rax,1)
    2163:	00 00 00 
    2166:	66 2e 0f 1f 84 00 00 	cs nopw 0x0(%rax,%rax,1)
    216d:	00 00 00 
    2170:	66 2e 0f 1f 84 00 00 	cs nopw 0x0(%rax,%rax,1)
    2177:	00 00 00 
    217a:	66 2e 0f 1f 84 00 00 	cs nopw 0x0(%rax,%rax,1)
    2181:	00 00 00 
    2184:	66 2e 0f 1f 84 00 00 	cs nopw 0x0(%rax,%rax,1)
    218b:	00 00 00 
    218e:	66 2e 0f 1f 84 00 00 	cs nopw 0x0(%rax,%rax,1)
    2195:	00 00 00 
    2198:	66 2e 0f 1f 84 00 00 	cs nopw 0x0(%rax,%rax,1)
    219f:	00 00 00 
    21a2:	66 2e 0f 1f 84 00 00 	cs nopw 0x0(%rax,%rax,1)
    21a9:	00 00 00 
    21ac:	66 2e 0f 1f 84 00 00 	cs nopw 0x0(%rax,%rax,1)
    21b3:	00 00 00 
    21b6:	66 2e 0f 1f 84 00 00 	cs nopw 0x0(%rax,%rax,1)
    21bd:	00 00 00 
    21c0:	66 2e 0f 1f 84 00 00 	cs nopw 0x0(%rax,%rax,1)
    21c7:	00 00 00 
    21ca:	66 2e 0f 1f 84 00 00 	cs nopw 0x0(%rax,%rax,1)
    21d1:	00 00 00 
    21d4:	66 2e 0f 1f 84 00 00 	cs nopw 0x0(%rax,%rax,1)
    21db:	00 00 00 
    21de:	66 2e 0f 1f 84 00 00 	cs nopw 0x0(%rax,%rax,1)
    21e5:	00 00 00 
    21e8:	66 2e 0f 1f 84 00 00 	cs nopw 0x0(%rax,%rax,1)
    21ef:	00 00 00 
    21f2:	66 2e 0f 1f 84 00 00 	cs nopw 0x0(%rax,%rax,1)
    21f9:	00 00 00 
    21fc:	66 2e 0f 1f 84 00 00 	cs nopw 0x0(%rax,%rax,1)
    2203:	00 00 00 
    2206:	66 2e 0f 1f 84 00 00 	cs nopw 0x0(%rax,%rax,1)
    220d:	00 00 00 
    2210:	66 2e 0f 1f 84 00 00 	cs nopw 0x0(%rax,%rax,1)
    2217:	00 00 00 
    221a:	66 2e 0f 1f 84 00 00 	cs nopw 0x0(%rax,%rax,1)
    2221:	00 00 00 
    2224:	66 2e 0f 1f 84 00 00 	cs nopw 0x0(%rax,%rax,1)
    222b:	00 00 00 
    222e:	66 2e 0f 1f 84 00 00 	cs nopw 0x0(%rax,%rax,1)
    2235:	00 00 00 
    2238:	66 2e 0f 1f 84 00 00 	cs nopw 0x0(%rax,%rax,1)
    223f:	00 00 00 
    2242:	66 2e 0f 1f 84 00 00 	cs nopw 0x0(%rax,%rax,1)
    2249:	00 00 00 
    224c:	66 2e 0f 1f 84 00 00 	cs nopw 0x0(%rax,%rax,1)
    2253:	00 00 00 
    2256:	66 2e 0f 1f 84 00 00 	cs nopw 0x0(%rax,%rax,1)
    225d:	00 00 00 
    2260:	66 2e 0f 1f 84 00 00 	cs nopw 0x0(%rax,%rax,1)
    2267:	00 00 00 
    226a:	66 2e 0f 1f 84 00 00 	cs nopw 0x0(%rax,%rax,1)
    2271:	00 00 00 
    2274:	66 2e 0f 1f 84 00 00 	cs nopw 0x0(%rax,%rax,1)
    227b:	00 00 00 
    227e:	66 2e 0f 1f 84 00 00 	cs nopw 0x0(%rax,%rax,1)
    2285:	00 00 00 
    2288:	66 2e 0f 1f 84 00 00 	cs nopw 0x0(%rax,%rax,1)
    228f:	00 00 00 
    2292:	66 2e 0f 1f 84 00 00 	cs nopw 0x0(%rax,%rax,1)
    2299:	00 00 00 
    229c:	66 2e 0f 1f 84 00 00 	cs nopw 0x0(%rax,%rax,1)
    22a3:	00 00 00 
    22a6:	66 2e 0f 1f 84 00 00 	cs nopw 0x0(%rax,%rax,1)
    22ad:	00 00 00 
    22b0:	66 2e 0f 1f 84 00 00 	cs nopw 0x0(%rax,%rax,1)
    22b7:	00 00 00 
    22ba:	66 2e 0f 1f 84 00 00 	cs nopw 0x0(%rax,%rax,1)
    22c1:	00 00 00 
    22c4:	66 2e 0f 1f 84 00 00 	cs nopw 0x0(%rax,%rax,1)
    22cb:	00 00 00 
    22ce:	66 2e 0f 1f 84 00 00 	cs nopw 0x0(%rax,%rax,1)
    22d5:	00 00 00 
    22d8:	66 2e 0f 1f 84 00 00 	cs nopw 0x0(%rax,%rax,1)
    22df:	00 00 00 
    22e2:	66 2e 0f 1f 84 00 00 	cs nopw 0x0(%rax,%rax,1)
    22e9:	00 00 00 
    22ec:	66 2e 0f 1f 84 00 00 	cs nopw 0x0(%rax,%rax,1)
    22f3:	00 00 00 
    22f6:	66 2e 0f 1f 84 00 00 	cs nopw 0x0(%rax,%rax,1)
    22fd:	00 00 00 
    2300:	66 2e 0f 1f 84 00 00 	cs nopw 0x0(%rax,%rax,1)
    2307:	00 00 00 
    230a:	66 2e 0f 1f 84 00 00 	cs nopw 0x0(%rax,%rax,1)
    2311:	00 00 00 
    2314:	66 2e 0f 1f 84 00 00 	cs nopw 0x0(%rax,%rax,1)
    231b:	00 00 00 
    231e:	66 2e 0f 1f 84 00 00 	cs nopw 0x0(%rax,%rax,1)
    2325:	00 00 00 
    2328:	66 2e 0f 1f 84 00 00 	cs nopw 0x0(%rax,%rax,1)
    232f:	00 00 00 
    2332:	66 2e 0f 1f 84 00 00 	cs nopw 0x0(%rax,%rax,1)
    2339:	00 00 00 
    233c:	66 2e 0f 1f 84 00 00 	cs nopw 0x0(%rax,%rax,1)
    2343:	00 00 00 
    2346:	66 2e 0f 1f 84 00 00 	cs nopw 0x0(%rax,%rax,1)
    234d:	00 00 00 
    2350:	66 2e 0f 1f 84 00 00 	cs nopw 0x0(%rax,%rax,1)
    2357:	00 00 00 
    235a:	66 2e 0f 1f 84 00 00 	cs nopw 0x0(%rax,%rax,1)
    2361:	00 00 00 
    2364:	66 2e 0f 1f 84 00 00 	cs nopw 0x0(%rax,%rax,1)
    236b:	00 00 00 
    236e:	66 2e 0f 1f 84 00 00 	cs nopw 0x0(%rax,%rax,1)
    2375:	00 00 00 
    2378:	66 2e 0f 1f 84 00 00 	cs nopw 0x0(%rax,%rax,1)
    237f:	00 00 00 
    2382:	66 2e 0f 1f 84 00 00 	cs nopw 0x0(%rax,%rax,1)
    2389:	00 00 00 
    238c:	66 2e 0f 1f 84 00 00 	cs nopw 0x0(%rax,%rax,1)
    2393:	00 00 00 
    2396:	66 2e 0f 1f 84 00 00 	cs nopw 0x0(%rax,%rax,1)
    239d:	00 00 00 
    23a0:	66 2e 0f 1f 84 00 00 	cs nopw 0x0(%rax,%rax,1)
    23a7:	00 00 00 
    23aa:	66 2e 0f 1f 84 00 00 	cs nopw 0x0(%rax,%rax,1)
    23b1:	00 00 00 
    23b4:	66 2e 0f 1f 84 00 00 	cs nopw 0x0(%rax,%rax,1)
    23bb:	00 00 00 
    23be:	66 2e 0f 1f 84 00 00 	cs nopw 0x0(%rax,%rax,1)
    23c5:	00 00 00 
    23c8:	66 2e 0f 1f 84 00 00 	cs nopw 0x0(%rax,%rax,1)
    23cf:	00 00 00 
    23d2:	66 2e 0f 1f 84 00 00 	cs nopw 0x0(%rax,%rax,1)
    23d9:	00 00 00 
    23dc:	66 2e 0f 1f 84 00 00 	cs nopw 0x0(%rax,%rax,1)
    23e3:	00 00 00 
    23e6:	66 2e 0f 1f 84 00 00 	cs nopw 0x0(%rax,%rax,1)
    23ed:	00 00 00 
    23f0:	66 2e 0f 1f 84 00 00 	cs nopw 0x0(%rax,%rax,1)
    23f7:	00 00 00 
    23fa:	66 2e 0f 1f 84 00 00 	cs nopw 0x0(%rax,%rax,1)
    2401:	00 00 00 
    2404:	66 2e 0f 1f 84 00 00 	cs nopw 0x0(%rax,%rax,1)
    240b:	00 00 00 
    240e:	66 2e 0f 1f 84 00 00 	cs nopw 0x0(%rax,%rax,1)
    2415:	00 00 00 
    2418:	66 2e 0f 1f 84 00 00 	cs nopw 0x0(%rax,%rax,1)
    241f:	00 00 00 
    2422:	66 2e 0f 1f 84 00 00 	cs nopw 0x0(%rax,%rax,1)
    2429:	00 00 00 
    242c:	66 2e 0f 1f 84 00 00 	cs nopw 0x0(%rax,%rax,1)
    2433:	00 00 00 
    2436:	66 2e 0f 1f 84 00 00 	cs nopw 0x0(%rax,%rax,1)
    243d:	00 00 00 
    2440:	66 2e 0f 1f 84 00 00 	cs nopw 0x0(%rax,%rax,1)
    2447:	00 00 00 
    244a:	66 2e 0f 1f 84 00 00 	cs nopw 0x0(%rax,%rax,1)
    2451:	00 00 00 
    2454:	66 2e 0f 1f 84 00 00 	cs nopw 0x0(%rax,%rax,1)
    245b:	00 00 00 
    245e:	66 2e 0f 1f 84 00 00 	cs nopw 0x0(%rax,%rax,1)
    2465:	00 00 00 
    2468:	66 2e 0f 1f 84 00 00 	cs nopw 0x0(%rax,%rax,1)
    246f:	00 00 00 
    2472:	66 2e 0f 1f 84 00 00 	cs nopw 0x0(%rax,%rax,1)
    2479:	00 00 00 
    247c:	66 2e 0f 1f 84 00 00 	cs nopw 0x0(%rax,%rax,1)
    2483:	00 00 00 
    2486:	66 2e 0f 1f 84 00 00 	cs nopw 0x0(%rax,%rax,1)
    248d:	00 00 00 
    2490:	66 2e 0f 1f 84 00 00 	cs nopw 0x0(%rax,%rax,1)
    2497:	00 00 00 
    249a:	66 2e 0f 1f 84 00 00 	cs nopw 0x0(%rax,%rax,1)
    24a1:	00 00 00 
    24a4:	66 2e 0f 1f 84 00 00 	cs nopw 0x0(%rax,%rax,1)
    24ab:	00 00 00 
    24ae:	66 2e 0f 1f 84 00 00 	cs nopw 0x0(%rax,%rax,1)
    24b5:	00 00 00 
    24b8:	66 2e 0f 1f 84 00 00 	cs nopw 0x0(%rax,%rax,1)
    24bf:	00 00 00 
    24c2:	66 2e 0f 1f 84 00 00 	cs nopw 0x0(%rax,%rax,1)
    24c9:	00 00 00 
    24cc:	66 2e 0f 1f 84 00 00 	cs nopw 0x0(%rax,%rax,1)
    24d3:	00 00 00 
    24d6:	66 2e 0f 1f 84 00 00 	cs nopw 0x0(%rax,%rax,1)
    24dd:	00 00 00 
    24e0:	66 2e 0f 1f 84 00 00 	cs nopw 0x0(%rax,%rax,1)
    24e7:	00 00 00 
    24ea:	66 2e 0f 1f 84 00 00 	cs nopw 0x0(%rax,%rax,1)
    24f1:	00 00 00 
    24f4:	66 2e 0f 1f 84 00 00 	cs nopw 0x0(%rax,%rax,1)
    24fb:	00 00 00 
    24fe:	66 2e 0f 1f 84 00 00 	cs nopw 0x0(%rax,%rax,1)
    2505:	00 00 00 
    2508:	66 2e 0f 1f 84 00 00 	cs nopw 0x0(%rax,%rax,1)
    250f:	00 00 00 
    2512:	66 2e 0f 1f 84 00 00 	cs nopw 0x0(%rax,%rax,1)
    2519:	00 00 00 
    251c:	66 2e 0f 1f 84 00 00 	cs nopw 0x0(%rax,%rax,1)
    2523:	00 00 00 
    2526:	66 2e 0f 1f 84 00 00 	cs nopw 0x0(%rax,%rax,1)
    252d:	00 00 00 
    2530:	66 2e 0f 1f 84 00 00 	cs nopw 0x0(%rax,%rax,1)
    2537:	00 00 00 
    253a:	66 2e 0f 1f 84 00 00 	cs nopw 0x0(%rax,%rax,1)
    2541:	00 00 00 
    2544:	66 2e 0f 1f 84 00 00 	cs nopw 0x0(%rax,%rax,1)
    254b:	00 00 00 
    254e:	66 2e 0f 1f 84 00 00 	cs nopw 0x0(%rax,%rax,1)
    2555:	00 00 00 
    2558:	66 2e 0f 1f 84 00 00 	cs nopw 0x0(%rax,%rax,1)
    255f:	00 00 00 
    2562:	66 2e 0f 1f 84 00 00 	cs nopw 0x0(%rax,%rax,1)
    2569:	00 00 00 
    256c:	66 2e 0f 1f 84 00 00 	cs nopw 0x0(%rax,%rax,1)
    2573:	00 00 00 
    2576:	66 2e 0f 1f 84 00 00 	cs nopw 0x0(%rax,%rax,1)
    257d:	00 00 00 
    2580:	66 2e 0f 1f 84 00 00 	cs nopw 0x0(%rax,%rax,1)
    2587:	00 00 00 
    258a:	66 2e 0f 1f 84 00 00 	cs nopw 0x0(%rax,%rax,1)
    2591:	00 00 00 
    2594:	66 2e 0f 1f 84 00 00 	cs nopw 0x0(%rax,%rax,1)
    259b:	00 00 00 
    259e:	66 2e 0f 1f 84 00 00 	cs nopw 0x0(%rax,%rax,1)
    25a5:	00 00 00 
    25a8:	66 2e 0f 1f 84 00 00 	cs nopw 0x0(%rax,%rax,1)
    25af:	00 00 00 
    25b2:	66 2e 0f 1f 84 00 00 	cs nopw 0x0(%rax,%rax,1)
    25b9:	00 00 00 
    25bc:	66 2e 0f 1f 84 00 00 	cs nopw 0x0(%rax,%rax,1)
    25c3:	00 00 00 
    25c6:	66 2e 0f 1f 84 00 00 	cs nopw 0x0(%rax,%rax,1)
    25cd:	00 00 00 
    25d0:	66 2e 0f 1f 84 00 00 	cs nopw 0x0(%rax,%rax,1)
    25d7:	00 00 00 
    25da:	66 2e 0f 1f 84 00 00 	cs nopw 0x0(%rax,%rax,1)
    25e1:	00 00 00 
    25e4:	66 2e 0f 1f 84 00 00 	cs nopw 0x0(%rax,%rax,1)
    25eb:	00 00 00 
    25ee:	66 2e 0f 1f 84 00 00 	cs nopw 0x0(%rax,%rax,1)
    25f5:	00 00 00 
    25f8:	66 2e 0f 1f 84 00 00 	cs nopw 0x0(%rax,%rax,1)
    25ff:	00 00 00 
    2602:	66 2e 0f 1f 84 00 00 	cs nopw 0x0(%rax,%rax,1)
    2609:	00 00 00 
    260c:	66 2e 0f 1f 84 00 00 	cs nopw 0x0(%rax,%rax,1)
    2613:	00 00 00 
    2616:	66 2e 0f 1f 84 00 00 	cs nopw 0x0(%rax,%rax,1)
    261d:	00 00 00 
    2620:	66 2e 0f 1f 84 00 00 	cs nopw 0x0(%rax,%rax,1)
    2627:	00 00 00 
    262a:	66 2e 0f 1f 84 00 00 	cs nopw 0x0(%rax,%rax,1)
    2631:	00 00 00 
    2634:	66 2e 0f 1f 84 00 00 	cs nopw 0x0(%rax,%rax,1)
    263b:	00 00 00 
    263e:	66 2e 0f 1f 84 00 00 	cs nopw 0x0(%rax,%rax,1)
    2645:	00 00 00 
    2648:	66 2e 0f 1f 84 00 00 	cs nopw 0x0(%rax,%rax,1)
    264f:	00 00 00 
    2652:	66 2e 0f 1f 84 00 00 	cs nopw 0x0(%rax,%rax,1)
    2659:	00 00 00 
    265c:	66 2e 0f 1f 84 00 00 	cs nopw 0x0(%rax,%rax,1)
    2663:	00 00 00 
    2666:	66 2e 0f 1f 84 00 00 	cs nopw 0x0(%rax,%rax,1)
    266d:	00 00 00 
    2670:	66 2e 0f 1f 84 00 00 	cs nopw 0x0(%rax,%rax,1)
    2677:	00 00 00 
    267a:	66 2e 0f 1f 84 00 00 	cs nopw 0x0(%rax,%rax,1)
    2681:	00 00 00 
    2684:	66 2e 0f 1f 84 00 00 	cs nopw 0x0(%rax,%rax,1)
    268b:	00 00 00 
    268e:	66 2e 0f 1f 84 00 00 	cs nopw 0x0(%rax,%rax,1)
    2695:	00 00 00 
    2698:	66 2e 0f 1f 84 00 00 	cs nopw 0x0(%rax,%rax,1)
    269f:	00 00 00 
    26a2:	66 2e 0f 1f 84 00 00 	cs nopw 0x0(%rax,%rax,1)
    26a9:	00 00 00 
    26ac:	66 2e 0f 1f 84 00 00 	cs nopw 0x0(%rax,%rax,1)
    26b3:	00 00 00 
    26b6:	66 2e 0f 1f 84 00 00 	cs nopw 0x0(%rax,%rax,1)
    26bd:	00 00 00 
    26c0:	66 2e 0f 1f 84 00 00 	cs nopw 0x0(%rax,%rax,1)
    26c7:	00 00 00 
    26ca:	66 2e 0f 1f 84 00 00 	cs nopw 0x0(%rax,%rax,1)
    26d1:	00 00 00 
    26d4:	66 2e 0f 1f 84 00 00 	cs nopw 0x0(%rax,%rax,1)
    26db:	00 00 00 
    26de:	66 2e 0f 1f 84 00 00 	cs nopw 0x0(%rax,%rax,1)
    26e5:	00 00 00 
    26e8:	66 2e 0f 1f 84 00 00 	cs nopw 0x0(%rax,%rax,1)
    26ef:	00 00 00 
    26f2:	66 2e 0f 1f 84 00 00 	cs nopw 0x0(%rax,%rax,1)
    26f9:	00 00 00 
    26fc:	66 2e 0f 1f 84 00 00 	cs nopw 0x0(%rax,%rax,1)
    2703:	00 00 00 
    2706:	66 2e 0f 1f 84 00 00 	cs nopw 0x0(%rax,%rax,1)
    270d:	00 00 00 
    2710:	66 2e 0f 1f 84 00 00 	cs nopw 0x0(%rax,%rax,1)
    2717:	00 00 00 
    271a:	66 2e 0f 1f 84 00 00 	cs nopw 0x0(%rax,%rax,1)
    2721:	00 00 00 
    2724:	66 2e 0f 1f 84 00 00 	cs nopw 0x0(%rax,%rax,1)
    272b:	00 00 00 
    272e:	66 2e 0f 1f 84 00 00 	cs nopw 0x0(%rax,%rax,1)
    2735:	00 00 00 
    2738:	66 2e 0f 1f 84 00 00 	cs nopw 0x0(%rax,%rax,1)
    273f:	00 00 00 
    2742:	66 2e 0f 1f 84 00 00 	cs nopw 0x0(%rax,%rax,1)
    2749:	00 00 00 
    274c:	66 2e 0f 1f 84 00 00 	cs nopw 0x0(%rax,%rax,1)
    2753:	00 00 00 
    2756:	66 2e 0f 1f 84 00 00 	cs nopw 0x0(%rax,%rax,1)
    275d:	00 00 00 
    2760:	66 2e 0f 1f 84 00 00 	cs nopw 0x0(%rax,%rax,1)
    2767:	00 00 00 
    276a:	66 2e 0f 1f 84 00 00 	cs nopw 0x0(%rax,%rax,1)
    2771:	00 00 00 
    2774:	66 2e 0f 1f 84 00 00 	cs nopw 0x0(%rax,%rax,1)
    277b:	00 00 00 
    277e:	66 2e 0f 1f 84 00 00 	cs nopw 0x0(%rax,%rax,1)
    2785:	00 00 00 
    2788:	66 2e 0f 1f 84 00 00 	cs nopw 0x0(%rax,%rax,1)
    278f:	00 00 00 
    2792:	66 2e 0f 1f 84 00 00 	cs nopw 0x0(%rax,%rax,1)
    2799:	00 00 00 
    279c:	66 2e 0f 1f 84 00 00 	cs nopw 0x0(%rax,%rax,1)
    27a3:	00 00 00 
    27a6:	66 2e 0f 1f 84 00 00 	cs nopw 0x0(%rax,%rax,1)
    27ad:	00 00 00 
    27b0:	66 2e 0f 1f 84 00 00 	cs nopw 0x0(%rax,%rax,1)
    27b7:	00 00 00 
    27ba:	66 2e 0f 1f 84 00 00 	cs nopw 0x0(%rax,%rax,1)
    27c1:	00 00 00 
    27c4:	66 2e 0f 1f 84 00 00 	cs nopw 0x0(%rax,%rax,1)
    27cb:	00 00 00 
    27ce:	66 2e 0f 1f 84 00 00 	cs nopw 0x0(%rax,%rax,1)
    27d5:	00 00 00 
    27d8:	66 2e 0f 1f 84 00 00 	cs nopw 0x0(%rax,%rax,1)
    27df:	00 00 00 
    27e2:	66 2e 0f 1f 84 00 00 	cs nopw 0x0(%rax,%rax,1)
    27e9:	00 00 00 
    27ec:	66 2e 0f 1f 84 00 00 	cs nopw 0x0(%rax,%rax,1)
    27f3:	00 00 00 
    27f6:	66 2e 0f 1f 84 00 00 	cs nopw 0x0(%rax,%rax,1)
    27fd:	00 00 00 
    2800:	66 2e 0f 1f 84 00 00 	cs nopw 0x0(%rax,%rax,1)
    2807:	00 00 00 
    280a:	66 2e 0f 1f 84 00 00 	cs nopw 0x0(%rax,%rax,1)
    2811:	00 00 00 
    2814:	66 2e 0f 1f 84 00 00 	cs nopw 0x0(%rax,%rax,1)
    281b:	00 00 00 
    281e:	66 2e 0f 1f 84 00 00 	cs nopw 0x0(%rax,%rax,1)
    2825:	00 00 00 
    2828:	66 2e 0f 1f 84 00 00 	cs nopw 0x0(%rax,%rax,1)
    282f:	00 00 00 
    2832:	66 2e 0f 1f 84 00 00 	cs nopw 0x0(%rax,%rax,1)
    2839:	00 00 00 
    283c:	66 2e 0f 1f 84 00 00 	cs nopw 0x0(%rax,%rax,1)
    2843:	00 00 00 
    2846:	66 2e 0f 1f 84 00 00 	cs nopw 0x0(%rax,%rax,1)
    284d:	00 00 00 
    2850:	66 2e 0f 1f 84 00 00 	cs nopw 0x0(%rax,%rax,1)
    2857:	00 00 00 
    285a:	66 2e 0f 1f 84 00 00 	cs nopw 0x0(%rax,%rax,1)
    2861:	00 00 00 
    2864:	66 2e 0f 1f 84 00 00 	cs nopw 0x0(%rax,%rax,1)
    286b:	00 00 00 
    286e:	66 2e 0f 1f 84 00 00 	cs nopw 0x0(%rax,%rax,1)
    2875:	00 00 00 
    2878:	66 2e 0f 1f 84 00 00 	cs nopw 0x0(%rax,%rax,1)
    287f:	00 00 00 
    2882:	66 2e 0f 1f 84 00 00 	cs nopw 0x0(%rax,%rax,1)
    2889:	00 00 00 
    288c:	66 2e 0f 1f 84 00 00 	cs nopw 0x0(%rax,%rax,1)
    2893:	00 00 00 
    2896:	66 2e 0f 1f 84 00 00 	cs nopw 0x0(%rax,%rax,1)
    289d:	00 00 00 
    28a0:	66 2e 0f 1f 84 00 00 	cs nopw 0x0(%rax,%rax,1)
    28a7:	00 00 00 
    28aa:	66 2e 0f 1f 84 00 00 	cs nopw 0x0(%rax,%rax,1)
    28b1:	00 00 00 
    28b4:	66 2e 0f 1f 84 00 00 	cs nopw 0x0(%rax,%rax,1)
    28bb:	00 00 00 
    28be:	66 2e 0f 1f 84 00 00 	cs nopw 0x0(%rax,%rax,1)
    28c5:	00 00 00 
    28c8:	66 2e 0f 1f 84 00 00 	cs nopw 0x0(%rax,%rax,1)
    28cf:	00 00 00 
    28d2:	66 2e 0f 1f 84 00 00 	cs nopw 0x0(%rax,%rax,1)
    28d9:	00 00 00 
    28dc:	66 2e 0f 1f 84 00 00 	cs nopw 0x0(%rax,%rax,1)
    28e3:	00 00 00 
    28e6:	66 2e 0f 1f 84 00 00 	cs nopw 0x0(%rax,%rax,1)
    28ed:	00 00 00 
    28f0:	66 2e 0f 1f 84 00 00 	cs nopw 0x0(%rax,%rax,1)
    28f7:	00 00 00 
    28fa:	66 2e 0f 1f 84 00 00 	cs nopw 0x0(%rax,%rax,1)
    2901:	00 00 00 
    2904:	66 2e 0f 1f 84 00 00 	cs nopw 0x0(%rax,%rax,1)
    290b:	00 00 00 
    290e:	66 2e 0f 1f 84 00 00 	cs nopw 0x0(%rax,%rax,1)
    2915:	00 00 00 
    2918:	66 2e 0f 1f 84 00 00 	cs nopw 0x0(%rax,%rax,1)
    291f:	00 00 00 
    2922:	66 2e 0f 1f 84 00 00 	cs nopw 0x0(%rax,%rax,1)
    2929:	00 00 00 
    292c:	66 2e 0f 1f 84 00 00 	cs nopw 0x0(%rax,%rax,1)
    2933:	00 00 00 
    2936:	66 2e 0f 1f 84 00 00 	cs nopw 0x0(%rax,%rax,1)
    293d:	00 00 00 
    2940:	66 2e 0f 1f 84 00 00 	cs nopw 0x0(%rax,%rax,1)
    2947:	00 00 00 
    294a:	66 2e 0f 1f 84 00 00 	cs nopw 0x0(%rax,%rax,1)
    2951:	00 00 00 
    2954:	66 2e 0f 1f 84 00 00 	cs nopw 0x0(%rax,%rax,1)
    295b:	00 00 00 
    295e:	66 2e 0f 1f 84 00 00 	cs nopw 0x0(%rax,%rax,1)
    2965:	00 00 00 
    2968:	66 2e 0f 1f 84 00 00 	cs nopw 0x0(%rax,%rax,1)
    296f:	00 00 00 
    2972:	66 2e 0f 1f 84 00 00 	cs nopw 0x0(%rax,%rax,1)
    2979:	00 00 00 
    297c:	66 2e 0f 1f 84 00 00 	cs nopw 0x0(%rax,%rax,1)
    2983:	00 00 00 
    2986:	66 2e 0f 1f 84 00 00 	cs nopw 0x0(%rax,%rax,1)
    298d:	00 00 00 
    2990:	66 2e 0f 1f 84 00 00 	cs nopw 0x0(%rax,%rax,1)
    2997:	00 00 00 
    299a:	66 2e 0f 1f 84 00 00 	cs nopw 0x0(%rax,%rax,1)
    29a1:	00 00 00 
    29a4:	66 2e 0f 1f 84 00 00 	cs nopw 0x0(%rax,%rax,1)
    29ab:	00 00 00 
    29ae:	66 2e 0f 1f 84 00 00 	cs nopw 0x0(%rax,%rax,1)
    29b5:	00 00 00 
    29b8:	66 2e 0f 1f 84 00 00 	cs nopw 0x0(%rax,%rax,1)
    29bf:	00 00 00 
    29c2:	66 2e 0f 1f 84 00 00 	cs nopw 0x0(%rax,%rax,1)
    29c9:	00 00 00 
    29cc:	66 2e 0f 1f 84 00 00 	cs nopw 0x0(%rax,%rax,1)
    29d3:	00 00 00 
    29d6:	66 2e 0f 1f 84 00 00 	cs nopw 0x0(%rax,%rax,1)
    29dd:	00 00 00 
    29e0:	66 2e 0f 1f 84 00 00 	cs nopw 0x0(%rax,%rax,1)
    29e7:	00 00 00 
    29ea:	66 2e 0f 1f 84 00 00 	cs nopw 0x0(%rax,%rax,1)
    29f1:	00 00 00 
    29f4:	66 2e 0f 1f 84 00 00 	cs nopw 0x0(%rax,%rax,1)
    29fb:	00 00 00 
    29fe:	66 2e 0f 1f 84 00 00 	cs nopw 0x0(%rax,%rax,1)
    2a05:	00 00 00 
    2a08:	66 2e 0f 1f 84 00 00 	cs nopw 0x0(%rax,%rax,1)
    2a0f:	00 00 00 
    2a12:	66 2e 0f 1f 84 00 00 	cs nopw 0x0(%rax,%rax,1)
    2a19:	00 00 00 
    2a1c:	66 2e 0f 1f 84 00 00 	cs nopw 0x0(%rax,%rax,1)
    2a23:	00 00 00 
    2a26:	66 2e 0f 1f 84 00 00 	cs nopw 0x0(%rax,%rax,1)
    2a2d:	00 00 00 
    2a30:	66 2e 0f 1f 84 00 00 	cs nopw 0x0(%rax,%rax,1)
    2a37:	00 00 00 
    2a3a:	66 2e 0f 1f 84 00 00 	cs nopw 0x0(%rax,%rax,1)
    2a41:	00 00 00 
    2a44:	66 2e 0f 1f 84 00 00 	cs nopw 0x0(%rax,%rax,1)
    2a4b:	00 00 00 
    2a4e:	66 2e 0f 1f 84 00 00 	cs nopw 0x0(%rax,%rax,1)
    2a55:	00 00 00 
    2a58:	66 2e 0f 1f 84 00 00 	cs nopw 0x0(%rax,%rax,1)
    2a5f:	00 00 00 
    2a62:	66 2e 0f 1f 84 00 00 	cs nopw 0x0(%rax,%rax,1)
    2a69:	00 00 00 
    2a6c:	66 2e 0f 1f 84 00 00 	cs nopw 0x0(%rax,%rax,1)
    2a73:	00 00 00 
    2a76:	66 2e 0f 1f 84 00 00 	cs nopw 0x0(%rax,%rax,1)
    2a7d:	00 00 00 
    2a80:	66 2e 0f 1f 84 00 00 	cs nopw 0x0(%rax,%rax,1)
    2a87:	00 00 00 
    2a8a:	66 2e 0f 1f 84 00 00 	cs nopw 0x0(%rax,%rax,1)
    2a91:	00 00 00 
    2a94:	66 2e 0f 1f 84 00 00 	cs nopw 0x0(%rax,%rax,1)
    2a9b:	00 00 00 
    2a9e:	66 2e 0f 1f 84 00 00 	cs nopw 0x0(%rax,%rax,1)
    2aa5:	00 00 00 
    2aa8:	66 2e 0f 1f 84 00 00 	cs nopw 0x0(%rax,%rax,1)
    2aaf:	00 00 00 
    2ab2:	66 2e 0f 1f 84 00 00 	cs nopw 0x0(%rax,%rax,1)
    2ab9:	00 00 00 
    2abc:	66 2e 0f 1f 84 00 00 	cs nopw 0x0(%rax,%rax,1)
    2ac3:	00 00 00 
    2ac6:	66 2e 0f 1f 84 00 00 	cs nopw 0x0(%rax,%rax,1)
    2acd:	00 00 00 
    2ad0:	66 2e 0f 1f 84 00 00 	cs nopw 0x0(%rax,%rax,1)
    2ad7:	00 00 00 
    2ada:	66 2e 0f 1f 84 00 00 	cs nopw 0x0(%rax,%rax,1)
    2ae1:	00 00 00 
    2ae4:	66 2e 0f 1f 84 00 00 	cs nopw 0x0(%rax,%rax,1)
    2aeb:	00 00 00 
    2aee:	66 2e 0f 1f 84 00 00 	cs nopw 0x0(%rax,%rax,1)
    2af5:	00 00 00 
    2af8:	66 2e 0f 1f 84 00 00 	cs nopw 0x0(%rax,%rax,1)
    2aff:	00 00 00 
    2b02:	66 2e 0f 1f 84 00 00 	cs nopw 0x0(%rax,%rax,1)
    2b09:	00 00 00 
    2b0c:	66 2e 0f 1f 84 00 00 	cs nopw 0x0(%rax,%rax,1)
    2b13:	00 00 00 
    2b16:	66 2e 0f 1f 84 00 00 	cs nopw 0x0(%rax,%rax,1)
    2b1d:	00 00 00 
    2b20:	66 2e 0f 1f 84 00 00 	cs nopw 0x0(%rax,%rax,1)
    2b27:	00 00 00 
    2b2a:	66 2e 0f 1f 84 00 00 	cs nopw 0x0(%rax,%rax,1)
    2b31:	00 00 00 
    2b34:	66 2e 0f 1f 84 00 00 	cs nopw 0x0(%rax,%rax,1)
    2b3b:	00 00 00 
    2b3e:	66 2e 0f 1f 84 00 00 	cs nopw 0x0(%rax,%rax,1)
    2b45:	00 00 00 
    2b48:	66 2e 0f 1f 84 00 00 	cs nopw 0x0(%rax,%rax,1)
    2b4f:	00 00 00 
    2b52:	66 2e 0f 1f 84 00 00 	cs nopw 0x0(%rax,%rax,1)
    2b59:	00 00 00 
    2b5c:	66 2e 0f 1f 84 00 00 	cs nopw 0x0(%rax,%rax,1)
    2b63:	00 00 00 
    2b66:	66 2e 0f 1f 84 00 00 	cs nopw 0x0(%rax,%rax,1)
    2b6d:	00 00 00 
    2b70:	66 2e 0f 1f 84 00 00 	cs nopw 0x0(%rax,%rax,1)
    2b77:	00 00 00 
    2b7a:	66 2e 0f 1f 84 00 00 	cs nopw 0x0(%rax,%rax,1)
    2b81:	00 00 00 
    2b84:	66 2e 0f 1f 84 00 00 	cs nopw 0x0(%rax,%rax,1)
    2b8b:	00 00 00 
    2b8e:	66 2e 0f 1f 84 00 00 	cs nopw 0x0(%rax,%rax,1)
    2b95:	00 00 00 
    2b98:	66 2e 0f 1f 84 00 00 	cs nopw 0x0(%rax,%rax,1)
    2b9f:	00 00 00 
    2ba2:	66 2e 0f 1f 84 00 00 	cs nopw 0x0(%rax,%rax,1)
    2ba9:	00 00 00 
    2bac:	66 2e 0f 1f 84 00 00 	cs nopw 0x0(%rax,%rax,1)
    2bb3:	00 00 00 
    2bb6:	66 2e 0f 1f 84 00 00 	cs nopw 0x0(%rax,%rax,1)
    2bbd:	00 00 00 
    2bc0:	66 2e 0f 1f 84 00 00 	cs nopw 0x0(%rax,%rax,1)
    2bc7:	00 00 00 
    2bca:	66 2e 0f 1f 84 00 00 	cs nopw 0x0(%rax,%rax,1)
    2bd1:	00 00 00 
    2bd4:	66 2e 0f 1f 84 00 00 	cs nopw 0x0(%rax,%rax,1)
    2bdb:	00 00 00 
    2bde:	66 2e 0f 1f 84 00 00 	cs nopw 0x0(%rax,%rax,1)
    2be5:	00 00 00 
    2be8:	66 2e 0f 1f 84 00 00 	cs nopw 0x0(%rax,%rax,1)
    2bef:	00 00 00 
    2bf2:	66 2e 0f 1f 84 00 00 	cs nopw 0x0(%rax,%rax,1)
    2bf9:	00 00 00 
    2bfc:	66 2e 0f 1f 84 00 00 	cs nopw 0x0(%rax,%rax,1)
    2c03:	00 00 00 
    2c06:	66 2e 0f 1f 84 00 00 	cs nopw 0x0(%rax,%rax,1)
    2c0d:	00 00 00 
    2c10:	66 2e 0f 1f 84 00 00 	cs nopw 0x0(%rax,%rax,1)
    2c17:	00 00 00 
    2c1a:	66 2e 0f 1f 84 00 00 	cs nopw 0x0(%rax,%rax,1)
    2c21:	00 00 00 
    2c24:	66 2e 0f 1f 84 00 00 	cs nopw 0x0(%rax,%rax,1)
    2c2b:	00 00 00 
    2c2e:	66 2e 0f 1f 84 00 00 	cs nopw 0x0(%rax,%rax,1)
    2c35:	00 00 00 
    2c38:	66 2e 0f 1f 84 00 00 	cs nopw 0x0(%rax,%rax,1)
    2c3f:	00 00 00 
    2c42:	66 2e 0f 1f 84 00 00 	cs nopw 0x0(%rax,%rax,1)
    2c49:	00 00 00 
    2c4c:	66 2e 0f 1f 84 00 00 	cs nopw 0x0(%rax,%rax,1)
    2c53:	00 00 00 
    2c56:	66 2e 0f 1f 84 00 00 	cs nopw 0x0(%rax,%rax,1)
    2c5d:	00 00 00 
    2c60:	66 2e 0f 1f 84 00 00 	cs nopw 0x0(%rax,%rax,1)
    2c67:	00 00 00 
    2c6a:	66 2e 0f 1f 84 00 00 	cs nopw 0x0(%rax,%rax,1)
    2c71:	00 00 00 
    2c74:	66 2e 0f 1f 84 00 00 	cs nopw 0x0(%rax,%rax,1)
    2c7b:	00 00 00 
    2c7e:	66 2e 0f 1f 84 00 00 	cs nopw 0x0(%rax,%rax,1)
    2c85:	00 00 00 
    2c88:	66 2e 0f 1f 84 00 00 	cs nopw 0x0(%rax,%rax,1)
    2c8f:	00 00 00 
    2c92:	66 2e 0f 1f 84 00 00 	cs nopw 0x0(%rax,%rax,1)
    2c99:	00 00 00 
    2c9c:	66 2e 0f 1f 84 00 00 	cs nopw 0x0(%rax,%rax,1)
    2ca3:	00 00 00 
    2ca6:	66 2e 0f 1f 84 00 00 	cs nopw 0x0(%rax,%rax,1)
    2cad:	00 00 00 
    2cb0:	66 2e 0f 1f 84 00 00 	cs nopw 0x0(%rax,%rax,1)
    2cb7:	00 00 00 
    2cba:	66 2e 0f 1f 84 00 00 	cs nopw 0x0(%rax,%rax,1)
    2cc1:	00 00 00 
    2cc4:	66 2e 0f 1f 84 00 00 	cs nopw 0x0(%rax,%rax,1)
    2ccb:	00 00 00 
    2cce:	66 2e 0f 1f 84 00 00 	cs nopw 0x0(%rax,%rax,1)
    2cd5:	00 00 00 
    2cd8:	66 2e 0f 1f 84 00 00 	cs nopw 0x0(%rax,%rax,1)
    2cdf:	00 00 00 
    2ce2:	66 2e 0f 1f 84 00 00 	cs nopw 0x0(%rax,%rax,1)
    2ce9:	00 00 00 
    2cec:	66 2e 0f 1f 84 00 00 	cs nopw 0x0(%rax,%rax,1)
    2cf3:	00 00 00 
    2cf6:	66 2e 0f 1f 84 00 00 	cs nopw 0x0(%rax,%rax,1)
    2cfd:	00 00 00 
    2d00:	66 2e 0f 1f 84 00 00 	cs nopw 0x0(%rax,%rax,1)
    2d07:	00 00 00 
    2d0a:	66 2e 0f 1f 84 00 00 	cs nopw 0x0(%rax,%rax,1)
    2d11:	00 00 00 
    2d14:	66 2e 0f 1f 84 00 00 	cs nopw 0x0(%rax,%rax,1)
    2d1b:	00 00 00 
    2d1e:	66 2e 0f 1f 84 00 00 	cs nopw 0x0(%rax,%rax,1)
    2d25:	00 00 00 
    2d28:	66 2e 0f 1f 84 00 00 	cs nopw 0x0(%rax,%rax,1)
    2d2f:	00 00 00 
    2d32:	66 2e 0f 1f 84 00 00 	cs nopw 0x0(%rax,%rax,1)
    2d39:	00 00 00 
    2d3c:	66 2e 0f 1f 84 00 00 	cs nopw 0x0(%rax,%rax,1)
    2d43:	00 00 00 
    2d46:	66 2e 0f 1f 84 00 00 	cs nopw 0x0(%rax,%rax,1)
    2d4d:	00 00 00 
    2d50:	66 2e 0f 1f 84 00 00 	cs nopw 0x0(%rax,%rax,1)
    2d57:	00 00 00 
    2d5a:	66 2e 0f 1f 84 00 00 	cs nopw 0x0(%rax,%rax,1)
    2d61:	00 00 00 
    2d64:	66 2e 0f 1f 84 00 00 	cs nopw 0x0(%rax,%rax,1)
    2d6b:	00 00 00 
    2d6e:	66 2e 0f 1f 84 00 00 	cs nopw 0x0(%rax,%rax,1)
    2d75:	00 00 00 
    2d78:	66 2e 0f 1f 84 00 00 	cs nopw 0x0(%rax,%rax,1)
    2d7f:	00 00 00 
    2d82:	66 2e 0f 1f 84 00 00 	cs nopw 0x0(%rax,%rax,1)
    2d89:	00 00 00 
    2d8c:	66 2e 0f 1f 84 00 00 	cs nopw 0x0(%rax,%rax,1)
    2d93:	00 00 00 
    2d96:	66 2e 0f 1f 84 00 00 	cs nopw 0x0(%rax,%rax,1)
    2d9d:	00 00 00 
    2da0:	66 2e 0f 1f 84 00 00 	cs nopw 0x0(%rax,%rax,1)
    2da7:	00 00 00 
    2daa:	66 2e 0f 1f 84 00 00 	cs nopw 0x0(%rax,%rax,1)
    2db1:	00 00 00 
    2db4:	66 2e 0f 1f 84 00 00 	cs nopw 0x0(%rax,%rax,1)
    2dbb:	00 00 00 
    2dbe:	66 2e 0f 1f 84 00 00 	cs nopw 0x0(%rax,%rax,1)
    2dc5:	00 00 00 
    2dc8:	66 2e 0f 1f 84 00 00 	cs nopw 0x0(%rax,%rax,1)
    2dcf:	00 00 00 
    2dd2:	66 2e 0f 1f 84 00 00 	cs nopw 0x0(%rax,%rax,1)
    2dd9:	00 00 00 
    2ddc:	66 2e 0f 1f 84 00 00 	cs nopw 0x0(%rax,%rax,1)
    2de3:	00 00 00 
    2de6:	66 2e 0f 1f 84 00 00 	cs nopw 0x0(%rax,%rax,1)
    2ded:	00 00 00 
    2df0:	66 2e 0f 1f 84 00 00 	cs nopw 0x0(%rax,%rax,1)
    2df7:	00 00 00 
    2dfa:	66 2e 0f 1f 84 00 00 	cs nopw 0x0(%rax,%rax,1)
    2e01:	00 00 00 
    2e04:	66 2e 0f 1f 84 00 00 	cs nopw 0x0(%rax,%rax,1)
    2e0b:	00 00 00 
    2e0e:	66 2e 0f 1f 84 00 00 	cs nopw 0x0(%rax,%rax,1)
    2e15:	00 00 00 
    2e18:	66 2e 0f 1f 84 00 00 	cs nopw 0x0(%rax,%rax,1)
    2e1f:	00 00 00 
    2e22:	66 2e 0f 1f 84 00 00 	cs nopw 0x0(%rax,%rax,1)
    2e29:	00 00 00 
    2e2c:	66 2e 0f 1f 84 00 00 	cs nopw 0x0(%rax,%rax,1)
    2e33:	00 00 00 
    2e36:	66 2e 0f 1f 84 00 00 	cs nopw 0x0(%rax,%rax,1)
    2e3d:	00 00 00 
    2e40:	66 2e 0f 1f 84 00 00 	cs nopw 0x0(%rax,%rax,1)
    2e47:	00 00 00 
    2e4a:	66 2e 0f 1f 84 00 00 	cs nopw 0x0(%rax,%rax,1)
    2e51:	00 00 00 
    2e54:	66 2e 0f 1f 84 00 00 	cs nopw 0x0(%rax,%rax,1)
    2e5b:	00 00 00 
    2e5e:	66 2e 0f 1f 84 00 00 	cs nopw 0x0(%rax,%rax,1)
    2e65:	00 00 00 
    2e68:	66 2e 0f 1f 84 00 00 	cs nopw 0x0(%rax,%rax,1)
    2e6f:	00 00 00 
    2e72:	66 2e 0f 1f 84 00 00 	cs nopw 0x0(%rax,%rax,1)
    2e79:	00 00 00 
    2e7c:	66 2e 0f 1f 84 00 00 	cs nopw 0x0(%rax,%rax,1)
    2e83:	00 00 00 
    2e86:	66 2e 0f 1f 84 00 00 	cs nopw 0x0(%rax,%rax,1)
    2e8d:	00 00 00 
    2e90:	66 2e 0f 1f 84 00 00 	cs nopw 0x0(%rax,%rax,1)
    2e97:	00 00 00 
    2e9a:	66 2e 0f 1f 84 00 00 	cs nopw 0x0(%rax,%rax,1)
    2ea1:	00 00 00 
    2ea4:	66 2e 0f 1f 84 00 00 	cs nopw 0x0(%rax,%rax,1)
    2eab:	00 00 00 
    2eae:	66 2e 0f 1f 84 00 00 	cs nopw 0x0(%rax,%rax,1)
    2eb5:	00 00 00 
    2eb8:	66 2e 0f 1f 84 00 00 	cs nopw 0x0(%rax,%rax,1)
    2ebf:	00 00 00 
    2ec2:	66 2e 0f 1f 84 00 00 	cs nopw 0x0(%rax,%rax,1)
    2ec9:	00 00 00 
    2ecc:	66 2e 0f 1f 84 00 00 	cs nopw 0x0(%rax,%rax,1)
    2ed3:	00 00 00 
    2ed6:	66 2e 0f 1f 84 00 00 	cs nopw 0x0(%rax,%rax,1)
    2edd:	00 00 00 
    2ee0:	66 2e 0f 1f 84 00 00 	cs nopw 0x0(%rax,%rax,1)
    2ee7:	00 00 00 
    2eea:	66 2e 0f 1f 84 00 00 	cs nopw 0x0(%rax,%rax,1)
    2ef1:	00 00 00 
    2ef4:	66 2e 0f 1f 84 00 00 	cs nopw 0x0(%rax,%rax,1)
    2efb:	00 00 00 
    2efe:	66 2e 0f 1f 84 00 00 	cs nopw 0x0(%rax,%rax,1)
    2f05:	00 00 00 
    2f08:	66 2e 0f 1f 84 00 00 	cs nopw 0x0(%rax,%rax,1)
    2f0f:	00 00 00 
    2f12:	66 2e 0f 1f 84 00 00 	cs nopw 0x0(%rax,%rax,1)
    2f19:	00 00 00 
    2f1c:	66 2e 0f 1f 84 00 00 	cs nopw 0x0(%rax,%rax,1)
    2f23:	00 00 00 
    2f26:	66 2e 0f 1f 84 00 00 	cs nopw 0x0(%rax,%rax,1)
    2f2d:	00 00 00 
    2f30:	66 2e 0f 1f 84 00 00 	cs nopw 0x0(%rax,%rax,1)
    2f37:	00 00 00 
    2f3a:	66 2e 0f 1f 84 00 00 	cs nopw 0x0(%rax,%rax,1)
    2f41:	00 00 00 
    2f44:	66 2e 0f 1f 84 00 00 	cs nopw 0x0(%rax,%rax,1)
    2f4b:	00 00 00 
    2f4e:	66 2e 0f 1f 84 00 00 	cs nopw 0x0(%rax,%rax,1)
    2f55:	00 00 00 
    2f58:	66 2e 0f 1f 84 00 00 	cs nopw 0x0(%rax,%rax,1)
    2f5f:	00 00 00 
    2f62:	66 2e 0f 1f 84 00 00 	cs nopw 0x0(%rax,%rax,1)
    2f69:	00 00 00 
    2f6c:	66 2e 0f 1f 84 00 00 	cs nopw 0x0(%rax,%rax,1)
    2f73:	00 00 00 
    2f76:	66 2e 0f 1f 84 00 00 	cs nopw 0x0(%rax,%rax,1)
    2f7d:	00 00 00 
    2f80:	66 2e 0f 1f 84 00 00 	cs nopw 0x0(%rax,%rax,1)
    2f87:	00 00 00 
    2f8a:	66 2e 0f 1f 84 00 00 	cs nopw 0x0(%rax,%rax,1)
    2f91:	00 00 00 
    2f94:	66 2e 0f 1f 84 00 00 	cs nopw 0x0(%rax,%rax,1)
    2f9b:	00 00 00 
    2f9e:	66 2e 0f 1f 84 00 00 	cs nopw 0x0(%rax,%rax,1)
    2fa5:	00 00 00 
    2fa8:	66 2e 0f 1f 84 00 00 	cs nopw 0x0(%rax,%rax,1)
    2faf:	00 00 00 
    2fb2:	66 2e 0f 1f 84 00 00 	cs nopw 0x0(%rax,%rax,1)
    2fb9:	00 00 00 
    2fbc:	66 2e 0f 1f 84 00 00 	cs nopw 0x0(%rax,%rax,1)
    2fc3:	00 00 00 
    2fc6:	66 2e 0f 1f 84 00 00 	cs nopw 0x0(%rax,%rax,1)
    2fcd:	00 00 00 
    2fd0:	66 2e 0f 1f 84 00 00 	cs nopw 0x0(%rax,%rax,1)
    2fd7:	00 00 00 
    2fda:	66 2e 0f 1f 84 00 00 	cs nopw 0x0(%rax,%rax,1)
    2fe1:	00 00 00 
    2fe4:	66 2e 0f 1f 84 00 00 	cs nopw 0x0(%rax,%rax,1)
    2feb:	00 00 00 
    2fee:	66 2e 0f 1f 84 00 00 	cs nopw 0x0(%rax,%rax,1)
    2ff5:	00 00 00 
    2ff8:	0f 1f 84 00 00 00 00 	nopl   0x0(%rax,%rax,1)
    2fff:	00 

0000000000003000 <test_dummy>:
    3000:	b8 00 00 00 00       	mov    $0x0,%eax
    3005:	c3                   	ret    
	...

0000000000004006 <sgx_ecall_get_secret>:
    4006:	f3 0f 1e fa          	endbr64 
    400a:	41 55                	push   %r13
    400c:	41 54                	push   %r12
    400e:	55                   	push   %rbp
    400f:	53                   	push   %rbx
    4010:	48 83 ec 28          	sub    $0x28,%rsp
    4014:	48 85 ff             	test   %rdi,%rdi
    4017:	75 0b                	jne    4024 <sgx_ecall_get_secret+0x1e>
    4019:	41 bc 02 00 00 00    	mov    $0x2,%r12d
    401f:	e9 c3 00 00 00       	jmp    40e7 <sgx_ecall_get_secret+0xe1>
    4024:	be 18 00 00 00       	mov    $0x18,%esi
    4029:	48 89 fb             	mov    %rdi,%rbx
    402c:	e8 2f 1c 00 00       	call   5c60 <sgx_is_outside_enclave>
    4031:	85 c0                	test   %eax,%eax
    4033:	74 e4                	je     4019 <sgx_ecall_get_secret+0x13>
    4035:	0f ae e8             	lfence 
    4038:	48 8d 7c 24 08       	lea    0x8(%rsp),%rdi
    403d:	b9 18 00 00 00       	mov    $0x18,%ecx
    4042:	48 89 da             	mov    %rbx,%rdx
    4045:	be 18 00 00 00       	mov    $0x18,%esi
    404a:	41 bc 01 00 00 00    	mov    $0x1,%r12d
    4050:	e8 eb cc 00 00       	call   10d40 <memcpy_s>
    4055:	85 c0                	test   %eax,%eax
    4057:	0f 85 8a 00 00 00    	jne    40e7 <sgx_ecall_get_secret+0xe1>
    405d:	4c 8b 6c 24 10       	mov    0x10(%rsp),%r13
    4062:	48 8b 6c 24 18       	mov    0x18(%rsp),%rbp
    4067:	4d 85 ed             	test   %r13,%r13
    406a:	75 11                	jne    407d <sgx_ecall_get_secret+0x77>
    406c:	0f ae e8             	lfence 
    406f:	4d 85 ed             	test   %r13,%r13
    4072:	74 05                	je     4079 <sgx_ecall_get_secret+0x73>
    4074:	48 85 ed             	test   %rbp,%rbp
    4077:	75 15                	jne    408e <sgx_ecall_get_secret+0x88>
    4079:	31 db                	xor    %ebx,%ebx
    407b:	eb 31                	jmp    40ae <sgx_ecall_get_secret+0xa8>
    407d:	48 89 ee             	mov    %rbp,%rsi
    4080:	4c 89 ef             	mov    %r13,%rdi
    4083:	e8 d8 1b 00 00       	call   5c60 <sgx_is_outside_enclave>
    4088:	85 c0                	test   %eax,%eax
    408a:	75 e0                	jne    406c <sgx_ecall_get_secret+0x66>
    408c:	eb 8b                	jmp    4019 <sgx_ecall_get_secret+0x13>
    408e:	48 89 ef             	mov    %rbp,%rdi
    4091:	41 bc 03 00 00 00    	mov    $0x3,%r12d
    4097:	e8 34 91 00 00       	call   d1d0 <dlmalloc>
    409c:	48 89 c3             	mov    %rax,%rbx
    409f:	48 85 c0             	test   %rax,%rax
    40a2:	74 43                	je     40e7 <sgx_ecall_get_secret+0xe1>
    40a4:	31 c0                	xor    %eax,%eax
    40a6:	48 89 df             	mov    %rbx,%rdi
    40a9:	48 89 e9             	mov    %rbp,%rcx
    40ac:	f3 aa                	rep stos %al,%es:(%rdi)
    40ae:	8b 7c 24 08          	mov    0x8(%rsp),%edi
    40b2:	48 89 ea             	mov    %rbp,%rdx
    40b5:	48 89 de             	mov    %rbx,%rsi
    40b8:	45 31 e4             	xor    %r12d,%r12d
    40bb:	e8 4b e0 ff ff       	call   210b <ecall_get_secret>
    40c0:	48 85 db             	test   %rbx,%rbx
    40c3:	74 22                	je     40e7 <sgx_ecall_get_secret+0xe1>
    40c5:	4c 89 ef             	mov    %r13,%rdi
    40c8:	48 89 e9             	mov    %rbp,%rcx
    40cb:	48 89 da             	mov    %rbx,%rdx
    40ce:	48 89 ee             	mov    %rbp,%rsi
    40d1:	e8 ea cc 00 00       	call   10dc0 <memcpy_verw_s>
    40d6:	45 31 e4             	xor    %r12d,%r12d
    40d9:	48 89 df             	mov    %rbx,%rdi
    40dc:	85 c0                	test   %eax,%eax
    40de:	41 0f 95 c4          	setne  %r12b
    40e2:	e8 d9 ae 00 00       	call   efc0 <dlfree>
    40e7:	48 83 c4 28          	add    $0x28,%rsp
    40eb:	44 89 e0             	mov    %r12d,%eax
    40ee:	5b                   	pop    %rbx
    40ef:	5d                   	pop    %rbp
    40f0:	41 5c                	pop    %r12
    40f2:	41 5d                	pop    %r13
    40f4:	c3                   	ret    

00000000000040f5 <sgx_ecall_get_response>:
    40f5:	f3 0f 1e fa          	endbr64 
    40f9:	48 85 ff             	test   %rdi,%rdi
    40fc:	75 0a                	jne    4108 <sgx_ecall_get_response+0x13>
    40fe:	50                   	push   %rax
    40ff:	e8 d1 df ff ff       	call   20d5 <ecall_get_response>
    4104:	31 c0                	xor    %eax,%eax
    4106:	5a                   	pop    %rdx
    4107:	c3                   	ret    
    4108:	b8 02 00 00 00       	mov    $0x2,%eax
    410d:	c3                   	ret    

000000000000410e <sgx_ecall_update_response_loc>:
    410e:	f3 0f 1e fa          	endbr64 
    4112:	41 54                	push   %r12
    4114:	55                   	push   %rbp
    4115:	53                   	push   %rbx
    4116:	48 83 ec 10          	sub    $0x10,%rsp
    411a:	48 85 ff             	test   %rdi,%rdi
    411d:	75 0a                	jne    4129 <sgx_ecall_update_response_loc+0x1b>
    411f:	bd 02 00 00 00       	mov    $0x2,%ebp
    4124:	e9 c8 00 00 00       	jmp    41f1 <sgx_ecall_update_response_loc+0xe3>
    4129:	be 08 00 00 00       	mov    $0x8,%esi
    412e:	48 89 fb             	mov    %rdi,%rbx
    4131:	e8 2a 1b 00 00       	call   5c60 <sgx_is_outside_enclave>
    4136:	85 c0                	test   %eax,%eax
    4138:	74 e5                	je     411f <sgx_ecall_update_response_loc+0x11>
    413a:	0f ae e8             	lfence 
    413d:	48 8d 7c 24 08       	lea    0x8(%rsp),%rdi
    4142:	b9 08 00 00 00       	mov    $0x8,%ecx
    4147:	48 89 da             	mov    %rbx,%rdx
    414a:	be 08 00 00 00       	mov    $0x8,%esi
    414f:	bd 01 00 00 00       	mov    $0x1,%ebp
    4154:	e8 e7 cb 00 00       	call   10d40 <memcpy_s>
    4159:	85 c0                	test   %eax,%eax
    415b:	0f 85 90 00 00 00    	jne    41f1 <sgx_ecall_update_response_loc+0xe3>
    4161:	4c 8b 64 24 08       	mov    0x8(%rsp),%r12
    4166:	4d 85 e4             	test   %r12,%r12
    4169:	75 07                	jne    4172 <sgx_ecall_update_response_loc+0x64>
    416b:	0f ae e8             	lfence 
    416e:	31 db                	xor    %ebx,%ebx
    4170:	eb 44                	jmp    41b6 <sgx_ecall_update_response_loc+0xa8>
    4172:	be 10 00 00 00       	mov    $0x10,%esi
    4177:	4c 89 e7             	mov    %r12,%rdi
    417a:	e8 e1 1a 00 00       	call   5c60 <sgx_is_outside_enclave>
    417f:	85 c0                	test   %eax,%eax
    4181:	74 9c                	je     411f <sgx_ecall_update_response_loc+0x11>
    4183:	0f ae e8             	lfence 
    4186:	bf 10 00 00 00       	mov    $0x10,%edi
    418b:	bd 03 00 00 00       	mov    $0x3,%ebp
    4190:	e8 3b 90 00 00       	call   d1d0 <dlmalloc>
    4195:	48 89 c3             	mov    %rax,%rbx
    4198:	48 85 c0             	test   %rax,%rax
    419b:	74 54                	je     41f1 <sgx_ecall_update_response_loc+0xe3>
    419d:	b9 10 00 00 00       	mov    $0x10,%ecx
    41a2:	4c 89 e2             	mov    %r12,%rdx
    41a5:	be 10 00 00 00       	mov    $0x10,%esi
    41aa:	48 89 c7             	mov    %rax,%rdi
    41ad:	e8 8e cb 00 00       	call   10d40 <memcpy_s>
    41b2:	85 c0                	test   %eax,%eax
    41b4:	75 2e                	jne    41e4 <sgx_ecall_update_response_loc+0xd6>
    41b6:	48 89 df             	mov    %rbx,%rdi
    41b9:	31 ed                	xor    %ebp,%ebp
    41bb:	e8 a3 de ff ff       	call   2063 <ecall_update_response_loc>
    41c0:	48 85 db             	test   %rbx,%rbx
    41c3:	74 2c                	je     41f1 <sgx_ecall_update_response_loc+0xe3>
    41c5:	b9 10 00 00 00       	mov    $0x10,%ecx
    41ca:	48 89 da             	mov    %rbx,%rdx
    41cd:	be 10 00 00 00       	mov    $0x10,%esi
    41d2:	4c 89 e7             	mov    %r12,%rdi
    41d5:	e8 e6 cb 00 00       	call   10dc0 <memcpy_verw_s>
    41da:	31 ed                	xor    %ebp,%ebp
    41dc:	85 c0                	test   %eax,%eax
    41de:	40 0f 95 c5          	setne  %bpl
    41e2:	eb 05                	jmp    41e9 <sgx_ecall_update_response_loc+0xdb>
    41e4:	bd 01 00 00 00       	mov    $0x1,%ebp
    41e9:	48 89 df             	mov    %rbx,%rdi
    41ec:	e8 cf ad 00 00       	call   efc0 <dlfree>
    41f1:	48 83 c4 10          	add    $0x10,%rsp
    41f5:	89 e8                	mov    %ebp,%eax
    41f7:	5b                   	pop    %rbx
    41f8:	5d                   	pop    %rbp
    41f9:	41 5c                	pop    %r12
    41fb:	c3                   	ret    

00000000000041fc <sgx_ecall_compute_response>:
    41fc:	f3 0f 1e fa          	endbr64 
    4200:	48 85 ff             	test   %rdi,%rdi
    4203:	74 57                	je     425c <sgx_ecall_compute_response+0x60>
    4205:	53                   	push   %rbx
    4206:	be 08 00 00 00       	mov    $0x8,%esi
    420b:	48 89 fb             	mov    %rdi,%rbx
    420e:	48 83 ec 10          	sub    $0x10,%rsp
    4212:	e8 49 1a 00 00       	call   5c60 <sgx_is_outside_enclave>
    4217:	85 c0                	test   %eax,%eax
    4219:	75 07                	jne    4222 <sgx_ecall_compute_response+0x26>
    421b:	b8 02 00 00 00       	mov    $0x2,%eax
    4220:	eb 34                	jmp    4256 <sgx_ecall_compute_response+0x5a>
    4222:	0f ae e8             	lfence 
    4225:	48 89 da             	mov    %rbx,%rdx
    4228:	48 8d 7c 24 08       	lea    0x8(%rsp),%rdi
    422d:	b9 08 00 00 00       	mov    $0x8,%ecx
    4232:	be 08 00 00 00       	mov    $0x8,%esi
    4237:	e8 04 cb 00 00       	call   10d40 <memcpy_s>
    423c:	89 c2                	mov    %eax,%edx
    423e:	b8 01 00 00 00       	mov    $0x1,%eax
    4243:	85 d2                	test   %edx,%edx
    4245:	75 0f                	jne    4256 <sgx_ecall_compute_response+0x5a>
    4247:	8b 74 24 0c          	mov    0xc(%rsp),%esi
    424b:	8b 7c 24 08          	mov    0x8(%rsp),%edi
    424f:	e8 5a de ff ff       	call   20ae <ecall_compute_response>
    4254:	31 c0                	xor    %eax,%eax
    4256:	48 83 c4 10          	add    $0x10,%rsp
    425a:	5b                   	pop    %rbx
    425b:	c3                   	ret    
    425c:	b8 02 00 00 00       	mov    $0x2,%eax
    4261:	c3                   	ret    

0000000000004262 <ocall_print>:
    4262:	f3 0f 1e fa          	endbr64 
    4266:	41 55                	push   %r13
    4268:	41 54                	push   %r12
    426a:	55                   	push   %rbp
    426b:	31 ed                	xor    %ebp,%ebp
    426d:	53                   	push   %rbx
    426e:	48 89 fb             	mov    %rdi,%rbx
    4271:	48 83 ec 28          	sub    $0x28,%rsp
    4275:	48 85 ff             	test   %rdi,%rdi
    4278:	74 09                	je     4283 <ocall_print+0x21>
    427a:	e8 f1 c7 00 00       	call   10a70 <strlen>
    427f:	48 8d 68 01          	lea    0x1(%rax),%rbp
    4283:	31 c9                	xor    %ecx,%ecx
    4285:	48 89 4c 24 18       	mov    %rcx,0x18(%rsp)
    428a:	48 85 db             	test   %rbx,%rbx
    428d:	74 1c                	je     42ab <ocall_print+0x49>
    428f:	48 89 ee             	mov    %rbp,%rsi
    4292:	48 89 df             	mov    %rbx,%rdi
    4295:	49 89 ed             	mov    %rbp,%r13
    4298:	e8 63 19 00 00       	call   5c00 <sgx_is_within_enclave>
    429d:	85 c0                	test   %eax,%eax
    429f:	75 0d                	jne    42ae <ocall_print+0x4c>
    42a1:	b8 02 00 00 00       	mov    $0x2,%eax
    42a6:	e9 95 00 00 00       	jmp    4340 <ocall_print+0xde>
    42ab:	45 31 ed             	xor    %r13d,%r13d
    42ae:	49 8d 7d 08          	lea    0x8(%r13),%rdi
    42b2:	48 39 ef             	cmp    %rbp,%rdi
    42b5:	73 05                	jae    42bc <ocall_print+0x5a>
    42b7:	48 85 db             	test   %rbx,%rbx
    42ba:	75 e5                	jne    42a1 <ocall_print+0x3f>
    42bc:	e8 ff 19 00 00       	call   5cc0 <sgx_ocalloc>
    42c1:	49 89 c4             	mov    %rax,%r12
    42c4:	48 85 c0             	test   %rax,%rax
    42c7:	75 13                	jne    42dc <ocall_print+0x7a>
    42c9:	31 d2                	xor    %edx,%edx
    42cb:	48 89 54 24 18       	mov    %rdx,0x18(%rsp)
    42d0:	e8 cb 1a 00 00       	call   5da0 <sgx_ocfree>
    42d5:	b8 01 00 00 00       	mov    $0x1,%eax
    42da:	eb 64                	jmp    4340 <ocall_print+0xde>
    42dc:	48 8d 40 08          	lea    0x8(%rax),%rax
    42e0:	48 89 44 24 18       	mov    %rax,0x18(%rsp)
    42e5:	48 85 db             	test   %rbx,%rbx
    42e8:	74 39                	je     4323 <ocall_print+0xc1>
    42ea:	48 8d 54 24 18       	lea    0x18(%rsp),%rdx
    42ef:	b9 08 00 00 00       	mov    $0x8,%ecx
    42f4:	be 08 00 00 00       	mov    $0x8,%esi
    42f9:	4c 89 e7             	mov    %r12,%rdi
    42fc:	e8 bf ca 00 00       	call   10dc0 <memcpy_verw_s>
    4301:	85 c0                	test   %eax,%eax
    4303:	75 cb                	jne    42d0 <ocall_print+0x6e>
    4305:	48 8b 7c 24 18       	mov    0x18(%rsp),%rdi
    430a:	48 89 e9             	mov    %rbp,%rcx
    430d:	48 89 da             	mov    %rbx,%rdx
    4310:	4c 89 ee             	mov    %r13,%rsi
    4313:	e8 a8 ca 00 00       	call   10dc0 <memcpy_verw_s>
    4318:	85 c0                	test   %eax,%eax
    431a:	75 b4                	jne    42d0 <ocall_print+0x6e>
    431c:	48 01 6c 24 18       	add    %rbp,0x18(%rsp)
    4321:	eb 06                	jmp    4329 <ocall_print+0xc7>
    4323:	31 c0                	xor    %eax,%eax
    4325:	49 89 04 24          	mov    %rax,(%r12)
    4329:	4c 89 e6             	mov    %r12,%rsi
    432c:	31 ff                	xor    %edi,%edi
    432e:	e8 7d 2f 00 00       	call   72b0 <sgx_ocall>
    4333:	89 44 24 0c          	mov    %eax,0xc(%rsp)
    4337:	e8 64 1a 00 00       	call   5da0 <sgx_ocfree>
    433c:	8b 44 24 0c          	mov    0xc(%rsp),%eax
    4340:	48 83 c4 28          	add    $0x28,%rsp
    4344:	5b                   	pop    %rbx
    4345:	5d                   	pop    %rbp
    4346:	41 5c                	pop    %r12
    4348:	41 5d                	pop    %r13
    434a:	c3                   	ret    

000000000000434b <ocall_print_address>:
    434b:	f3 0f 1e fa          	endbr64 
    434f:	41 55                	push   %r13
    4351:	41 54                	push   %r12
    4353:	45 31 e4             	xor    %r12d,%r12d
    4356:	55                   	push   %rbp
    4357:	53                   	push   %rbx
    4358:	48 89 fb             	mov    %rdi,%rbx
    435b:	48 83 ec 28          	sub    $0x28,%rsp
    435f:	48 89 74 24 08       	mov    %rsi,0x8(%rsp)
    4364:	48 85 ff             	test   %rdi,%rdi
    4367:	74 09                	je     4372 <ocall_print_address+0x27>
    4369:	e8 02 c7 00 00       	call   10a70 <strlen>
    436e:	4c 8d 60 01          	lea    0x1(%rax),%r12
    4372:	31 c9                	xor    %ecx,%ecx
    4374:	48 89 4c 24 18       	mov    %rcx,0x18(%rsp)
    4379:	48 85 db             	test   %rbx,%rbx
    437c:	74 1c                	je     439a <ocall_print_address+0x4f>
    437e:	4c 89 e6             	mov    %r12,%rsi
    4381:	48 89 df             	mov    %rbx,%rdi
    4384:	4d 89 e5             	mov    %r12,%r13
    4387:	e8 74 18 00 00       	call   5c00 <sgx_is_within_enclave>
    438c:	85 c0                	test   %eax,%eax
    438e:	75 0d                	jne    439d <ocall_print_address+0x52>
    4390:	b8 02 00 00 00       	mov    $0x2,%eax
    4395:	e9 b7 00 00 00       	jmp    4451 <ocall_print_address+0x106>
    439a:	45 31 ed             	xor    %r13d,%r13d
    439d:	49 8d 7d 10          	lea    0x10(%r13),%rdi
    43a1:	4c 39 e7             	cmp    %r12,%rdi
    43a4:	73 05                	jae    43ab <ocall_print_address+0x60>
    43a6:	48 85 db             	test   %rbx,%rbx
    43a9:	75 e5                	jne    4390 <ocall_print_address+0x45>
    43ab:	e8 10 19 00 00       	call   5cc0 <sgx_ocalloc>
    43b0:	48 89 c5             	mov    %rax,%rbp
    43b3:	48 85 c0             	test   %rax,%rax
    43b6:	75 16                	jne    43ce <ocall_print_address+0x83>
    43b8:	31 d2                	xor    %edx,%edx
    43ba:	48 89 54 24 18       	mov    %rdx,0x18(%rsp)
    43bf:	e8 dc 19 00 00       	call   5da0 <sgx_ocfree>
    43c4:	b8 01 00 00 00       	mov    $0x1,%eax
    43c9:	e9 83 00 00 00       	jmp    4451 <ocall_print_address+0x106>
    43ce:	48 8d 40 10          	lea    0x10(%rax),%rax
    43d2:	48 89 44 24 18       	mov    %rax,0x18(%rsp)
    43d7:	48 85 db             	test   %rbx,%rbx
    43da:	74 39                	je     4415 <ocall_print_address+0xca>
    43dc:	48 8d 54 24 18       	lea    0x18(%rsp),%rdx
    43e1:	b9 08 00 00 00       	mov    $0x8,%ecx
    43e6:	be 08 00 00 00       	mov    $0x8,%esi
    43eb:	48 89 ef             	mov    %rbp,%rdi
    43ee:	e8 cd c9 00 00       	call   10dc0 <memcpy_verw_s>
    43f3:	85 c0                	test   %eax,%eax
    43f5:	75 c8                	jne    43bf <ocall_print_address+0x74>
    43f7:	48 8b 7c 24 18       	mov    0x18(%rsp),%rdi
    43fc:	4c 89 e1             	mov    %r12,%rcx
    43ff:	48 89 da             	mov    %rbx,%rdx
    4402:	4c 89 ee             	mov    %r13,%rsi
    4405:	e8 b6 c9 00 00       	call   10dc0 <memcpy_verw_s>
    440a:	85 c0                	test   %eax,%eax
    440c:	75 b1                	jne    43bf <ocall_print_address+0x74>
    440e:	4c 01 64 24 18       	add    %r12,0x18(%rsp)
    4413:	eb 06                	jmp    441b <ocall_print_address+0xd0>
    4415:	31 c0                	xor    %eax,%eax
    4417:	48 89 45 00          	mov    %rax,0x0(%rbp)
    441b:	48 8d 54 24 08       	lea    0x8(%rsp),%rdx
    4420:	48 8d 7d 08          	lea    0x8(%rbp),%rdi
    4424:	b9 08 00 00 00       	mov    $0x8,%ecx
    4429:	be 08 00 00 00       	mov    $0x8,%esi
    442e:	e8 8d c9 00 00       	call   10dc0 <memcpy_verw_s>
    4433:	85 c0                	test   %eax,%eax
    4435:	75 88                	jne    43bf <ocall_print_address+0x74>
    4437:	48 89 ee             	mov    %rbp,%rsi
    443a:	bf 01 00 00 00       	mov    $0x1,%edi
    443f:	e8 6c 2e 00 00       	call   72b0 <sgx_ocall>
    4444:	89 44 24 04          	mov    %eax,0x4(%rsp)
    4448:	e8 53 19 00 00       	call   5da0 <sgx_ocfree>
    444d:	8b 44 24 04          	mov    0x4(%rsp),%eax
    4451:	48 83 c4 28          	add    $0x28,%rsp
    4455:	5b                   	pop    %rbx
    4456:	5d                   	pop    %rbp
    4457:	41 5c                	pop    %r12
    4459:	41 5d                	pop    %r13
    445b:	c3                   	ret    
    445c:	0f 1f 40 00          	nopl   0x0(%rax)

0000000000004460 <register_value_select>:
    4460:	89 f1                	mov    %esi,%ecx
    4462:	31 c0                	xor    %eax,%eax
    4464:	48 83 f9 00          	cmp    $0x0,%rcx
    4468:	48 0f 44 07          	cmove  (%rdi),%rax
    446c:	48 83 f9 01          	cmp    $0x1,%rcx
    4470:	48 0f 44 47 08       	cmove  0x8(%rdi),%rax
    4475:	48 83 f9 02          	cmp    $0x2,%rcx
    4479:	48 0f 44 47 10       	cmove  0x10(%rdi),%rax
    447e:	48 83 f9 03          	cmp    $0x3,%rcx
    4482:	48 0f 44 47 18       	cmove  0x18(%rdi),%rax
    4487:	48 83 f9 04          	cmp    $0x4,%rcx
    448b:	48 0f 44 47 20       	cmove  0x20(%rdi),%rax
    4490:	48 83 f9 05          	cmp    $0x5,%rcx
    4494:	48 0f 44 47 28       	cmove  0x28(%rdi),%rax
    4499:	48 83 f9 06          	cmp    $0x6,%rcx
    449d:	48 0f 44 47 30       	cmove  0x30(%rdi),%rax
    44a2:	48 83 f9 07          	cmp    $0x7,%rcx
    44a6:	48 0f 44 47 38       	cmove  0x38(%rdi),%rax
    44ab:	48 83 f9 08          	cmp    $0x8,%rcx
    44af:	48 0f 44 47 40       	cmove  0x40(%rdi),%rax
    44b4:	48 83 f9 09          	cmp    $0x9,%rcx
    44b8:	48 0f 44 47 48       	cmove  0x48(%rdi),%rax
    44bd:	48 83 f9 0a          	cmp    $0xa,%rcx
    44c1:	48 0f 44 47 50       	cmove  0x50(%rdi),%rax
    44c6:	48 83 f9 0b          	cmp    $0xb,%rcx
    44ca:	48 0f 44 47 58       	cmove  0x58(%rdi),%rax
    44cf:	48 83 f9 0c          	cmp    $0xc,%rcx
    44d3:	48 0f 44 47 60       	cmove  0x60(%rdi),%rax
    44d8:	48 83 f9 0d          	cmp    $0xd,%rcx
    44dc:	48 0f 44 47 68       	cmove  0x68(%rdi),%rax
    44e1:	48 83 f9 0e          	cmp    $0xe,%rcx
    44e5:	48 0f 44 47 70       	cmove  0x70(%rdi),%rax
    44ea:	48 83 f9 0f          	cmp    $0xf,%rcx
    44ee:	48 0f 44 47 78       	cmove  0x78(%rdi),%rax
    44f3:	c3                   	ret    
    44f4:	66 2e 0f 1f 84 00 00 	cs nopw 0x0(%rax,%rax,1)
    44fb:	00 00 00 
    44fe:	66 90                	xchg   %ax,%ax

0000000000004500 <ct_decode>:
    4500:	f3 0f 1e fa          	endbr64 
    4504:	55                   	push   %rbp
    4505:	48 89 e5             	mov    %rsp,%rbp
    4508:	41 57                	push   %r15
    450a:	41 56                	push   %r14
    450c:	41 55                	push   %r13
    450e:	41 54                	push   %r12
    4510:	53                   	push   %rbx
    4511:	48 83 e4 c0          	and    $0xffffffffffffffc0,%rsp
    4515:	48 81 ec 40 05 00 00 	sub    $0x540,%rsp
    451c:	48 89 7c 24 78       	mov    %rdi,0x78(%rsp)
    4521:	48 89 74 24 50       	mov    %rsi,0x50(%rsp)
    4526:	64 48 8b 04 25 28 00 	mov    %fs:0x28,%rax
    452d:	00 00 
    452f:	48 89 84 24 38 05 00 	mov    %rax,0x538(%rsp)
    4536:	00 
    4537:	31 c0                	xor    %eax,%eax
    4539:	48 8d 84 24 00 01 00 	lea    0x100(%rsp),%rax
    4540:	00 
    4541:	f6 05 eb 38 01 00 08 	testb  $0x8,0x138eb(%rip)        # 17e33 <g_cpu_feature_indicator+0x3>
    4548:	48 89 44 24 18       	mov    %rax,0x18(%rsp)
    454d:	0f 84 fd 0f 00 00    	je     5550 <ct_decode+0x1050>
    4553:	62 f1 7c 48 29 00    	vmovaps %zmm0,(%rax)
    4559:	62 f1 7c 48 29 48 01 	vmovaps %zmm1,0x40(%rax)
    4560:	62 f1 7c 48 29 50 02 	vmovaps %zmm2,0x80(%rax)
    4567:	62 f1 7c 48 29 58 03 	vmovaps %zmm3,0xc0(%rax)
    456e:	62 f1 7c 48 29 60 04 	vmovaps %zmm4,0x100(%rax)
    4575:	62 f1 7c 48 29 68 05 	vmovaps %zmm5,0x140(%rax)
    457c:	62 f1 7c 48 29 70 06 	vmovaps %zmm6,0x180(%rax)
    4583:	62 f1 7c 48 29 78 07 	vmovaps %zmm7,0x1c0(%rax)
    458a:	62 71 7c 48 29 40 08 	vmovaps %zmm8,0x200(%rax)
    4591:	62 71 7c 48 29 48 09 	vmovaps %zmm9,0x240(%rax)
    4598:	62 71 7c 48 29 50 0a 	vmovaps %zmm10,0x280(%rax)
    459f:	62 71 7c 48 29 58 0b 	vmovaps %zmm11,0x2c0(%rax)
    45a6:	62 71 7c 48 29 60 0c 	vmovaps %zmm12,0x300(%rax)
    45ad:	62 71 7c 48 29 68 0d 	vmovaps %zmm13,0x340(%rax)
    45b4:	62 71 7c 48 29 70 0e 	vmovaps %zmm14,0x380(%rax)
    45bb:	62 71 7c 48 29 78 0f 	vmovaps %zmm15,0x3c0(%rax)
    45c2:	48 8b 7c 24 78       	mov    0x78(%rsp),%rdi
    45c7:	31 c9                	xor    %ecx,%ecx
    45c9:	ba f0 0f 00 00       	mov    $0xff0,%edx
    45ce:	48 be f0 f0 f0 f0 f0 	movabs $0xf0f0f0f0f0f0f0f0,%rsi
    45d5:	f0 f0 f0 
    45d8:	c4 e1 f9 6e c6       	vmovq  %rsi,%xmm0
    45dd:	c5 f9 6f 25 3b 3b 01 	vmovdqa 0x13b3b(%rip),%xmm4        # 18120 <standard>
    45e4:	00 
    45e5:	49 bb 80 80 80 80 80 	movabs $0x8080808080808080,%r11
    45ec:	80 80 80 
    45ef:	c4 e3 5d 38 25 27 3a 	vinserti128 $0x1,0x13a27(%rip),%ymm4,%ymm4        # 18020 <extended>
    45f6:	01 00 01 
    45f9:	4c 8b b7 88 00 00 00 	mov    0x88(%rdi),%r14
    4600:	c4 e2 7d 59 c0       	vpbroadcastq %xmm0,%ymm0
    4605:	c5 79 6f 2d 33 3b 01 	vmovdqa 0x13b33(%rip),%xmm13        # 18140 <standard+0x20>
    460c:	00 
    460d:	48 bf ff ff ff ff ff 	movabs $0xffffffffffff,%rdi
    4614:	ff 00 00 
    4617:	c4 63 15 38 2d 1f 3a 	vinserti128 $0x1,0x13a1f(%rip),%ymm13,%ymm13        # 18040 <extended+0x20>
    461e:	01 00 01 
    4621:	c5 79 6f 25 47 3b 01 	vmovdqa 0x13b47(%rip),%xmm12        # 18170 <standard+0x50>
    4628:	00 
    4629:	41 bd 01 00 00 00    	mov    $0x1,%r13d
    462f:	41 b8 03 00 00 00    	mov    $0x3,%r8d
    4635:	4c 89 f0             	mov    %r14,%rax
    4638:	c5 79 6f 1d 40 3b 01 	vmovdqa 0x13b40(%rip),%xmm11        # 18180 <standard+0x60>
    463f:	00 
    4640:	c4 63 1d 38 25 26 3a 	vinserti128 $0x1,0x13a26(%rip),%ymm12,%ymm12        # 18070 <extended+0x50>
    4647:	01 00 01 
    464a:	4c 89 74 24 68       	mov    %r14,0x68(%rsp)
    464f:	25 ff 0f 00 00       	and    $0xfff,%eax
    4654:	c5 79 6f 15 34 3b 01 	vmovdqa 0x13b34(%rip),%xmm10        # 18190 <standard+0x70>
    465b:	00 
    465c:	c4 63 25 38 1d 1a 3a 	vinserti128 $0x1,0x13a1a(%rip),%ymm11,%ymm11        # 18080 <extended+0x60>
    4663:	01 00 01 
    4666:	48 3d f0 0f 00 00    	cmp    $0xff0,%rax
    466c:	c5 79 6f 0d 2c 3b 01 	vmovdqa 0x13b2c(%rip),%xmm9        # 181a0 <standard+0x80>
    4673:	00 
    4674:	c4 63 2d 38 15 12 3a 	vinserti128 $0x1,0x13a12(%rip),%ymm10,%ymm10        # 18090 <extended+0x70>
    467b:	01 00 01 
    467e:	0f 96 c1             	setbe  %cl
    4681:	c5 79 6f 05 27 3b 01 	vmovdqa 0x13b27(%rip),%xmm8        # 181b0 <standard+0x90>
    4688:	00 
    4689:	c4 63 35 38 0d 0d 3a 	vinserti128 $0x1,0x13a0d(%rip),%ymm9,%ymm9        # 180a0 <extended+0x80>
    4690:	01 00 01 
    4693:	48 83 f9 00          	cmp    $0x0,%rcx
    4697:	48 0f 45 d0          	cmovne %rax,%rdx
    469b:	31 c9                	xor    %ecx,%ecx
    469d:	48 3d f0 0f 00 00    	cmp    $0xff0,%rax
    46a3:	c4 63 3d 38 05 03 3a 	vinserti128 $0x1,0x13a03(%rip),%ymm8,%ymm8        # 180b0 <extended+0x90>
    46aa:	01 00 01 
    46ad:	c5 79 6f 3d 2b 3b 01 	vmovdqa 0x13b2b(%rip),%xmm15        # 181e0 <standard+0xc0>
    46b4:	00 
    46b5:	0f 97 c1             	seta   %cl
    46b8:	45 31 e4             	xor    %r12d,%r12d
    46bb:	2d f0 0f 00 00       	sub    $0xff0,%eax
    46c0:	44 89 e3             	mov    %r12d,%ebx
    46c3:	45 89 e7             	mov    %r12d,%r15d
    46c6:	48 83 f9 00          	cmp    $0x0,%rcx
    46ca:	0f 45 d8             	cmovne %eax,%ebx
    46cd:	4c 89 f0             	mov    %r14,%rax
    46d0:	89 5c 24 4c          	mov    %ebx,0x4c(%rsp)
    46d4:	48 25 00 f0 ff ff    	and    $0xfffffffffffff000,%rax
    46da:	48 09 d0             	or     %rdx,%rax
    46dd:	c5 fa 6f 28          	vmovdqu (%rax),%xmm5
    46e1:	48 63 c3             	movslq %ebx,%rax
    46e4:	bb 02 00 00 00       	mov    $0x2,%ebx
    46e9:	c4 e1 f9 6e f8       	vmovq  %rax,%xmm7
    46ee:	b8 10 00 00 00       	mov    $0x10,%eax
    46f3:	41 89 de             	mov    %ebx,%r14d
    46f6:	c5 d1 f3 ef          	vpsllq %xmm7,%xmm5,%xmm5
    46fa:	c4 c1 f9 6e fb       	vmovq  %r11,%xmm7
    46ff:	c4 e2 7d 59 df       	vpbroadcastq %xmm7,%ymm3
    4704:	c4 e2 7d 59 cd       	vpbroadcastq %xmm5,%ymm1
    4709:	c4 e1 f9 7e ea       	vmovq  %xmm5,%rdx
    470e:	c5 fd df d1          	vpandn %ymm1,%ymm0,%ymm2
    4712:	c5 f5 db c8          	vpand  %ymm0,%ymm1,%ymm1
    4716:	c5 f9 ef c0          	vpxor  %xmm0,%xmm0,%xmm0
    471a:	49 89 d2             	mov    %rdx,%r10
    471d:	c5 f5 74 c0          	vpcmpeqb %ymm0,%ymm1,%ymm0
    4721:	c5 fd df c3          	vpandn %ymm3,%ymm0,%ymm0
    4725:	c5 fd eb c2          	vpor   %ymm2,%ymm0,%ymm0
    4729:	c4 62 5d 00 f0       	vpshufb %ymm0,%ymm4,%ymm14
    472e:	c5 f9 6e c0          	vmovd  %eax,%xmm0
    4732:	c5 f9 6f 25 f6 39 01 	vmovdqa 0x139f6(%rip),%xmm4        # 18130 <standard+0x10>
    4739:	00 
    473a:	c4 e3 5d 38 25 ec 38 	vinserti128 $0x1,0x138ec(%rip),%ymm4,%ymm4        # 18030 <extended+0x10>
    4741:	01 00 01 
    4744:	c4 e2 7d 78 c0       	vpbroadcastb %xmm0,%ymm0
    4749:	b8 20 00 00 00       	mov    $0x20,%eax
    474e:	c5 7d 7f b4 24 a0 00 	vmovdqa %ymm14,0xa0(%rsp)
    4755:	00 00 
    4757:	c5 f5 74 c0          	vpcmpeqb %ymm0,%ymm1,%ymm0
    475b:	c5 fd df c3          	vpandn %ymm3,%ymm0,%ymm0
    475f:	c5 fd eb c2          	vpor   %ymm2,%ymm0,%ymm0
    4763:	c4 e2 5d 00 f8       	vpshufb %ymm0,%ymm4,%ymm7
    4768:	c5 f9 6e c0          	vmovd  %eax,%xmm0
    476c:	b8 30 00 00 00       	mov    $0x30,%eax
    4771:	c5 f9 6f 25 d7 39 01 	vmovdqa 0x139d7(%rip),%xmm4        # 18150 <standard+0x30>
    4778:	00 
    4779:	c4 e3 5d 38 25 cd 38 	vinserti128 $0x1,0x138cd(%rip),%ymm4,%ymm4        # 18050 <extended+0x30>
    4780:	01 00 01 
    4783:	c4 e2 7d 78 c0       	vpbroadcastb %xmm0,%ymm0
    4788:	c5 fd 7f bc 24 e0 00 	vmovdqa %ymm7,0xe0(%rsp)
    478f:	00 00 
    4791:	c5 f9 6f 3d 27 3a 01 	vmovdqa 0x13a27(%rip),%xmm7        # 181c0 <standard+0xa0>
    4798:	00 
    4799:	c4 e3 45 38 3d 1d 39 	vinserti128 $0x1,0x1391d(%rip),%ymm7,%ymm7        # 180c0 <extended+0xa0>
    47a0:	01 00 01 
    47a3:	c5 f5 74 c0          	vpcmpeqb %ymm0,%ymm1,%ymm0
    47a7:	c5 fd df c3          	vpandn %ymm3,%ymm0,%ymm0
    47ab:	c5 fd eb c2          	vpor   %ymm2,%ymm0,%ymm0
    47af:	c4 62 15 00 e8       	vpshufb %ymm0,%ymm13,%ymm13
    47b4:	c5 f9 6e c0          	vmovd  %eax,%xmm0
    47b8:	b8 40 00 00 00       	mov    $0x40,%eax
    47bd:	c4 e2 7d 78 c0       	vpbroadcastb %xmm0,%ymm0
    47c2:	c5 f9 6e f0          	vmovd  %eax,%xmm6
    47c6:	b8 50 00 00 00       	mov    $0x50,%eax
    47cb:	c5 f5 74 c0          	vpcmpeqb %ymm0,%ymm1,%ymm0
    47cf:	c4 e2 7d 78 f6       	vpbroadcastb %xmm6,%ymm6
    47d4:	c5 f5 74 f6          	vpcmpeqb %ymm6,%ymm1,%ymm6
    47d8:	c5 fd df c3          	vpandn %ymm3,%ymm0,%ymm0
    47dc:	c5 fd eb c2          	vpor   %ymm2,%ymm0,%ymm0
    47e0:	c5 cd df f3          	vpandn %ymm3,%ymm6,%ymm6
    47e4:	c4 e2 5d 00 e0       	vpshufb %ymm0,%ymm4,%ymm4
    47e9:	c5 f9 6f 05 6f 39 01 	vmovdqa 0x1396f(%rip),%xmm0        # 18160 <standard+0x40>
    47f0:	00 
    47f1:	c5 cd eb f2          	vpor   %ymm2,%ymm6,%ymm6
    47f5:	c4 e3 7d 38 05 61 38 	vinserti128 $0x1,0x13861(%rip),%ymm0,%ymm0        # 18060 <extended+0x40>
    47fc:	01 00 01 
    47ff:	c4 e1 f9 7e e1       	vmovq  %xmm4,%rcx
    4804:	c4 e3 7d 39 e4 01    	vextracti128 $0x1,%ymm4,%xmm4
    480a:	c4 e2 7d 00 c6       	vpshufb %ymm6,%ymm0,%ymm0
    480f:	c5 f9 6e f0          	vmovd  %eax,%xmm6
    4813:	b8 60 00 00 00       	mov    $0x60,%eax
    4818:	c4 e2 7d 78 f6       	vpbroadcastb %xmm6,%ymm6
    481d:	c5 f5 74 f6          	vpcmpeqb %ymm6,%ymm1,%ymm6
    4821:	c5 cd df f3          	vpandn %ymm3,%ymm6,%ymm6
    4825:	c5 cd eb f2          	vpor   %ymm2,%ymm6,%ymm6
    4829:	c4 62 1d 00 e6       	vpshufb %ymm6,%ymm12,%ymm12
    482e:	c5 f9 6e f0          	vmovd  %eax,%xmm6
    4832:	b8 70 00 00 00       	mov    $0x70,%eax
    4837:	c4 e2 7d 78 f6       	vpbroadcastb %xmm6,%ymm6
    483c:	c5 f5 74 f6          	vpcmpeqb %ymm6,%ymm1,%ymm6
    4840:	c5 cd df f3          	vpandn %ymm3,%ymm6,%ymm6
    4844:	c5 cd eb f2          	vpor   %ymm2,%ymm6,%ymm6
    4848:	c4 62 25 00 de       	vpshufb %ymm6,%ymm11,%ymm11
    484d:	c5 f9 6e f0          	vmovd  %eax,%xmm6
    4851:	b8 80 ff ff ff       	mov    $0xffffff80,%eax
    4856:	c4 e2 7d 78 f6       	vpbroadcastb %xmm6,%ymm6
    485b:	c5 f5 74 f6          	vpcmpeqb %ymm6,%ymm1,%ymm6
    485f:	c5 cd df f3          	vpandn %ymm3,%ymm6,%ymm6
    4863:	c5 cd eb f2          	vpor   %ymm2,%ymm6,%ymm6
    4867:	c4 62 2d 00 d6       	vpshufb %ymm6,%ymm10,%ymm10
    486c:	c5 f9 6e f0          	vmovd  %eax,%xmm6
    4870:	b8 90 ff ff ff       	mov    $0xffffff90,%eax
    4875:	c4 e2 7d 78 f6       	vpbroadcastb %xmm6,%ymm6
    487a:	c5 f5 74 f6          	vpcmpeqb %ymm6,%ymm1,%ymm6
    487e:	c5 cd df f3          	vpandn %ymm3,%ymm6,%ymm6
    4882:	c5 cd eb f2          	vpor   %ymm2,%ymm6,%ymm6
    4886:	c4 62 35 00 ce       	vpshufb %ymm6,%ymm9,%ymm9
    488b:	c5 f9 6e f0          	vmovd  %eax,%xmm6
    488f:	b8 a0 ff ff ff       	mov    $0xffffffa0,%eax
    4894:	c4 e2 7d 78 f6       	vpbroadcastb %xmm6,%ymm6
    4899:	c5 f5 74 f6          	vpcmpeqb %ymm6,%ymm1,%ymm6
    489d:	c5 cd df f3          	vpandn %ymm3,%ymm6,%ymm6
    48a1:	c5 cd eb f2          	vpor   %ymm2,%ymm6,%ymm6
    48a5:	c4 62 3d 00 c6       	vpshufb %ymm6,%ymm8,%ymm8
    48aa:	c5 f9 6e f0          	vmovd  %eax,%xmm6
    48ae:	b8 b0 ff ff ff       	mov    $0xffffffb0,%eax
    48b3:	c4 e2 7d 78 f6       	vpbroadcastb %xmm6,%ymm6
    48b8:	c5 79 6e f0          	vmovd  %eax,%xmm14
    48bc:	b8 c0 ff ff ff       	mov    $0xffffffc0,%eax
    48c1:	c5 f5 74 f6          	vpcmpeqb %ymm6,%ymm1,%ymm6
    48c5:	c4 42 7d 78 f6       	vpbroadcastb %xmm14,%ymm14
    48ca:	c4 41 75 74 f6       	vpcmpeqb %ymm14,%ymm1,%ymm14
    48cf:	c5 cd df f3          	vpandn %ymm3,%ymm6,%ymm6
    48d3:	c5 cd eb f2          	vpor   %ymm2,%ymm6,%ymm6
    48d7:	c5 0d df f3          	vpandn %ymm3,%ymm14,%ymm14
    48db:	c4 e2 45 00 fe       	vpshufb %ymm6,%ymm7,%ymm7
    48e0:	c5 f9 6f 35 e8 38 01 	vmovdqa 0x138e8(%rip),%xmm6        # 181d0 <standard+0xb0>
    48e7:	00 
    48e8:	c5 0d eb f2          	vpor   %ymm2,%ymm14,%ymm14
    48ec:	c4 e3 4d 38 35 da 37 	vinserti128 $0x1,0x137da(%rip),%ymm6,%ymm6        # 180d0 <extended+0xb0>
    48f3:	01 00 01 
    48f6:	c4 63 05 38 3d e0 37 	vinserti128 $0x1,0x137e0(%rip),%ymm15,%ymm15        # 180e0 <extended+0xc0>
    48fd:	01 00 01 
    4900:	c4 c2 4d 00 f6       	vpshufb %ymm14,%ymm6,%ymm6
    4905:	c5 79 6e f0          	vmovd  %eax,%xmm14
    4909:	b8 d0 ff ff ff       	mov    $0xffffffd0,%eax
    490e:	c4 42 7d 78 f6       	vpbroadcastb %xmm14,%ymm14
    4913:	c4 41 75 74 f6       	vpcmpeqb %ymm14,%ymm1,%ymm14
    4918:	c5 0d df f3          	vpandn %ymm3,%ymm14,%ymm14
    491c:	c5 0d eb f2          	vpor   %ymm2,%ymm14,%ymm14
    4920:	c4 42 05 00 fe       	vpshufb %ymm14,%ymm15,%ymm15
    4925:	c5 79 6e f0          	vmovd  %eax,%xmm14
    4929:	b8 e0 ff ff ff       	mov    $0xffffffe0,%eax
    492e:	c5 7d 7f bc 24 c0 00 	vmovdqa %ymm15,0xc0(%rsp)
    4935:	00 00 
    4937:	c4 42 7d 78 f6       	vpbroadcastb %xmm14,%ymm14
    493c:	c5 79 6f 3d ac 38 01 	vmovdqa 0x138ac(%rip),%xmm15        # 181f0 <standard+0xd0>
    4943:	00 
    4944:	c4 63 05 38 3d a2 37 	vinserti128 $0x1,0x137a2(%rip),%ymm15,%ymm15        # 180f0 <extended+0xd0>
    494b:	01 00 01 
    494e:	c4 41 75 74 f6       	vpcmpeqb %ymm14,%ymm1,%ymm14
    4953:	c5 0d df f3          	vpandn %ymm3,%ymm14,%ymm14
    4957:	c5 0d eb f2          	vpor   %ymm2,%ymm14,%ymm14
    495b:	c4 42 05 00 fe       	vpshufb %ymm14,%ymm15,%ymm15
    4960:	c5 79 6e f0          	vmovd  %eax,%xmm14
    4964:	b8 f0 ff ff ff       	mov    $0xfffffff0,%eax
    4969:	c5 7d 7f bc 24 80 00 	vmovdqa %ymm15,0x80(%rsp)
    4970:	00 00 
    4972:	c4 42 7d 78 f6       	vpbroadcastb %xmm14,%ymm14
    4977:	c5 79 6f 3d 81 38 01 	vmovdqa 0x13881(%rip),%xmm15        # 18200 <standard+0xe0>
    497e:	00 
    497f:	c4 63 05 38 3d 77 37 	vinserti128 $0x1,0x13777(%rip),%ymm15,%ymm15        # 18100 <extended+0xe0>
    4986:	01 00 01 
    4989:	c4 41 75 74 f6       	vpcmpeqb %ymm14,%ymm1,%ymm14
    498e:	c5 0d df f3          	vpandn %ymm3,%ymm14,%ymm14
    4992:	c5 0d eb f2          	vpor   %ymm2,%ymm14,%ymm14
    4996:	c4 42 05 00 fe       	vpshufb %ymm14,%ymm15,%ymm15
    499b:	c5 79 6e f0          	vmovd  %eax,%xmm14
    499f:	c4 61 f9 7e e8       	vmovq  %xmm13,%rax
    49a4:	48 09 c8             	or     %rcx,%rax
    49a7:	c4 42 7d 78 f6       	vpbroadcastb %xmm14,%ymm14
    49ac:	c4 e1 f9 7e c1       	vmovq  %xmm0,%rcx
    49b1:	48 09 c8             	or     %rcx,%rax
    49b4:	c4 c1 75 74 ce       	vpcmpeqb %ymm14,%ymm1,%ymm1
    49b9:	c4 61 f9 7e e1       	vmovq  %xmm12,%rcx
    49be:	c5 7d 6f b4 24 a0 00 	vmovdqa 0xa0(%rsp),%ymm14
    49c5:	00 00 
    49c7:	48 09 c8             	or     %rcx,%rax
    49ca:	c4 61 f9 7e d9       	vmovq  %xmm11,%rcx
    49cf:	c4 43 7d 39 ed 01    	vextracti128 $0x1,%ymm13,%xmm13
    49d5:	48 09 c8             	or     %rcx,%rax
    49d8:	c4 61 f9 7e d1       	vmovq  %xmm10,%rcx
    49dd:	c5 91 eb e4          	vpor   %xmm4,%xmm13,%xmm4
    49e1:	48 09 c8             	or     %rcx,%rax
    49e4:	c5 f5 df cb          	vpandn %ymm3,%ymm1,%ymm1
    49e8:	c4 61 f9 7e c9       	vmovq  %xmm9,%rcx
    49ed:	c5 f9 6f 1d 1b 38 01 	vmovdqa 0x1381b(%rip),%xmm3        # 18210 <standard+0xf0>
    49f4:	00 
    49f5:	c5 f5 eb ca          	vpor   %ymm2,%ymm1,%ymm1
    49f9:	48 09 c8             	or     %rcx,%rax
    49fc:	c4 61 f9 7e c1       	vmovq  %xmm8,%rcx
    4a01:	48 09 c8             	or     %rcx,%rax
    4a04:	c4 e1 f9 7e f9       	vmovq  %xmm7,%rcx
    4a09:	c4 e3 65 38 1d fd 36 	vinserti128 $0x1,0x136fd(%rip),%ymm3,%ymm3        # 18110 <extended+0xf0>
    4a10:	01 00 01 
    4a13:	48 09 c8             	or     %rcx,%rax
    4a16:	c4 e1 f9 7e f1       	vmovq  %xmm6,%rcx
    4a1b:	c4 61 f9 7e f6       	vmovq  %xmm14,%rsi
    4a20:	c4 e2 65 00 d9       	vpshufb %ymm1,%ymm3,%ymm3
    4a25:	48 09 c8             	or     %rcx,%rax
    4a28:	c5 f9 6f 8c 24 c0 00 	vmovdqa 0xc0(%rsp),%xmm1
    4a2f:	00 00 
    4a31:	c4 e3 7d 39 c0 01    	vextracti128 $0x1,%ymm0,%xmm0
    4a37:	c5 d9 eb c0          	vpor   %xmm0,%xmm4,%xmm0
    4a3b:	c4 43 7d 39 e4 01    	vextracti128 $0x1,%ymm12,%xmm12
    4a41:	c4 43 7d 39 db 01    	vextracti128 $0x1,%ymm11,%xmm11
    4a47:	c5 fd 6f a4 24 c0 00 	vmovdqa 0xc0(%rsp),%ymm4
    4a4e:	00 00 
    4a50:	c4 e1 f9 7e c9       	vmovq  %xmm1,%rcx
    4a55:	c4 c1 79 eb c4       	vpor   %xmm12,%xmm0,%xmm0
    4a5a:	c5 f9 6f 8c 24 80 00 	vmovdqa 0x80(%rsp),%xmm1
    4a61:	00 00 
    4a63:	c4 43 7d 39 d2 01    	vextracti128 $0x1,%ymm10,%xmm10
    4a69:	48 09 c8             	or     %rcx,%rax
    4a6c:	c4 c1 79 eb c3       	vpor   %xmm11,%xmm0,%xmm0
    4a71:	c4 43 7d 39 c9 01    	vextracti128 $0x1,%ymm9,%xmm9
    4a77:	c4 e1 f9 7e c9       	vmovq  %xmm1,%rcx
    4a7c:	c4 c1 79 eb c2       	vpor   %xmm10,%xmm0,%xmm0
    4a81:	c5 f9 6f 8c 24 e0 00 	vmovdqa 0xe0(%rsp),%xmm1
    4a88:	00 00 
    4a8a:	c4 43 7d 39 c0 01    	vextracti128 $0x1,%ymm8,%xmm8
    4a90:	48 09 c8             	or     %rcx,%rax
    4a93:	c4 61 f9 7e f9       	vmovq  %xmm15,%rcx
    4a98:	c4 c1 79 eb c1       	vpor   %xmm9,%xmm0,%xmm0
    4a9d:	48 09 c8             	or     %rcx,%rax
    4aa0:	c4 e1 f9 7e d9       	vmovq  %xmm3,%rcx
    4aa5:	c4 c1 79 eb c0       	vpor   %xmm8,%xmm0,%xmm0
    4aaa:	48 09 c8             	or     %rcx,%rax
    4aad:	c4 e1 f9 7e c9       	vmovq  %xmm1,%rcx
    4ab2:	c4 e3 7d 39 ff 01    	vextracti128 $0x1,%ymm7,%xmm7
    4ab8:	48 09 f1             	or     %rsi,%rcx
    4abb:	be 0f 00 00 00       	mov    $0xf,%esi
    4ac0:	c5 f9 eb c7          	vpor   %xmm7,%xmm0,%xmm0
    4ac4:	c5 fd 6f bc 24 e0 00 	vmovdqa 0xe0(%rsp),%ymm7
    4acb:	00 00 
    4acd:	48 09 c8             	or     %rcx,%rax
    4ad0:	c4 e3 7d 39 f6 01    	vextracti128 $0x1,%ymm6,%xmm6
    4ad6:	c4 43 7d 39 ff 01    	vextracti128 $0x1,%ymm15,%xmm15
    4adc:	48 21 c7             	and    %rax,%rdi
    4adf:	25 c0 00 00 00       	and    $0xc0,%eax
    4ae4:	c5 f9 eb c6          	vpor   %xmm6,%xmm0,%xmm0
    4ae8:	48 83 f8 7f          	cmp    $0x7f,%rax
    4aec:	49 89 f9             	mov    %rdi,%r9
    4aef:	c4 e3 7d 39 db 01    	vextracti128 $0x1,%ymm3,%xmm3
    4af5:	0f 97 c0             	seta   %al
    4af8:	0f b6 c0             	movzbl %al,%eax
    4afb:	48 83 f8 00          	cmp    $0x0,%rax
    4aff:	41 0f 45 f4          	cmovne %r12d,%esi
    4b03:	48 89 f8             	mov    %rdi,%rax
    4b06:	89 f1                	mov    %esi,%ecx
    4b08:	48 c1 e8 08          	shr    $0x8,%rax
    4b0c:	25 c0 00 00 00       	and    $0xc0,%eax
    4b11:	48 83 f8 7f          	cmp    $0x7f,%rax
    4b15:	0f 97 c0             	seta   %al
    4b18:	c1 e1 08             	shl    $0x8,%ecx
    4b1b:	0f b6 c0             	movzbl %al,%eax
    4b1e:	09 c8                	or     %ecx,%eax
    4b20:	3d 01 0f 00 00       	cmp    $0xf01,%eax
    4b25:	0f 94 c0             	sete   %al
    4b28:	0f b6 c0             	movzbl %al,%eax
    4b2b:	48 83 f8 00          	cmp    $0x0,%rax
    4b2f:	41 0f 45 f5          	cmovne %r13d,%esi
    4b33:	48 89 f8             	mov    %rdi,%rax
    4b36:	89 f1                	mov    %esi,%ecx
    4b38:	48 c1 e8 10          	shr    $0x10,%rax
    4b3c:	25 c0 00 00 00       	and    $0xc0,%eax
    4b41:	48 83 f8 7f          	cmp    $0x7f,%rax
    4b45:	0f 97 c0             	seta   %al
    4b48:	c1 e1 08             	shl    $0x8,%ecx
    4b4b:	0f b6 c0             	movzbl %al,%eax
    4b4e:	09 c8                	or     %ecx,%eax
    4b50:	3d 01 0f 00 00       	cmp    $0xf01,%eax
    4b55:	0f 94 c0             	sete   %al
    4b58:	0f b6 c0             	movzbl %al,%eax
    4b5b:	48 83 f8 00          	cmp    $0x0,%rax
    4b5f:	0f 45 f3             	cmovne %ebx,%esi
    4b62:	48 89 f8             	mov    %rdi,%rax
    4b65:	89 f1                	mov    %esi,%ecx
    4b67:	bb 04 00 00 00       	mov    $0x4,%ebx
    4b6c:	48 c1 e8 18          	shr    $0x18,%rax
    4b70:	25 c0 00 00 00       	and    $0xc0,%eax
    4b75:	48 83 f8 7f          	cmp    $0x7f,%rax
    4b79:	0f 97 c0             	seta   %al
    4b7c:	c1 e1 08             	shl    $0x8,%ecx
    4b7f:	0f b6 c0             	movzbl %al,%eax
    4b82:	09 c8                	or     %ecx,%eax
    4b84:	3d 01 0f 00 00       	cmp    $0xf01,%eax
    4b89:	0f 94 c0             	sete   %al
    4b8c:	0f b6 c0             	movzbl %al,%eax
    4b8f:	48 83 f8 00          	cmp    $0x0,%rax
    4b93:	41 0f 45 f0          	cmovne %r8d,%esi
    4b97:	48 89 f8             	mov    %rdi,%rax
    4b9a:	89 f1                	mov    %esi,%ecx
    4b9c:	48 c1 e8 20          	shr    $0x20,%rax
    4ba0:	25 c0 00 00 00       	and    $0xc0,%eax
    4ba5:	48 83 f8 7f          	cmp    $0x7f,%rax
    4ba9:	0f 97 c0             	seta   %al
    4bac:	c1 e1 08             	shl    $0x8,%ecx
    4baf:	0f b6 c0             	movzbl %al,%eax
    4bb2:	09 c8                	or     %ecx,%eax
    4bb4:	3d 01 0f 00 00       	cmp    $0xf01,%eax
    4bb9:	0f 94 c0             	sete   %al
    4bbc:	0f b6 c0             	movzbl %al,%eax
    4bbf:	48 83 f8 00          	cmp    $0x0,%rax
    4bc3:	0f 45 f3             	cmovne %ebx,%esi
    4bc6:	48 89 f8             	mov    %rdi,%rax
    4bc9:	89 f1                	mov    %esi,%ecx
    4bcb:	48 c1 e8 28          	shr    $0x28,%rax
    4bcf:	25 c0 00 00 00       	and    $0xc0,%eax
    4bd4:	48 83 f8 7f          	cmp    $0x7f,%rax
    4bd8:	0f 97 c0             	seta   %al
    4bdb:	c1 e1 08             	shl    $0x8,%ecx
    4bde:	0f b6 c0             	movzbl %al,%eax
    4be1:	09 c8                	or     %ecx,%eax
    4be3:	31 c9                	xor    %ecx,%ecx
    4be5:	3d 01 0f 00 00       	cmp    $0xf01,%eax
    4bea:	b8 05 00 00 00       	mov    $0x5,%eax
    4bef:	0f 94 c1             	sete   %cl
    4bf2:	48 83 f9 00          	cmp    $0x0,%rcx
    4bf6:	0f 45 f0             	cmovne %eax,%esi
    4bf9:	8d 0c f5 00 00 00 00 	lea    0x0(,%rsi,8),%ecx
    4c00:	49 d3 e9             	shr    %cl,%r9
    4c03:	49 d3 ea             	shr    %cl,%r10
    4c06:	4c 89 d1             	mov    %r10,%rcx
    4c09:	45 89 ca             	mov    %r9d,%r10d
    4c0c:	4c 89 cb             	mov    %r9,%rbx
    4c0f:	48 89 4c 24 70       	mov    %rcx,0x70(%rsp)
    4c14:	41 c0 ea 02          	shr    $0x2,%r10b
    4c18:	31 c9                	xor    %ecx,%ecx
    4c1a:	80 7c 24 70 0f       	cmpb   $0xf,0x70(%rsp)
    4c1f:	0f 94 c1             	sete   %cl
    4c22:	44 88 94 24 a0 00 00 	mov    %r10b,0xa0(%rsp)
    4c29:	00 
    4c2a:	45 89 e2             	mov    %r12d,%r10d
    4c2d:	48 83 f9 00          	cmp    $0x0,%rcx
    4c31:	45 0f 45 fd          	cmovne %r13d,%r15d
    4c35:	44 89 c9             	mov    %r9d,%ecx
    4c38:	45 31 c9             	xor    %r9d,%r9d
    4c3b:	83 e1 f0             	and    $0xfffffff0,%ecx
    4c3e:	80 f9 a0             	cmp    $0xa0,%cl
    4c41:	41 0f 94 c1          	sete   %r9b
    4c45:	49 83 f9 00          	cmp    $0x0,%r9
    4c49:	45 0f 45 d5          	cmovne %r13d,%r10d
    4c4d:	80 f9 b0             	cmp    $0xb0,%cl
    4c50:	45 89 e1             	mov    %r12d,%r9d
    4c53:	44 89 54 24 48       	mov    %r10d,0x48(%rsp)
    4c58:	0f 94 c1             	sete   %cl
    4c5b:	29 f0                	sub    %esi,%eax
    4c5d:	45 31 d2             	xor    %r10d,%r10d
    4c60:	0f b6 c9             	movzbl %cl,%ecx
    4c63:	48 83 f9 00          	cmp    $0x0,%rcx
    4c67:	45 0f 45 cd          	cmovne %r13d,%r9d
    4c6b:	8d 0c c5 00 00 00 00 	lea    0x0(,%rax,8),%ecx
    4c72:	44 89 4c 24 3c       	mov    %r9d,0x3c(%rsp)
    4c77:	48 b8 ff ff ff ff ff 	movabs $0xffffffffff,%rax
    4c7e:	00 00 00 
    4c81:	48 d3 f8             	sar    %cl,%rax
    4c84:	8d 0c f5 f8 ff ff ff 	lea    -0x8(,%rsi,8),%ecx
    4c8b:	48 21 f8             	and    %rdi,%rax
    4c8e:	49 89 c1             	mov    %rax,%r9
    4c91:	c4 e1 f9 6e d0       	vmovq  %rax,%xmm2
    4c96:	49 d3 e9             	shr    %cl,%r9
    4c99:	c4 c1 f9 6e c9       	vmovq  %r9,%xmm1
    4c9e:	49 c7 c1 ff ff ff ff 	mov    $0xffffffffffffffff,%r9
    4ca5:	c4 c3 f1 22 c9 01    	vpinsrq $0x1,%r9,%xmm1,%xmm1
    4cab:	c5 f1 74 0d 8d e3 00 	vpcmpeqb 0xe38d(%rip),%xmm1,%xmm1        # 13040 <g_dyn_entry_table+0x10>
    4cb2:	00 
    4cb3:	c4 e1 f9 7e cf       	vmovq  %xmm1,%rdi
    4cb8:	c4 c3 e9 22 c9 01    	vpinsrq $0x1,%r9,%xmm2,%xmm1
    4cbe:	45 89 e9             	mov    %r13d,%r9d
    4cc1:	c5 f1 74 15 87 e3 00 	vpcmpeqb 0xe387(%rip),%xmm1,%xmm2        # 13050 <g_dyn_entry_table+0x20>
    4cc8:	00 
    4cc9:	48 85 ff             	test   %rdi,%rdi
    4ccc:	44 89 ef             	mov    %r13d,%edi
    4ccf:	41 0f 94 c2          	sete   %r10b
    4cd3:	48 d3 ea             	shr    %cl,%rdx
    4cd6:	44 89 e1             	mov    %r12d,%ecx
    4cd9:	49 83 fa 00          	cmp    $0x0,%r10
    4cdd:	41 0f 45 fc          	cmovne %r12d,%edi
    4ce1:	c4 e1 f9 7e d0       	vmovq  %xmm2,%rax
    4ce6:	c5 f1 74 15 72 e3 00 	vpcmpeqb 0xe372(%rip),%xmm1,%xmm2        # 13060 <g_dyn_entry_table+0x30>
    4ced:	00 
    4cee:	83 e2 4f             	and    $0x4f,%edx
    4cf1:	89 ff                	mov    %edi,%edi
    4cf3:	48 83 ff 00          	cmp    $0x0,%rdi
    4cf7:	0f 45 ca             	cmovne %edx,%ecx
    4cfa:	31 d2                	xor    %edx,%edx
    4cfc:	48 85 c0             	test   %rax,%rax
    4cff:	44 89 e8             	mov    %r13d,%eax
    4d02:	89 4c 24 38          	mov    %ecx,0x38(%rsp)
    4d06:	0f 94 c2             	sete   %dl
    4d09:	44 89 e9             	mov    %r13d,%ecx
    4d0c:	48 83 fa 00          	cmp    $0x0,%rdx
    4d10:	41 0f 45 c4          	cmovne %r12d,%eax
    4d14:	89 c2                	mov    %eax,%edx
    4d16:	44 89 e0             	mov    %r12d,%eax
    4d19:	48 83 fa 00          	cmp    $0x0,%rdx
    4d1d:	41 0f 45 c5          	cmovne %r13d,%eax
    4d21:	c4 e1 f9 7e d2       	vmovq  %xmm2,%rdx
    4d26:	c5 f1 74 15 42 e3 00 	vpcmpeqb 0xe342(%rip),%xmm1,%xmm2        # 13070 <g_dyn_entry_table+0x40>
    4d2d:	00 
    4d2e:	48 85 d2             	test   %rdx,%rdx
    4d31:	0f 94 c2             	sete   %dl
    4d34:	0f b6 d2             	movzbl %dl,%edx
    4d37:	48 83 fa 00          	cmp    $0x0,%rdx
    4d3b:	45 0f 45 cc          	cmovne %r12d,%r9d
    4d3f:	c4 e1 f9 7e d2       	vmovq  %xmm2,%rdx
    4d44:	c5 f1 74 15 34 e3 00 	vpcmpeqb 0xe334(%rip),%xmm1,%xmm2        # 13080 <g_dyn_entry_table+0x50>
    4d4b:	00 
    4d4c:	44 89 4c 24 34       	mov    %r9d,0x34(%rsp)
    4d51:	49 b9 00 80 80 80 80 	movabs $0x8080808080808000,%r9
    4d58:	80 80 80 
    4d5b:	48 85 d2             	test   %rdx,%rdx
    4d5e:	c5 f1 74 0d 2a e3 00 	vpcmpeqb 0xe32a(%rip),%xmm1,%xmm1        # 13090 <g_dyn_entry_table+0x60>
    4d65:	00 
    4d66:	0f 94 c2             	sete   %dl
    4d69:	0f b6 d2             	movzbl %dl,%edx
    4d6c:	48 83 fa 00          	cmp    $0x0,%rdx
    4d70:	41 0f 45 cc          	cmovne %r12d,%ecx
    4d74:	c4 e1 f9 7e d2       	vmovq  %xmm2,%rdx
    4d79:	89 4c 24 30          	mov    %ecx,0x30(%rsp)
    4d7d:	31 c9                	xor    %ecx,%ecx
    4d7f:	c4 63 7d 39 f2 01    	vextracti128 $0x1,%ymm14,%xmm2
    4d85:	48 85 d2             	test   %rdx,%rdx
    4d88:	44 89 ea             	mov    %r13d,%edx
    4d8b:	0f 94 c1             	sete   %cl
    4d8e:	48 83 f9 00          	cmp    $0x0,%rcx
    4d92:	41 0f 45 d4          	cmovne %r12d,%edx
    4d96:	89 d2                	mov    %edx,%edx
    4d98:	31 c9                	xor    %ecx,%ecx
    4d9a:	48 83 fa 00          	cmp    $0x0,%rdx
    4d9e:	41 0f 45 c0          	cmovne %r8d,%eax
    4da2:	c4 e1 f9 7e ca       	vmovq  %xmm1,%rdx
    4da7:	c4 e3 7d 39 e1 01    	vextracti128 $0x1,%ymm4,%xmm1
    4dad:	41 89 c0             	mov    %eax,%r8d
    4db0:	c5 fd 6f a4 24 80 00 	vmovdqa 0x80(%rsp),%ymm4
    4db7:	00 00 
    4db9:	c5 f9 eb c1          	vpor   %xmm1,%xmm0,%xmm0
    4dbd:	48 85 d2             	test   %rdx,%rdx
    4dc0:	44 89 ea             	mov    %r13d,%edx
    4dc3:	c4 e3 7d 39 e1 01    	vextracti128 $0x1,%ymm4,%xmm1
    4dc9:	0f 94 c1             	sete   %cl
    4dcc:	c5 f9 eb c1          	vpor   %xmm1,%xmm0,%xmm0
    4dd0:	c4 e3 7d 39 f9 01    	vextracti128 $0x1,%ymm7,%xmm1
    4dd6:	c4 c1 79 eb c7       	vpor   %xmm15,%xmm0,%xmm0
    4ddb:	c5 f1 eb ca          	vpor   %xmm2,%xmm1,%xmm1
    4ddf:	c5 f9 eb c3          	vpor   %xmm3,%xmm0,%xmm0
    4de3:	c5 f9 eb c1          	vpor   %xmm1,%xmm0,%xmm0
    4de7:	48 83 f9 00          	cmp    $0x0,%rcx
    4deb:	41 0f 45 d4          	cmovne %r12d,%edx
    4def:	c4 e1 f9 7e c0       	vmovq  %xmm0,%rax
    4df4:	8d 0c f5 08 00 00 00 	lea    0x8(,%rsi,8),%ecx
    4dfb:	89 d2                	mov    %edx,%edx
    4dfd:	44 01 fe             	add    %r15d,%esi
    4e00:	48 d3 f8             	sar    %cl,%rax
    4e03:	44 89 f9             	mov    %r15d,%ecx
    4e06:	48 83 fa 00          	cmp    $0x0,%rdx
    4e0a:	45 0f 45 c6          	cmovne %r14d,%r8d
    4e0e:	89 c2                	mov    %eax,%edx
    4e10:	44 89 44 24 5c       	mov    %r8d,0x5c(%rsp)
    4e15:	41 89 f0             	mov    %esi,%r8d
    4e18:	45 89 e6             	mov    %r12d,%r14d
    4e1b:	c0 ea 04             	shr    $0x4,%dl
    4e1e:	41 89 d2             	mov    %edx,%r10d
    4e21:	8b 94 24 a0 00 00 00 	mov    0xa0(%rsp),%edx
    4e28:	89 b4 24 e0 00 00 00 	mov    %esi,0xe0(%rsp)
    4e2f:	41 83 e2 03          	and    $0x3,%r10d
    4e33:	48 89 5c 24 40       	mov    %rbx,0x40(%rsp)
    4e38:	83 e2 03             	and    $0x3,%edx
    4e3b:	48 83 f9 00          	cmp    $0x0,%rcx
    4e3f:	41 0f 45 d2          	cmovne %r10d,%edx
    4e43:	41 8d 48 01          	lea    0x1(%r8),%ecx
    4e47:	0f b6 c9             	movzbl %cl,%ecx
    4e4a:	4c 09 c9             	or     %r9,%rcx
    4e4d:	c4 e1 f9 6e f9       	vmovq  %rcx,%xmm7
    4e52:	c4 c3 c1 22 c3 01    	vpinsrq $0x1,%r11,%xmm7,%xmm0
    4e58:	c4 e2 51 00 c0       	vpshufb %xmm0,%xmm5,%xmm0
    4e5d:	c4 e1 f9 7e c1       	vmovq  %xmm0,%rcx
    4e62:	89 ce                	mov    %ecx,%esi
    4e64:	41 89 c8             	mov    %ecx,%r8d
    4e67:	40 c0 ee 03          	shr    $0x3,%sil
    4e6b:	41 c0 e8 06          	shr    $0x6,%r8b
    4e6f:	89 f7                	mov    %esi,%edi
    4e71:	44 88 44 24 64       	mov    %r8b,0x64(%rsp)
    4e76:	83 e7 07             	and    $0x7,%edi
    4e79:	40 88 7c 24 60       	mov    %dil,0x60(%rsp)
    4e7e:	89 cf                	mov    %ecx,%edi
    4e80:	83 e1 c7             	and    $0xffffffc7,%ecx
    4e83:	88 8c 24 c0 00 00 00 	mov    %cl,0xc0(%rsp)
    4e8a:	83 e7 07             	and    $0x7,%edi
    4e8d:	31 c9                	xor    %ecx,%ecx
    4e8f:	41 80 f8 03          	cmp    $0x3,%r8b
    4e93:	41 89 d8             	mov    %ebx,%r8d
    4e96:	0f 95 c1             	setne  %cl
    4e99:	40 88 bc 24 80 00 00 	mov    %dil,0x80(%rsp)
    4ea0:	00 
    4ea1:	83 e6 07             	and    $0x7,%esi
    4ea4:	41 83 e0 30          	and    $0x30,%r8d
    4ea8:	01 f6                	add    %esi,%esi
    4eaa:	48 83 f9 00          	cmp    $0x0,%rcx
    4eae:	45 0f 45 f5          	cmovne %r13d,%r14d
    4eb2:	44 89 c1             	mov    %r8d,%ecx
    4eb5:	41 89 d8             	mov    %ebx,%r8d
    4eb8:	31 db                	xor    %ebx,%ebx
    4eba:	41 c0 e8 06          	shr    $0x6,%r8b
    4ebe:	41 0f b6 f8          	movzbl %r8b,%edi
    4ec2:	49 b8 aa 6a aa aa a5 	movabs $0x155a55a5aaaa6aaa,%r8
    4ec9:	55 5a 15 
    4ecc:	40 80 ff 03          	cmp    $0x3,%dil
    4ed0:	0f 94 c3             	sete   %bl
    4ed3:	01 f1                	add    %esi,%ecx
    4ed5:	49 d3 e8             	shr    %cl,%r8
    4ed8:	0f b6 4c 24 60       	movzbl 0x60(%rsp),%ecx
    4edd:	41 83 e0 03          	and    $0x3,%r8d
    4ee1:	48 83 fb 00          	cmp    $0x0,%rbx
    4ee5:	41 0f 45 d0          	cmovne %r8d,%edx
    4ee9:	41 b8 4c 00 00 00    	mov    $0x4c,%r8d
    4eef:	44 89 e3             	mov    %r12d,%ebx
    4ef2:	49 d3 e8             	shr    %cl,%r8
    4ef5:	0f b6 4c 24 70       	movzbl 0x70(%rsp),%ecx
    4efa:	41 83 e0 01          	and    $0x1,%r8d
    4efe:	c1 e1 04             	shl    $0x4,%ecx
    4f01:	49 83 f8 00          	cmp    $0x0,%r8
    4f05:	41 0f 45 dd          	cmovne %r13d,%ebx
    4f09:	01 df                	add    %ebx,%edi
    4f0b:	45 89 e0             	mov    %r12d,%r8d
    4f0e:	09 f9                	or     %edi,%ecx
    4f10:	89 c7                	mov    %eax,%edi
    4f12:	81 f9 f4 0f 00 00    	cmp    $0xff4,%ecx
    4f18:	0f 94 c1             	sete   %cl
    4f1b:	40 c0 ef 06          	shr    $0x6,%dil
    4f1f:	31 db                	xor    %ebx,%ebx
    4f21:	0f b6 c9             	movzbl %cl,%ecx
    4f24:	40 0f b6 ff          	movzbl %dil,%edi
    4f28:	48 83 f9 00          	cmp    $0x0,%rcx
    4f2c:	45 0f 45 c5          	cmovne %r13d,%r8d
    4f30:	44 89 44 24 2c       	mov    %r8d,0x2c(%rsp)
    4f35:	45 89 f8             	mov    %r15d,%r8d
    4f38:	0f b6 4c 24 5c       	movzbl 0x5c(%rsp),%ecx
    4f3d:	41 c1 e0 04          	shl    $0x4,%r8d
    4f41:	c5 fb f0 0d c7 30 01 	vlddqu 0x130c7(%rip),%xmm1        # 18010 <extension_2op_table>
    4f48:	00 
    4f49:	41 09 f8             	or     %edi,%r8d
    4f4c:	41 83 f8 11          	cmp    $0x11,%r8d
    4f50:	0f 94 c3             	sete   %bl
    4f53:	01 c9                	add    %ecx,%ecx
    4f55:	c0 e8 03             	shr    $0x3,%al
    4f58:	42 8d 0c d1          	lea    (%rcx,%r10,8),%ecx
    4f5c:	41 ba 1a 05 0a 00    	mov    $0xa051a,%r10d
    4f62:	83 e0 07             	and    $0x7,%eax
    4f65:	41 d3 ea             	shr    %cl,%r10d
    4f68:	41 83 e2 03          	and    $0x3,%r10d
    4f6c:	48 83 fb 00          	cmp    $0x0,%rbx
    4f70:	41 0f 45 d2          	cmovne %r10d,%edx
    4f74:	44 8d 14 00          	lea    (%rax,%rax,1),%r10d
    4f78:	41 8d 4a 01          	lea    0x1(%r10),%ecx
    4f7c:	c1 e1 08             	shl    $0x8,%ecx
    4f7f:	44 09 d1             	or     %r10d,%ecx
    4f82:	41 83 f8 13          	cmp    $0x13,%r8d
    4f86:	c5 f9 6e f9          	vmovd  %ecx,%xmm7
    4f8a:	89 f1                	mov    %esi,%ecx
    4f8c:	0f b6 74 24 64       	movzbl 0x64(%rsp),%esi
    4f91:	41 0f 94 c0          	sete   %r8b
    4f95:	41 c1 e7 0c          	shl    $0xc,%r15d
    4f99:	c5 f9 70 c7 00       	vpshufd $0x0,%xmm7,%xmm0
    4f9e:	45 0f b6 c0          	movzbl %r8b,%r8d
    4fa2:	c1 e7 08             	shl    $0x8,%edi
    4fa5:	c4 e2 71 00 c0       	vpshufb %xmm0,%xmm1,%xmm0
    4faa:	89 74 24 64          	mov    %esi,0x64(%rsp)
    4fae:	c4 c1 f9 7e c2       	vmovq  %xmm0,%r10
    4fb3:	41 d3 ea             	shr    %cl,%r10d
    4fb6:	41 83 e2 03          	and    $0x3,%r10d
    4fba:	49 83 f8 00          	cmp    $0x0,%r8
    4fbe:	41 0f 45 d2          	cmovne %r10d,%edx
    4fc2:	41 89 f0             	mov    %esi,%r8d
    4fc5:	c1 e6 04             	shl    $0x4,%esi
    4fc8:	44 8b 94 24 e0 00 00 	mov    0xe0(%rsp),%r10d
    4fcf:	00 
    4fd0:	41 09 f7             	or     %esi,%r15d
    4fd3:	89 74 24 60          	mov    %esi,0x60(%rsp)
    4fd7:	41 09 c7             	or     %eax,%r15d
    4fda:	31 c0                	xor    %eax,%eax
    4fdc:	41 09 ff             	or     %edi,%r15d
    4fdf:	41 81 ff 32 13 00 00 	cmp    $0x1332,%r15d
    4fe6:	44 0f b6 bc 24 c0 00 	movzbl 0xc0(%rsp),%r15d
    4fed:	00 00 
    4fef:	0f 97 c0             	seta   %al
    4ff2:	48 83 f8 00          	cmp    $0x0,%rax
    4ff6:	41 0f 45 d4          	cmovne %r12d,%edx
    4ffa:	31 c0                	xor    %eax,%eax
    4ffc:	41 80 f8 03          	cmp    $0x3,%r8b
    5000:	0f 94 c0             	sete   %al
    5003:	48 83 f8 00          	cmp    $0x0,%rax
    5007:	41 0f 45 d4          	cmovne %r12d,%edx
    500b:	89 54 24 28          	mov    %edx,0x28(%rsp)
    500f:	44 89 d2             	mov    %r10d,%edx
    5012:	8d 42 02             	lea    0x2(%rdx),%eax
    5015:	0f b6 c0             	movzbl %al,%eax
    5018:	48 89 c2             	mov    %rax,%rdx
    501b:	48 8d 48 01          	lea    0x1(%rax),%rcx
    501f:	4c 09 ca             	or     %r9,%rdx
    5022:	48 c1 e1 08          	shl    $0x8,%rcx
    5026:	c4 e1 f9 6e c2       	vmovq  %rdx,%xmm0
    502b:	48 8d 50 03          	lea    0x3(%rax),%rdx
    502f:	48 c1 e2 18          	shl    $0x18,%rdx
    5033:	c4 c3 f9 22 c3 01    	vpinsrq $0x1,%r11,%xmm0,%xmm0
    5039:	48 09 ca             	or     %rcx,%rdx
    503c:	c4 e2 51 00 c0       	vpshufb %xmm0,%xmm5,%xmm0
    5041:	48 b9 00 00 00 00 80 	movabs $0x8080808000000000,%rcx
    5048:	80 80 80 
    504b:	48 09 c2             	or     %rax,%rdx
    504e:	48 83 c0 02          	add    $0x2,%rax
    5052:	c4 c1 f9 7e c0       	vmovq  %xmm0,%r8
    5057:	48 c1 e0 10          	shl    $0x10,%rax
    505b:	48 09 d0             	or     %rdx,%rax
    505e:	44 89 d2             	mov    %r10d,%edx
    5061:	83 c2 03             	add    $0x3,%edx
    5064:	48 09 c8             	or     %rcx,%rax
    5067:	0f b6 d2             	movzbl %dl,%edx
    506a:	c4 e1 f9 6e e0       	vmovq  %rax,%xmm4
    506f:	48 8d 72 01          	lea    0x1(%rdx),%rsi
    5073:	48 8d 42 03          	lea    0x3(%rdx),%rax
    5077:	c4 c3 d9 22 c3 01    	vpinsrq $0x1,%r11,%xmm4,%xmm0
    507d:	48 c1 e6 08          	shl    $0x8,%rsi
    5081:	48 c1 e0 18          	shl    $0x18,%rax
    5085:	c4 e2 51 00 c0       	vpshufb %xmm0,%xmm5,%xmm0
    508a:	48 09 f0             	or     %rsi,%rax
    508d:	48 8d 72 02          	lea    0x2(%rdx),%rsi
    5091:	c4 e1 f9 7e c3       	vmovq  %xmm0,%rbx
    5096:	48 09 d0             	or     %rdx,%rax
    5099:	48 c1 e6 10          	shl    $0x10,%rsi
    509d:	4c 09 ca             	or     %r9,%rdx
    50a0:	48 89 5c 24 70       	mov    %rbx,0x70(%rsp)
    50a5:	48 09 f0             	or     %rsi,%rax
    50a8:	c4 e1 f9 6e e2       	vmovq  %rdx,%xmm4
    50ad:	bb 04 00 00 00       	mov    $0x4,%ebx
    50b2:	44 89 e2             	mov    %r12d,%edx
    50b5:	48 09 c8             	or     %rcx,%rax
    50b8:	31 c9                	xor    %ecx,%ecx
    50ba:	41 80 ff 05          	cmp    $0x5,%r15b
    50be:	44 89 e6             	mov    %r12d,%esi
    50c1:	c4 e1 f9 6e f8       	vmovq  %rax,%xmm7
    50c6:	0f 94 c1             	sete   %cl
    50c9:	45 89 c1             	mov    %r8d,%r9d
    50cc:	45 31 d2             	xor    %r10d,%r10d
    50cf:	c4 c3 c1 22 c3 01    	vpinsrq $0x1,%r11,%xmm7,%xmm0
    50d5:	c4 e2 51 00 c0       	vpshufb %xmm0,%xmm5,%xmm0
    50da:	c4 e1 f9 7e c0       	vmovq  %xmm0,%rax
    50df:	c4 c3 d9 22 c3 01    	vpinsrq $0x1,%r11,%xmm4,%xmm0
    50e5:	45 89 f3             	mov    %r14d,%r11d
    50e8:	48 83 f9 00          	cmp    $0x0,%rcx
    50ec:	0f 45 54 24 70       	cmovne 0x70(%rsp),%edx
    50f1:	48 83 f9 00          	cmp    $0x0,%rcx
    50f5:	0f 45 f3             	cmovne %ebx,%esi
    50f8:	0f b6 8c 24 80 00 00 	movzbl 0x80(%rsp),%ecx
    50ff:	00 
    5100:	41 c1 e3 08          	shl    $0x8,%r11d
    5104:	c4 e2 51 00 e8       	vpshufb %xmm0,%xmm5,%xmm5
    5109:	89 4c 24 5c          	mov    %ecx,0x5c(%rsp)
    510d:	44 09 d9             	or     %r11d,%ecx
    5110:	81 f9 04 01 00 00    	cmp    $0x104,%ecx
    5116:	41 0f 94 c2          	sete   %r10b
    511a:	41 c0 e9 06          	shr    $0x6,%r9b
    511e:	41 0f b6 c9          	movzbl %r9b,%ecx
    5122:	41 b9 ff 00 00 00    	mov    $0xff,%r9d
    5128:	41 c1 e6 10          	shl    $0x10,%r14d
    512c:	44 89 cf             	mov    %r9d,%edi
    512f:	49 83 fa 00          	cmp    $0x0,%r10
    5133:	0f 45 f9             	cmovne %ecx,%edi
    5136:	44 89 e1             	mov    %r12d,%ecx
    5139:	89 7c 24 24          	mov    %edi,0x24(%rsp)
    513d:	8b 7c 24 38          	mov    0x38(%rsp),%edi
    5141:	49 83 fa 00          	cmp    $0x0,%r10
    5145:	41 0f 45 cd          	cmovne %r13d,%ecx
    5149:	8d 74 0e 01          	lea    0x1(%rsi,%rcx,1),%esi
    514d:	89 74 24 58          	mov    %esi,0x58(%rsp)
    5151:	44 89 c6             	mov    %r8d,%esi
    5154:	40 c0 ee 03          	shr    $0x3,%sil
    5158:	89 f1                	mov    %esi,%ecx
    515a:	8d 34 bd 00 00 00 00 	lea    0x0(,%rdi,4),%esi
    5161:	83 e6 08             	and    $0x8,%esi
    5164:	83 e1 07             	and    $0x7,%ecx
    5167:	09 f1                	or     %esi,%ecx
    5169:	44 89 ce             	mov    %r9d,%esi
    516c:	49 83 fa 00          	cmp    $0x0,%r10
    5170:	0f 45 f1             	cmovne %ecx,%esi
    5173:	8d 0c fd 00 00 00 00 	lea    0x0(,%rdi,8),%ecx
    517a:	44 89 c7             	mov    %r8d,%edi
    517d:	89 74 24 38          	mov    %esi,0x38(%rsp)
    5181:	45 0f b6 c0          	movzbl %r8b,%r8d
    5185:	83 e7 07             	and    $0x7,%edi
    5188:	83 e1 08             	and    $0x8,%ecx
    518b:	89 fe                	mov    %edi,%esi
    518d:	44 89 e7             	mov    %r12d,%edi
    5190:	09 ce                	or     %ecx,%esi
    5192:	49 83 fa 00          	cmp    $0x0,%r10
    5196:	0f 45 fe             	cmovne %esi,%edi
    5199:	89 fe                	mov    %edi,%esi
    519b:	41 0f b6 ff          	movzbl %r15b,%edi
    519f:	41 89 f7             	mov    %esi,%r15d
    51a2:	89 74 24 20          	mov    %esi,0x20(%rsp)
    51a6:	41 c1 e7 08          	shl    $0x8,%r15d
    51aa:	44 89 fe             	mov    %r15d,%esi
    51ad:	45 31 ff             	xor    %r15d,%r15d
    51b0:	81 e6 00 07 00 00    	and    $0x700,%esi
    51b6:	44 09 f6             	or     %r14d,%esi
    51b9:	09 fe                	or     %edi,%esi
    51bb:	81 fe 04 05 01 00    	cmp    $0x10504,%esi
    51c1:	44 89 e6             	mov    %r12d,%esi
    51c4:	41 0f 94 c7          	sete   %r15b
    51c8:	41 09 fb             	or     %edi,%r11d
    51cb:	44 89 e7             	mov    %r12d,%edi
    51ce:	49 83 ff 00          	cmp    $0x0,%r15
    51d2:	0f 45 f3             	cmovne %ebx,%esi
    51d5:	49 83 ff 00          	cmp    $0x0,%r15
    51d9:	0f 45 d0             	cmovne %eax,%edx
    51dc:	44 8b 7c 24 58       	mov    0x58(%rsp),%r15d
    51e1:	41 01 f7             	add    %esi,%r15d
    51e4:	c4 e1 f9 7e ee       	vmovq  %xmm5,%rsi
    51e9:	44 89 fb             	mov    %r15d,%ebx
    51ec:	45 31 ff             	xor    %r15d,%r15d
    51ef:	41 81 fb 44 01 00 00 	cmp    $0x144,%r11d
    51f6:	40 0f b6 f6          	movzbl %sil,%esi
    51fa:	41 0f 94 c7          	sete   %r15b
    51fe:	49 83 ff 00          	cmp    $0x0,%r15
    5202:	0f 45 fe             	cmovne %esi,%edi
    5205:	44 89 e6             	mov    %r12d,%esi
    5208:	49 83 ff 00          	cmp    $0x0,%r15
    520c:	41 0f 45 f5          	cmovne %r13d,%esi
    5210:	01 de                	add    %ebx,%esi
    5212:	41 81 fb 84 01 00 00 	cmp    $0x184,%r11d
    5219:	41 bf 04 00 00 00    	mov    $0x4,%r15d
    521f:	8b 5c 24 5c          	mov    0x5c(%rsp),%ebx
    5223:	41 0f 94 c3          	sete   %r11b
    5227:	45 0f b6 db          	movzbl %r11b,%r11d
    522b:	49 83 fb 00          	cmp    $0x0,%r11
    522f:	0f 45 d0             	cmovne %eax,%edx
    5232:	44 89 e0             	mov    %r12d,%eax
    5235:	49 83 fb 00          	cmp    $0x0,%r11
    5239:	41 0f 45 c7          	cmovne %r15d,%eax
    523d:	45 31 db             	xor    %r11d,%r11d
    5240:	01 c6                	add    %eax,%esi
    5242:	80 bc 24 80 00 00 00 	cmpb   $0x4,0x80(%rsp)
    5249:	04 
    524a:	44 89 e0             	mov    %r12d,%eax
    524d:	41 0f 95 c3          	setne  %r11b
    5251:	49 83 fb 00          	cmp    $0x0,%r11
    5255:	41 0f 45 c5          	cmovne %r13d,%eax
    5259:	44 8b 5c 24 64       	mov    0x64(%rsp),%r11d
    525e:	c1 e0 08             	shl    $0x8,%eax
    5261:	44 09 f0             	or     %r14d,%eax
    5264:	44 09 d8             	or     %r11d,%eax
    5267:	45 31 db             	xor    %r11d,%r11d
    526a:	3d 01 01 01 00       	cmp    $0x10101,%eax
    526f:	41 0f 94 c3          	sete   %r11b
    5273:	49 83 fb 00          	cmp    $0x0,%r11
    5277:	41 0f 45 f8          	cmovne %r8d,%edi
    527b:	45 89 e0             	mov    %r12d,%r8d
    527e:	49 83 fb 00          	cmp    $0x0,%r11
    5282:	45 0f 45 c5          	cmovne %r13d,%r8d
    5286:	41 01 f0             	add    %esi,%r8d
    5289:	3d 02 01 01 00       	cmp    $0x10102,%eax
    528e:	4c 0f be df          	movsbq %dil,%r11
    5292:	44 89 e6             	mov    %r12d,%esi
    5295:	0f 94 c0             	sete   %al
    5298:	09 d9                	or     %ebx,%ecx
    529a:	0f b6 c0             	movzbl %al,%eax
    529d:	49 83 fa 00          	cmp    $0x0,%r10
    52a1:	41 0f 45 cf          	cmovne %r15d,%ecx
    52a5:	48 83 f8 00          	cmp    $0x0,%rax
    52a9:	41 0f 45 f7          	cmovne %r15d,%esi
    52ad:	48 83 f8 00          	cmp    $0x0,%rax
    52b1:	0f 45 54 24 70       	cmovne 0x70(%rsp),%edx
    52b6:	41 01 f0             	add    %esi,%r8d
    52b9:	31 c0                	xor    %eax,%eax
    52bb:	8b 74 24 20          	mov    0x20(%rsp),%esi
    52bf:	4d 85 db             	test   %r11,%r11
    52c2:	0f 94 c0             	sete   %al
    52c5:	89 d2                	mov    %edx,%edx
    52c7:	41 89 da             	mov    %ebx,%r10d
    52ca:	48 83 f8 00          	cmp    $0x0,%rax
    52ce:	4c 0f 45 da          	cmovne %rdx,%r11
    52d2:	31 d2                	xor    %edx,%edx
    52d4:	80 bc 24 c0 00 00 00 	cmpb   $0x4,0xc0(%rsp)
    52db:	04 
    52dc:	0f b6 c1             	movzbl %cl,%eax
    52df:	44 8b 7c 24 60       	mov    0x60(%rsp),%r15d
    52e4:	0f 94 c2             	sete   %dl
    52e7:	48 8b 7c 24 78       	mov    0x78(%rsp),%rdi
    52ec:	48 83 fa 00          	cmp    $0x0,%rdx
    52f0:	41 0f 45 c1          	cmovne %r9d,%eax
    52f4:	89 f2                	mov    %esi,%edx
    52f6:	83 e2 07             	and    $0x7,%edx
    52f9:	44 09 fa             	or     %r15d,%edx
    52fc:	83 fa 05             	cmp    $0x5,%edx
    52ff:	0f 94 c2             	sete   %dl
    5302:	0f b6 d2             	movzbl %dl,%edx
    5305:	48 83 fa 00          	cmp    $0x0,%rdx
    5309:	41 0f 45 f1          	cmovne %r9d,%esi
    530d:	31 d2                	xor    %edx,%edx
    530f:	80 f9 04             	cmp    $0x4,%cl
    5312:	0f 94 c2             	sete   %dl
    5315:	45 09 fa             	or     %r15d,%r10d
    5318:	48 83 fa 00          	cmp    $0x0,%rdx
    531c:	0f 45 c6             	cmovne %esi,%eax
    531f:	31 d2                	xor    %edx,%edx
    5321:	41 83 fa 05          	cmp    $0x5,%r10d
    5325:	89 c6                	mov    %eax,%esi
    5327:	b8 10 00 00 00       	mov    $0x10,%eax
    532c:	0f 94 c2             	sete   %dl
    532f:	31 db                	xor    %ebx,%ebx
    5331:	48 83 fa 00          	cmp    $0x0,%rdx
    5335:	0f 45 f0             	cmovne %eax,%esi
    5338:	e8 23 f1 ff ff       	call   4460 <register_value_select>
    533d:	89 f1                	mov    %esi,%ecx
    533f:	8b 74 24 38          	mov    0x38(%rsp),%esi
    5343:	4c 8b 74 24 68       	mov    0x68(%rsp),%r14
    5348:	44 8b 54 24 34       	mov    0x34(%rsp),%r10d
    534d:	48 89 c2             	mov    %rax,%rdx
    5350:	31 c0                	xor    %eax,%eax
    5352:	48 83 f9 10          	cmp    $0x10,%rcx
    5356:	49 0f 44 d6          	cmove  %r14,%rdx
    535a:	48 81 f9 ff 00 00 00 	cmp    $0xff,%rcx
    5361:	48 0f 44 d3          	cmove  %rbx,%rdx
    5365:	89 d1                	mov    %edx,%ecx
    5367:	49 83 fa 01          	cmp    $0x1,%r10
    536b:	48 0f 44 d1          	cmove  %rcx,%rdx
    536f:	83 fe 04             	cmp    $0x4,%esi
    5372:	0f 94 c0             	sete   %al
    5375:	48 83 f8 00          	cmp    $0x0,%rax
    5379:	41 0f 45 f1          	cmovne %r9d,%esi
    537d:	e8 de f0 ff ff       	call   4460 <register_value_select>
    5382:	44 8b 4c 24 28       	mov    0x28(%rsp),%r9d
    5387:	89 f6                	mov    %esi,%esi
    5389:	48 83 fe 10          	cmp    $0x10,%rsi
    538d:	49 0f 44 c6          	cmove  %r14,%rax
    5391:	48 81 fe ff 00 00 00 	cmp    $0xff,%rsi
    5398:	48 0f 44 c3          	cmove  %rbx,%rax
    539c:	89 c1                	mov    %eax,%ecx
    539e:	41 be 02 00 00 00    	mov    $0x2,%r14d
    53a4:	49 83 fa 01          	cmp    $0x1,%r10
    53a8:	48 0f 44 c1          	cmove  %rcx,%rax
    53ac:	45 85 c9             	test   %r9d,%r9d
    53af:	44 89 e9             	mov    %r13d,%ecx
    53b2:	40 0f 94 c6          	sete   %sil
    53b6:	40 0f b6 f6          	movzbl %sil,%esi
    53ba:	48 83 fe 00          	cmp    $0x0,%rsi
    53be:	41 0f 45 cc          	cmovne %r12d,%ecx
    53c2:	41 01 c8             	add    %ecx,%r8d
    53c5:	0f b6 4c 24 24       	movzbl 0x24(%rsp),%ecx
    53ca:	44 89 ee             	mov    %r13d,%esi
    53cd:	d3 e6                	shl    %cl,%esi
    53cf:	48 63 ce             	movslq %esi,%rcx
    53d2:	48 0f af c1          	imul   %rcx,%rax
    53d6:	48 01 c2             	add    %rax,%rdx
    53d9:	8b 84 24 a0 00 00 00 	mov    0xa0(%rsp),%eax
    53e0:	4c 01 da             	add    %r11,%rdx
    53e3:	83 e0 0f             	and    $0xf,%eax
    53e6:	8d 70 06             	lea    0x6(%rax),%esi
    53e9:	e8 72 f0 ff ff       	call   4460 <register_value_select>
    53ee:	8b 74 24 40          	mov    0x40(%rsp),%esi
    53f2:	44 8b 7c 24 3c       	mov    0x3c(%rsp),%r15d
    53f7:	48 89 c1             	mov    %rax,%rcx
    53fa:	8b 44 24 48          	mov    0x48(%rsp),%eax
    53fe:	44 8b 64 24 2c       	mov    0x2c(%rsp),%r12d
    5403:	83 e6 03             	and    $0x3,%esi
    5406:	48 83 f8 01          	cmp    $0x1,%rax
    540a:	48 0f 44 d1          	cmove  %rcx,%rdx
    540e:	89 f1                	mov    %esi,%ecx
    5410:	49 89 c3             	mov    %rax,%r11
    5413:	be 04 00 00 00       	mov    $0x4,%esi
    5418:	83 c1 01             	add    $0x1,%ecx
    541b:	48 83 f8 00          	cmp    $0x0,%rax
    541f:	44 0f 45 c9          	cmovne %ecx,%r9d
    5423:	44 89 f8             	mov    %r15d,%eax
    5426:	44 09 e0             	or     %r12d,%eax
    5429:	49 89 c2             	mov    %rax,%r10
    542c:	48 83 f8 00          	cmp    $0x0,%rax
    5430:	45 0f 45 ce          	cmovne %r14d,%r9d
    5434:	e8 27 f0 ff ff       	call   4460 <register_value_select>
    5439:	8b 4c 24 30          	mov    0x30(%rsp),%ecx
    543d:	8b 5c 24 4c          	mov    0x4c(%rsp),%ebx
    5441:	49 83 fa 01          	cmp    $0x1,%r10
    5445:	48 0f 44 d0          	cmove  %rax,%rdx
    5449:	42 8d 04 09          	lea    (%rcx,%r9,1),%eax
    544d:	31 c9                	xor    %ecx,%ecx
    544f:	44 8b 94 24 e0 00 00 	mov    0xe0(%rsp),%r10d
    5456:	00 
    5457:	83 f8 02             	cmp    $0x2,%eax
    545a:	44 89 c8             	mov    %r9d,%eax
    545d:	0f 97 c1             	seta   %cl
    5460:	48 83 f9 00          	cmp    $0x0,%rcx
    5464:	41 0f 45 c5          	cmovne %r13d,%eax
    5468:	44 89 f9             	mov    %r15d,%ecx
    546b:	44 09 d9             	or     %r11d,%ecx
    546e:	48 83 f9 00          	cmp    $0x0,%rcx
    5472:	45 0f 45 c5          	cmovne %r13d,%r8d
    5476:	44 89 e1             	mov    %r12d,%ecx
    5479:	48 83 f9 00          	cmp    $0x0,%rcx
    547d:	45 0f 45 c6          	cmovne %r14d,%r8d
    5481:	42 8d 0c 03          	lea    (%rbx,%r8,1),%ecx
    5485:	48 8b 5c 24 50       	mov    0x50(%rsp),%rbx
    548a:	44 01 d1             	add    %r10d,%ecx
    548d:	83 f9 10             	cmp    $0x10,%ecx
    5490:	48 89 13             	mov    %rdx,(%rbx)
    5493:	48 8b 5c 24 18       	mov    0x18(%rsp),%rbx
    5498:	0f 96 c1             	setbe  %cl
    549b:	0f b6 c9             	movzbl %cl,%ecx
    549e:	48 21 c1             	and    %rax,%rcx
    54a1:	48 83 f9 00          	cmp    $0x0,%rcx
    54a5:	0f 45 c0             	cmovne %eax,%eax
    54a8:	f6 05 84 29 01 00 08 	testb  $0x8,0x12984(%rip)        # 17e33 <g_cpu_feature_indicator+0x3>
    54af:	0f 84 1b 01 00 00    	je     55d0 <ct_decode+0x10d0>
    54b5:	62 f1 7c 48 28 03    	vmovaps (%rbx),%zmm0
    54bb:	62 f1 7c 48 28 4b 01 	vmovaps 0x40(%rbx),%zmm1
    54c2:	62 f1 7c 48 28 53 02 	vmovaps 0x80(%rbx),%zmm2
    54c9:	62 f1 7c 48 28 5b 03 	vmovaps 0xc0(%rbx),%zmm3
    54d0:	62 f1 7c 48 28 63 04 	vmovaps 0x100(%rbx),%zmm4
    54d7:	62 f1 7c 48 28 6b 05 	vmovaps 0x140(%rbx),%zmm5
    54de:	62 f1 7c 48 28 73 06 	vmovaps 0x180(%rbx),%zmm6
    54e5:	62 f1 7c 48 28 7b 07 	vmovaps 0x1c0(%rbx),%zmm7
    54ec:	62 71 7c 48 28 43 08 	vmovaps 0x200(%rbx),%zmm8
    54f3:	62 71 7c 48 28 4b 09 	vmovaps 0x240(%rbx),%zmm9
    54fa:	62 71 7c 48 28 53 0a 	vmovaps 0x280(%rbx),%zmm10
    5501:	62 71 7c 48 28 5b 0b 	vmovaps 0x2c0(%rbx),%zmm11
    5508:	62 71 7c 48 28 63 0c 	vmovaps 0x300(%rbx),%zmm12
    550f:	62 71 7c 48 28 6b 0d 	vmovaps 0x340(%rbx),%zmm13
    5516:	62 71 7c 48 28 73 0e 	vmovaps 0x380(%rbx),%zmm14
    551d:	62 71 7c 48 28 7b 0f 	vmovaps 0x3c0(%rbx),%zmm15
    5524:	48 8b 94 24 38 05 00 	mov    0x538(%rsp),%rdx
    552b:	00 
    552c:	64 48 2b 14 25 28 00 	sub    %fs:0x28,%rdx
    5533:	00 00 
    5535:	0f 85 0d 01 00 00    	jne    5648 <ct_decode+0x1148>
    553b:	c5 f8 77             	vzeroupper 
    553e:	48 8d 65 d8          	lea    -0x28(%rbp),%rsp
    5542:	5b                   	pop    %rbx
    5543:	41 5c                	pop    %r12
    5545:	41 5d                	pop    %r13
    5547:	41 5e                	pop    %r14
    5549:	41 5f                	pop    %r15
    554b:	5d                   	pop    %rbp
    554c:	c3                   	ret    
    554d:	0f 1f 00             	nopl   (%rax)
    5550:	c5 fc 29 00          	vmovaps %ymm0,(%rax)
    5554:	c5 fc 29 48 20       	vmovaps %ymm1,0x20(%rax)
    5559:	c5 fc 29 50 40       	vmovaps %ymm2,0x40(%rax)
    555e:	c5 fc 29 58 60       	vmovaps %ymm3,0x60(%rax)
    5563:	c5 fc 29 a0 80 00 00 	vmovaps %ymm4,0x80(%rax)
    556a:	00 
    556b:	c5 fc 29 a8 a0 00 00 	vmovaps %ymm5,0xa0(%rax)
    5572:	00 
    5573:	c5 fc 29 b0 c0 00 00 	vmovaps %ymm6,0xc0(%rax)
    557a:	00 
    557b:	c5 fc 29 b8 e0 00 00 	vmovaps %ymm7,0xe0(%rax)
    5582:	00 
    5583:	c5 7c 29 80 00 01 00 	vmovaps %ymm8,0x100(%rax)
    558a:	00 
    558b:	c5 7c 29 88 20 01 00 	vmovaps %ymm9,0x120(%rax)
    5592:	00 
    5593:	c5 7c 29 90 40 01 00 	vmovaps %ymm10,0x140(%rax)
    559a:	00 
    559b:	c5 7c 29 98 60 01 00 	vmovaps %ymm11,0x160(%rax)
    55a2:	00 
    55a3:	c5 7c 29 a0 80 01 00 	vmovaps %ymm12,0x180(%rax)
    55aa:	00 
    55ab:	c5 7c 29 a8 a0 01 00 	vmovaps %ymm13,0x1a0(%rax)
    55b2:	00 
    55b3:	c5 7c 29 b0 c0 01 00 	vmovaps %ymm14,0x1c0(%rax)
    55ba:	00 
    55bb:	c5 7c 29 b8 e0 01 00 	vmovaps %ymm15,0x1e0(%rax)
    55c2:	00 
    55c3:	e9 fa ef ff ff       	jmp    45c2 <ct_decode+0xc2>
    55c8:	0f 1f 84 00 00 00 00 	nopl   0x0(%rax,%rax,1)
    55cf:	00 
    55d0:	c5 fc 28 03          	vmovaps (%rbx),%ymm0
    55d4:	c5 fc 28 4b 20       	vmovaps 0x20(%rbx),%ymm1
    55d9:	c5 fc 28 53 40       	vmovaps 0x40(%rbx),%ymm2
    55de:	c5 fc 28 5b 60       	vmovaps 0x60(%rbx),%ymm3
    55e3:	c5 fc 28 a3 80 00 00 	vmovaps 0x80(%rbx),%ymm4
    55ea:	00 
    55eb:	c5 fc 28 ab a0 00 00 	vmovaps 0xa0(%rbx),%ymm5
    55f2:	00 
    55f3:	c5 fc 28 b3 c0 00 00 	vmovaps 0xc0(%rbx),%ymm6
    55fa:	00 
    55fb:	c5 fc 28 bb e0 00 00 	vmovaps 0xe0(%rbx),%ymm7
    5602:	00 
    5603:	c5 7c 28 83 00 01 00 	vmovaps 0x100(%rbx),%ymm8
    560a:	00 
    560b:	c5 7c 28 8b 20 01 00 	vmovaps 0x120(%rbx),%ymm9
    5612:	00 
    5613:	c5 7c 28 93 40 01 00 	vmovaps 0x140(%rbx),%ymm10
    561a:	00 
    561b:	c5 7c 28 9b 60 01 00 	vmovaps 0x160(%rbx),%ymm11
    5622:	00 
    5623:	c5 7c 28 a3 80 01 00 	vmovaps 0x180(%rbx),%ymm12
    562a:	00 
    562b:	c5 7c 28 ab a0 01 00 	vmovaps 0x1a0(%rbx),%ymm13
    5632:	00 
    5633:	c5 7c 28 b3 c0 01 00 	vmovaps 0x1c0(%rbx),%ymm14
    563a:	00 
    563b:	c5 7c 28 bb e0 01 00 	vmovaps 0x1e0(%rbx),%ymm15
    5642:	00 
    5643:	e9 dc fe ff ff       	jmp    5524 <ct_decode+0x1024>
    5648:	c5 f8 77             	vzeroupper 
    564b:	e8 b0 b4 00 00       	call   10b00 <__stack_chk_fail>

0000000000005650 <_ZL22init_rts_contexts_emasP9_layout_tS0_m>:
    5650:	48 39 f7             	cmp    %rsi,%rdi
    5653:	0f 83 f7 01 00 00    	jae    5850 <_ZL22init_rts_contexts_emasP9_layout_tS0_m+0x200>
    5659:	41 57                	push   %r15
    565b:	41 56                	push   %r14
    565d:	49 89 d6             	mov    %rdx,%r14
    5660:	41 55                	push   %r13
    5662:	49 89 f5             	mov    %rsi,%r13
    5665:	41 54                	push   %r12
    5667:	55                   	push   %rbp
    5668:	53                   	push   %rbx
    5669:	48 89 fb             	mov    %rdi,%rbx
    566c:	48 83 ec 08          	sub    $0x8,%rsp
    5670:	66 f7 03 00 10       	testw  $0x1000,(%rbx)
    5675:	0f 85 d5 00 00 00    	jne    5750 <_ZL22init_rts_contexts_emasP9_layout_tS0_m+0x100>
    567b:	48 8b 6b 08          	mov    0x8(%rbx),%rbp
    567f:	e8 74 ca 00 00       	call   120f8 <get_enclave_base>
    5684:	44 8b 63 04          	mov    0x4(%rbx),%r12d
    5688:	48 8b 4b 18          	mov    0x18(%rbx),%rcx
    568c:	4c 01 f5             	add    %r14,%rbp
    568f:	48 01 c5             	add    %rax,%rbp
    5692:	49 c1 e4 0c          	shl    $0xc,%r12
    5696:	48 85 c9             	test   %rcx,%rcx
    5699:	0f 84 81 00 00 00    	je     5720 <_ZL22init_rts_contexts_emasP9_layout_tS0_m+0xd0>
    569f:	0f b7 43 02          	movzwl 0x2(%rbx),%eax
    56a3:	a8 04                	test   $0x4,%al
    56a5:	75 79                	jne    5720 <_ZL22init_rts_contexts_emasP9_layout_tS0_m+0xd0>
    56a7:	89 c2                	mov    %eax,%edx
    56a9:	41 89 c7             	mov    %eax,%r15d
    56ac:	83 e2 10             	and    $0x10,%edx
    56af:	41 83 e7 08          	and    $0x8,%r15d
    56b3:	a8 01                	test   $0x1,%al
    56b5:	0f 84 e5 00 00 00    	je     57a0 <_ZL22init_rts_contexts_emasP9_layout_tS0_m+0x150>
    56bb:	66 85 d2             	test   %dx,%dx
    56be:	0f 85 3c 01 00 00    	jne    5800 <_ZL22init_rts_contexts_emasP9_layout_tS0_m+0x1b0>
    56c4:	0f b7 03             	movzwl (%rbx),%eax
    56c7:	66 45 85 ff          	test   %r15w,%r15w
    56cb:	0f 85 e1 00 00 00    	jne    57b2 <_ZL22init_rts_contexts_emasP9_layout_tS0_m+0x162>
    56d1:	66 83 f8 04          	cmp    $0x4,%ax
    56d5:	0f 84 65 01 00 00    	je     5840 <_ZL22init_rts_contexts_emasP9_layout_tS0_m+0x1f0>
    56db:	83 e1 07             	and    $0x7,%ecx
    56de:	ba 80 02 00 00       	mov    $0x280,%edx
    56e3:	45 31 c9             	xor    %r9d,%r9d
    56e6:	45 31 c0             	xor    %r8d,%r8d
    56e9:	4c 89 e6             	mov    %r12,%rsi
    56ec:	48 89 ef             	mov    %rbp,%rdi
    56ef:	e8 4c 62 00 00       	call   b940 <mm_init_ema>
    56f4:	85 c0                	test   %eax,%eax
    56f6:	75 44                	jne    573c <_ZL22init_rts_contexts_emasP9_layout_tS0_m+0xec>
    56f8:	0f 1f 84 00 00 00 00 	nopl   0x0(%rax,%rax,1)
    56ff:	00 
    5700:	48 83 c3 20          	add    $0x20,%rbx
    5704:	4c 39 eb             	cmp    %r13,%rbx
    5707:	0f 82 63 ff ff ff    	jb     5670 <_ZL22init_rts_contexts_emasP9_layout_tS0_m+0x20>
    570d:	48 83 c4 08          	add    $0x8,%rsp
    5711:	31 c0                	xor    %eax,%eax
    5713:	5b                   	pop    %rbx
    5714:	5d                   	pop    %rbp
    5715:	41 5c                	pop    %r12
    5717:	41 5d                	pop    %r13
    5719:	41 5e                	pop    %r14
    571b:	41 5f                	pop    %r15
    571d:	c3                   	ret    
    571e:	66 90                	xchg   %ax,%ax
    5720:	45 31 c9             	xor    %r9d,%r9d
    5723:	45 31 c0             	xor    %r8d,%r8d
    5726:	31 c9                	xor    %ecx,%ecx
    5728:	ba 81 00 00 00       	mov    $0x81,%edx
    572d:	4c 89 e6             	mov    %r12,%rsi
    5730:	48 89 ef             	mov    %rbp,%rdi
    5733:	e8 08 62 00 00       	call   b940 <mm_init_ema>
    5738:	85 c0                	test   %eax,%eax
    573a:	74 c4                	je     5700 <_ZL22init_rts_contexts_emasP9_layout_tS0_m+0xb0>
    573c:	b8 01 00 00 00       	mov    $0x1,%eax
    5741:	48 83 c4 08          	add    $0x8,%rsp
    5745:	5b                   	pop    %rbx
    5746:	5d                   	pop    %rbp
    5747:	41 5c                	pop    %r12
    5749:	41 5d                	pop    %r13
    574b:	41 5e                	pop    %r14
    574d:	41 5f                	pop    %r15
    574f:	c3                   	ret    
    5750:	8b 43 04             	mov    0x4(%rbx),%eax
    5753:	31 ed                	xor    %ebp,%ebp
    5755:	45 31 e4             	xor    %r12d,%r12d
    5758:	85 c0                	test   %eax,%eax
    575a:	74 a4                	je     5700 <_ZL22init_rts_contexts_emasP9_layout_tS0_m+0xb0>
    575c:	0f b7 7b 02          	movzwl 0x2(%rbx),%edi
    5760:	4c 03 63 08          	add    0x8(%rbx),%r12
    5764:	48 89 de             	mov    %rbx,%rsi
    5767:	4c 89 e2             	mov    %r12,%rdx
    576a:	f7 df                	neg    %edi
    576c:	48 63 ff             	movslq %edi,%rdi
    576f:	48 c1 e7 05          	shl    $0x5,%rdi
    5773:	48 01 df             	add    %rbx,%rdi
    5776:	e8 d5 fe ff ff       	call   5650 <_ZL22init_rts_contexts_emasP9_layout_tS0_m>
    577b:	85 c0                	test   %eax,%eax
    577d:	75 c2                	jne    5741 <_ZL22init_rts_contexts_emasP9_layout_tS0_m+0xf1>
    577f:	83 c5 01             	add    $0x1,%ebp
    5782:	3b 6b 04             	cmp    0x4(%rbx),%ebp
    5785:	72 d5                	jb     575c <_ZL22init_rts_contexts_emasP9_layout_tS0_m+0x10c>
    5787:	48 83 c3 20          	add    $0x20,%rbx
    578b:	4c 39 eb             	cmp    %r13,%rbx
    578e:	0f 82 dc fe ff ff    	jb     5670 <_ZL22init_rts_contexts_emasP9_layout_tS0_m+0x20>
    5794:	e9 74 ff ff ff       	jmp    570d <_ZL22init_rts_contexts_emasP9_layout_tS0_m+0xbd>
    5799:	0f 1f 80 00 00 00 00 	nopl   0x0(%rax)
    57a0:	66 85 d2             	test   %dx,%dx
    57a3:	75 5b                	jne    5800 <_ZL22init_rts_contexts_emasP9_layout_tS0_m+0x1b0>
    57a5:	66 45 85 ff          	test   %r15w,%r15w
    57a9:	0f 84 51 ff ff ff    	je     5700 <_ZL22init_rts_contexts_emasP9_layout_tS0_m+0xb0>
    57af:	0f b7 03             	movzwl (%rbx),%eax
    57b2:	8d 50 ef             	lea    -0x11(%rax),%edx
    57b5:	66 83 fa 01          	cmp    $0x1,%dx
    57b9:	76 0b                	jbe    57c6 <_ZL22init_rts_contexts_emasP9_layout_tS0_m+0x176>
    57bb:	ba e4 02 00 00       	mov    $0x2e4,%edx
    57c0:	66 83 f8 07          	cmp    $0x7,%ax
    57c4:	75 05                	jne    57cb <_ZL22init_rts_contexts_emasP9_layout_tS0_m+0x17b>
    57c6:	ba d4 02 00 00       	mov    $0x2d4,%edx
    57cb:	45 31 c9             	xor    %r9d,%r9d
    57ce:	45 31 c0             	xor    %r8d,%r8d
    57d1:	31 c9                	xor    %ecx,%ecx
    57d3:	4c 89 e6             	mov    %r12,%rsi
    57d6:	48 89 ef             	mov    %rbp,%rdi
    57d9:	e8 62 62 00 00       	call   ba40 <mm_alloc>
    57de:	85 c0                	test   %eax,%eax
    57e0:	0f 85 56 ff ff ff    	jne    573c <_ZL22init_rts_contexts_emasP9_layout_tS0_m+0xec>
    57e6:	48 83 c3 20          	add    $0x20,%rbx
    57ea:	4c 39 eb             	cmp    %r13,%rbx
    57ed:	0f 82 7d fe ff ff    	jb     5670 <_ZL22init_rts_contexts_emasP9_layout_tS0_m+0x20>
    57f3:	e9 15 ff ff ff       	jmp    570d <_ZL22init_rts_contexts_emasP9_layout_tS0_m+0xbd>
    57f8:	0f 1f 84 00 00 00 00 	nopl   0x0(%rax,%rax,1)
    57ff:	00 
    5800:	45 31 c9             	xor    %r9d,%r9d
    5803:	45 31 c0             	xor    %r8d,%r8d
    5806:	b9 03 00 00 00       	mov    $0x3,%ecx
    580b:	ba 80 00 00 00       	mov    $0x80,%edx
    5810:	4c 89 e6             	mov    %r12,%rsi
    5813:	48 89 ef             	mov    %rbp,%rdi
    5816:	e8 25 61 00 00       	call   b940 <mm_init_ema>
    581b:	85 c0                	test   %eax,%eax
    581d:	0f 85 19 ff ff ff    	jne    573c <_ZL22init_rts_contexts_emasP9_layout_tS0_m+0xec>
    5823:	4c 89 e6             	mov    %r12,%rsi
    5826:	48 89 ef             	mov    %rbp,%rdi
    5829:	e8 52 62 00 00       	call   ba80 <mm_dealloc>
    582e:	85 c0                	test   %eax,%eax
    5830:	0f 84 6f ff ff ff    	je     57a5 <_ZL22init_rts_contexts_emasP9_layout_tS0_m+0x155>
    5836:	e9 01 ff ff ff       	jmp    573c <_ZL22init_rts_contexts_emasP9_layout_tS0_m+0xec>
    583b:	0f 1f 44 00 00       	nopl   0x0(%rax,%rax,1)
    5840:	ba 80 01 00 00       	mov    $0x180,%edx
    5845:	31 c9                	xor    %ecx,%ecx
    5847:	e9 97 fe ff ff       	jmp    56e3 <_ZL22init_rts_contexts_emasP9_layout_tS0_m+0x93>
    584c:	0f 1f 40 00          	nopl   0x0(%rax)
    5850:	31 c0                	xor    %eax,%eax
    5852:	c3                   	ret    
    5853:	66 2e 0f 1f 84 00 00 	cs nopw 0x0(%rax,%rax,1)
    585a:	00 00 00 
    585d:	0f 1f 00             	nopl   (%rax)

0000000000005860 <init_rts_emas>:
    5860:	f3 0f 1e fa          	endbr64 
    5864:	55                   	push   %rbp
    5865:	48 89 d5             	mov    %rdx,%rbp
    5868:	53                   	push   %rbx
    5869:	48 89 f3             	mov    %rsi,%rbx
    586c:	48 83 ec 08          	sub    $0x8,%rsp
    5870:	e8 8b 32 00 00       	call   8b00 <init_segment_emas>
    5875:	85 c0                	test   %eax,%eax
    5877:	74 07                	je     5880 <init_rts_emas+0x20>
    5879:	48 83 c4 08          	add    $0x8,%rsp
    587d:	5b                   	pop    %rbx
    587e:	5d                   	pop    %rbp
    587f:	c3                   	ret    
    5880:	48 83 c4 08          	add    $0x8,%rsp
    5884:	48 89 ee             	mov    %rbp,%rsi
    5887:	48 89 df             	mov    %rbx,%rdi
    588a:	31 d2                	xor    %edx,%edx
    588c:	5b                   	pop    %rbx
    588d:	5d                   	pop    %rbp
    588e:	e9 bd fd ff ff       	jmp    5650 <_ZL22init_rts_contexts_emasP9_layout_tS0_m>
    5893:	66 2e 0f 1f 84 00 00 	cs nopw 0x0(%rax,%rax,1)
    589a:	00 00 00 
    589d:	0f 1f 00             	nopl   (%rax)

00000000000058a0 <sgx_mm_alloc_ocall>:
    58a0:	f3 0f 1e fa          	endbr64 
    58a4:	41 56                	push   %r14
    58a6:	41 89 ce             	mov    %ecx,%r14d
    58a9:	41 55                	push   %r13
    58ab:	49 89 fd             	mov    %rdi,%r13
    58ae:	bf 20 00 00 00       	mov    $0x20,%edi
    58b3:	41 54                	push   %r12
    58b5:	49 89 f4             	mov    %rsi,%r12
    58b8:	55                   	push   %rbp
    58b9:	89 d5                	mov    %edx,%ebp
    58bb:	53                   	push   %rbx
    58bc:	e8 ff 03 00 00       	call   5cc0 <sgx_ocalloc>
    58c1:	48 85 c0             	test   %rax,%rax
    58c4:	74 4a                	je     5910 <sgx_mm_alloc_ocall+0x70>
    58c6:	89 68 18             	mov    %ebp,0x18(%rax)
    58c9:	48 89 c6             	mov    %rax,%rsi
    58cc:	bf fa ff ff ff       	mov    $0xfffffffa,%edi
    58d1:	48 89 c3             	mov    %rax,%rbx
    58d4:	4c 89 68 08          	mov    %r13,0x8(%rax)
    58d8:	bd 0e 00 00 00       	mov    $0xe,%ebp
    58dd:	4c 89 60 10          	mov    %r12,0x10(%rax)
    58e1:	44 89 70 1c          	mov    %r14d,0x1c(%rax)
    58e5:	e8 c6 19 00 00       	call   72b0 <sgx_ocall>
    58ea:	85 c0                	test   %eax,%eax
    58ec:	74 12                	je     5900 <sgx_mm_alloc_ocall+0x60>
    58ee:	e8 ad 04 00 00       	call   5da0 <sgx_ocfree>
    58f3:	5b                   	pop    %rbx
    58f4:	89 e8                	mov    %ebp,%eax
    58f6:	5d                   	pop    %rbp
    58f7:	41 5c                	pop    %r12
    58f9:	41 5d                	pop    %r13
    58fb:	41 5e                	pop    %r14
    58fd:	c3                   	ret    
    58fe:	66 90                	xchg   %ax,%ax
    5900:	8b 03                	mov    (%rbx),%eax
    5902:	f7 d8                	neg    %eax
    5904:	19 ed                	sbb    %ebp,%ebp
    5906:	83 e5 0e             	and    $0xe,%ebp
    5909:	eb e3                	jmp    58ee <sgx_mm_alloc_ocall+0x4e>
    590b:	0f 1f 44 00 00       	nopl   0x0(%rax,%rax,1)
    5910:	e8 8b 04 00 00       	call   5da0 <sgx_ocfree>
    5915:	bd 01 00 00 00       	mov    $0x1,%ebp
    591a:	5b                   	pop    %rbx
    591b:	89 e8                	mov    %ebp,%eax
    591d:	5d                   	pop    %rbp
    591e:	41 5c                	pop    %r12
    5920:	41 5d                	pop    %r13
    5922:	41 5e                	pop    %r14
    5924:	c3                   	ret    
    5925:	66 2e 0f 1f 84 00 00 	cs nopw 0x0(%rax,%rax,1)
    592c:	00 00 00 
    592f:	90                   	nop

0000000000005930 <sgx_mm_modify_ocall>:
    5930:	f3 0f 1e fa          	endbr64 
    5934:	41 56                	push   %r14
    5936:	41 89 ce             	mov    %ecx,%r14d
    5939:	41 55                	push   %r13
    593b:	49 89 fd             	mov    %rdi,%r13
    593e:	bf 20 00 00 00       	mov    $0x20,%edi
    5943:	41 54                	push   %r12
    5945:	49 89 f4             	mov    %rsi,%r12
    5948:	55                   	push   %rbp
    5949:	89 d5                	mov    %edx,%ebp
    594b:	53                   	push   %rbx
    594c:	e8 6f 03 00 00       	call   5cc0 <sgx_ocalloc>
    5951:	48 85 c0             	test   %rax,%rax
    5954:	74 4a                	je     59a0 <sgx_mm_modify_ocall+0x70>
    5956:	89 68 18             	mov    %ebp,0x18(%rax)
    5959:	48 89 c6             	mov    %rax,%rsi
    595c:	bf f9 ff ff ff       	mov    $0xfffffff9,%edi
    5961:	48 89 c3             	mov    %rax,%rbx
    5964:	4c 89 68 08          	mov    %r13,0x8(%rax)
    5968:	bd 0e 00 00 00       	mov    $0xe,%ebp
    596d:	4c 89 60 10          	mov    %r12,0x10(%rax)
    5971:	44 89 70 1c          	mov    %r14d,0x1c(%rax)
    5975:	e8 36 19 00 00       	call   72b0 <sgx_ocall>
    597a:	85 c0                	test   %eax,%eax
    597c:	74 12                	je     5990 <sgx_mm_modify_ocall+0x60>
    597e:	e8 1d 04 00 00       	call   5da0 <sgx_ocfree>
    5983:	5b                   	pop    %rbx
    5984:	89 e8                	mov    %ebp,%eax
    5986:	5d                   	pop    %rbp
    5987:	41 5c                	pop    %r12
    5989:	41 5d                	pop    %r13
    598b:	41 5e                	pop    %r14
    598d:	c3                   	ret    
    598e:	66 90                	xchg   %ax,%ax
    5990:	8b 03                	mov    (%rbx),%eax
    5992:	f7 d8                	neg    %eax
    5994:	19 ed                	sbb    %ebp,%ebp
    5996:	83 e5 0e             	and    $0xe,%ebp
    5999:	eb e3                	jmp    597e <sgx_mm_modify_ocall+0x4e>
    599b:	0f 1f 44 00 00       	nopl   0x0(%rax,%rax,1)
    59a0:	e8 fb 03 00 00       	call   5da0 <sgx_ocfree>
    59a5:	bd 01 00 00 00       	mov    $0x1,%ebp
    59aa:	5b                   	pop    %rbx
    59ab:	89 e8                	mov    %ebp,%eax
    59ad:	5d                   	pop    %rbp
    59ae:	41 5c                	pop    %r12
    59b0:	41 5d                	pop    %r13
    59b2:	41 5e                	pop    %r14
    59b4:	c3                   	ret    
    59b5:	66 2e 0f 1f 84 00 00 	cs nopw 0x0(%rax,%rax,1)
    59bc:	00 00 00 
    59bf:	90                   	nop

00000000000059c0 <sgx_mm_register_pfhandler>:
    59c0:	f3 0f 1e fa          	endbr64 
    59c4:	31 c0                	xor    %eax,%eax
    59c6:	48 83 3d ba 47 01 00 	cmpq   $0x0,0x147ba(%rip)        # 1a188 <g_mm_pfhandler>
    59cd:	00 
    59ce:	74 08                	je     59d8 <sgx_mm_register_pfhandler+0x18>
    59d0:	c3                   	ret    
    59d1:	0f 1f 80 00 00 00 00 	nopl   0x0(%rax)
    59d8:	48 89 3d a9 47 01 00 	mov    %rdi,0x147a9(%rip)        # 1a188 <g_mm_pfhandler>
    59df:	b8 01 00 00 00       	mov    $0x1,%eax
    59e4:	c3                   	ret    
    59e5:	66 2e 0f 1f 84 00 00 	cs nopw 0x0(%rax,%rax,1)
    59ec:	00 00 00 
    59ef:	90                   	nop

00000000000059f0 <sgx_mm_unregister_pfhandler>:
    59f0:	f3 0f 1e fa          	endbr64 
    59f4:	31 c0                	xor    %eax,%eax
    59f6:	48 39 3d 8b 47 01 00 	cmp    %rdi,0x1478b(%rip)        # 1a188 <g_mm_pfhandler>
    59fd:	74 01                	je     5a00 <sgx_mm_unregister_pfhandler+0x10>
    59ff:	c3                   	ret    
    5a00:	48 c7 05 7d 47 01 00 	movq   $0x0,0x1477d(%rip)        # 1a188 <g_mm_pfhandler>
    5a07:	00 00 00 00 
    5a0b:	b8 01 00 00 00       	mov    $0x1,%eax
    5a10:	c3                   	ret    
    5a11:	66 2e 0f 1f 84 00 00 	cs nopw 0x0(%rax,%rax,1)
    5a18:	00 00 00 
    5a1b:	0f 1f 44 00 00       	nopl   0x0(%rax,%rax,1)

0000000000005a20 <sgx_mm_mutex_create>:
    5a20:	f3 0f 1e fa          	endbr64 
    5a24:	48 83 ec 08          	sub    $0x8,%rsp
    5a28:	bf 18 00 00 00       	mov    $0x18,%edi
    5a2d:	e8 9e 77 00 00       	call   d1d0 <dlmalloc>
    5a32:	48 85 c0             	test   %rax,%rax
    5a35:	74 16                	je     5a4d <sgx_mm_mutex_create+0x2d>
    5a37:	48 c7 00 00 00 00 00 	movq   $0x0,(%rax)
    5a3e:	c7 40 08 00 00 00 00 	movl   $0x0,0x8(%rax)
    5a45:	48 c7 40 10 00 00 00 	movq   $0x0,0x10(%rax)
    5a4c:	00 
    5a4d:	48 83 c4 08          	add    $0x8,%rsp
    5a51:	c3                   	ret    
    5a52:	66 2e 0f 1f 84 00 00 	cs nopw 0x0(%rax,%rax,1)
    5a59:	00 00 00 
    5a5c:	0f 1f 40 00          	nopl   0x0(%rax)

0000000000005a60 <sgx_mm_mutex_lock>:
    5a60:	f3 0f 1e fa          	endbr64 
    5a64:	53                   	push   %rbx
    5a65:	48 89 fb             	mov    %rdi,%rbx
    5a68:	0f 1f 84 00 00 00 00 	nopl   0x0(%rax,%rax,1)
    5a6f:	00 
    5a70:	48 89 df             	mov    %rbx,%rdi
    5a73:	e8 98 b1 00 00       	call   10c10 <sgx_thread_spin_trylock>
    5a78:	85 c0                	test   %eax,%eax
    5a7a:	75 f4                	jne    5a70 <sgx_mm_mutex_lock+0x10>
    5a7c:	5b                   	pop    %rbx
    5a7d:	c3                   	ret    
    5a7e:	66 90                	xchg   %ax,%ax

0000000000005a80 <sgx_mm_mutex_unlock>:
    5a80:	f3 0f 1e fa          	endbr64 
    5a84:	e9 17 b2 00 00       	jmp    10ca0 <sgx_thread_spin_unlock>
    5a89:	0f 1f 80 00 00 00 00 	nopl   0x0(%rax)

0000000000005a90 <sgx_mm_mutex_destroy>:
    5a90:	f3 0f 1e fa          	endbr64 
    5a94:	55                   	push   %rbp
    5a95:	53                   	push   %rbx
    5a96:	48 89 fb             	mov    %rdi,%rbx
    5a99:	48 83 ec 08          	sub    $0x8,%rsp
    5a9d:	e8 ee b0 00 00       	call   10b90 <sgx_thread_spin_destroy>
    5aa2:	48 89 df             	mov    %rbx,%rdi
    5aa5:	89 c5                	mov    %eax,%ebp
    5aa7:	e8 14 95 00 00       	call   efc0 <dlfree>
    5aac:	48 83 c4 08          	add    $0x8,%rsp
    5ab0:	89 e8                	mov    %ebp,%eax
    5ab2:	5b                   	pop    %rbx
    5ab3:	5d                   	pop    %rbp
    5ab4:	c3                   	ret    
    5ab5:	66 2e 0f 1f 84 00 00 	cs nopw 0x0(%rax,%rax,1)
    5abc:	00 00 00 
    5abf:	90                   	nop

0000000000005ac0 <sgx_mm_is_within_enclave>:
    5ac0:	f3 0f 1e fa          	endbr64 
    5ac4:	48 83 ec 08          	sub    $0x8,%rsp
    5ac8:	e8 33 01 00 00       	call   5c00 <sgx_is_within_enclave>
    5acd:	85 c0                	test   %eax,%eax
    5acf:	0f 95 c0             	setne  %al
    5ad2:	48 83 c4 08          	add    $0x8,%rsp
    5ad6:	c3                   	ret    
    5ad7:	66 0f 1f 84 00 00 00 	nopw   0x0(%rax,%rax,1)
    5ade:	00 00 

0000000000005ae0 <init_optimized_libs>:
    5ae0:	f3 0f 1e fa          	endbr64 
    5ae4:	41 54                	push   %r12
    5ae6:	49 89 d4             	mov    %rdx,%r12
    5ae9:	55                   	push   %rbp
    5aea:	48 89 f5             	mov    %rsi,%rbp
    5aed:	53                   	push   %rbx
    5aee:	48 89 fb             	mov    %rdi,%rbx
    5af1:	e8 0e c6 00 00       	call   12104 <get_enclave_state>
    5af6:	83 f8 01             	cmp    $0x1,%eax
    5af9:	0f 85 d6 00 00 00    	jne    5bd5 <init_optimized_libs+0xf5>
    5aff:	48 b8 ff ff ff ff ff 	movabs $0xffffffffffffff,%rax
    5b06:	ff ff 00 
    5b09:	48 89 da             	mov    %rbx,%rdx
    5b0c:	48 21 c2             	and    %rax,%rdx
    5b0f:	48 39 d8             	cmp    %rbx,%rax
    5b12:	48 0f 42 da          	cmovb  %rdx,%rbx
    5b16:	48 81 fb ff 01 00 00 	cmp    $0x1ff,%rbx
    5b1d:	0f 86 b2 00 00 00    	jbe    5bd5 <init_optimized_libs+0xf5>
    5b23:	f6 c3 20             	test   $0x20,%bl
    5b26:	74 0e                	je     5b36 <init_optimized_libs+0x56>
    5b28:	48 89 d8             	mov    %rbx,%rax
    5b2b:	48 f7 d0             	not    %rax
    5b2e:	a8 1f                	test   $0x1f,%al
    5b30:	0f 85 9f 00 00 00    	jne    5bd5 <init_optimized_libs+0xf5>
    5b36:	f6 c3 40             	test   $0x40,%bl
    5b39:	74 0e                	je     5b49 <init_optimized_libs+0x69>
    5b3b:	48 89 d8             	mov    %rbx,%rax
    5b3e:	48 f7 d0             	not    %rax
    5b41:	a8 3f                	test   $0x3f,%al
    5b43:	0f 85 8c 00 00 00    	jne    5bd5 <init_optimized_libs+0xf5>
    5b49:	f6 c3 80             	test   $0x80,%bl
    5b4c:	74 0a                	je     5b58 <init_optimized_libs+0x78>
    5b4e:	48 89 d8             	mov    %rbx,%rax
    5b51:	48 f7 d0             	not    %rax
    5b54:	a8 7f                	test   $0x7f,%al
    5b56:	75 7d                	jne    5bd5 <init_optimized_libs+0xf5>
    5b58:	f6 c7 01             	test   $0x1,%bh
    5b5b:	74 0b                	je     5b68 <init_optimized_libs+0x88>
    5b5d:	0f b6 c3             	movzbl %bl,%eax
    5b60:	48 3d ff 00 00 00    	cmp    $0xff,%rax
    5b66:	75 6d                	jne    5bd5 <init_optimized_libs+0xf5>
    5b68:	f6 c7 02             	test   $0x2,%bh
    5b6b:	74 0d                	je     5b7a <init_optimized_libs+0x9a>
    5b6d:	48 89 d8             	mov    %rbx,%rax
    5b70:	48 f7 d0             	not    %rax
    5b73:	a9 ff 01 00 00       	test   $0x1ff,%eax
    5b78:	75 5b                	jne    5bd5 <init_optimized_libs+0xf5>
    5b7a:	f6 c7 04             	test   $0x4,%bh
    5b7d:	75 49                	jne    5bc8 <init_optimized_libs+0xe8>
    5b7f:	4c 89 e0             	mov    %r12,%rax
    5b82:	48 f7 d0             	not    %rax
    5b85:	a8 06                	test   $0x6,%al
    5b87:	74 57                	je     5be0 <init_optimized_libs+0x100>
    5b89:	48 b8 ff 7f 12 86 08 	movabs $0xfffe200886127fff,%rax
    5b90:	20 fe ff 
    5b93:	48 21 c3             	and    %rax,%rbx
    5b96:	4c 8d 25 93 22 01 00 	lea    0x12293(%rip),%r12        # 17e30 <g_cpu_feature_indicator>
    5b9d:	48 89 df             	mov    %rbx,%rdi
    5ba0:	49 89 1c 24          	mov    %rbx,(%r12)
    5ba4:	e8 b7 ae 00 00       	call   10a60 <sgx_init_string_lib>
    5ba9:	85 c0                	test   %eax,%eax
    5bab:	75 28                	jne    5bd5 <init_optimized_libs+0xf5>
    5bad:	49 8b 3c 24          	mov    (%r12),%rdi
    5bb1:	48 89 ee             	mov    %rbp,%rsi
    5bb4:	e8 27 b5 00 00       	call   110e0 <sgx_init_crypto_lib>
    5bb9:	5b                   	pop    %rbx
    5bba:	5d                   	pop    %rbp
    5bbb:	f7 d8                	neg    %eax
    5bbd:	41 5c                	pop    %r12
    5bbf:	19 c0                	sbb    %eax,%eax
    5bc1:	c3                   	ret    
    5bc2:	66 0f 1f 44 00 00    	nopw   0x0(%rax,%rax,1)
    5bc8:	48 89 d8             	mov    %rbx,%rax
    5bcb:	48 f7 d0             	not    %rax
    5bce:	a9 ff 03 00 00       	test   $0x3ff,%eax
    5bd3:	74 aa                	je     5b7f <init_optimized_libs+0x9f>
    5bd5:	5b                   	pop    %rbx
    5bd6:	b8 ff ff ff ff       	mov    $0xffffffff,%eax
    5bdb:	5d                   	pop    %rbp
    5bdc:	41 5c                	pop    %r12
    5bde:	c3                   	ret    
    5bdf:	90                   	nop
    5be0:	4c 89 e0             	mov    %r12,%rax
    5be3:	48 f7 d0             	not    %rax
    5be6:	a8 e0                	test   $0xe0,%al
    5be8:	74 ac                	je     5b96 <init_optimized_libs+0xb6>
    5bea:	48 b8 ff ff ff b6 18 	movabs $0xfffee018b6ffffff,%rax
    5bf1:	e0 fe ff 
    5bf4:	48 21 c3             	and    %rax,%rbx
    5bf7:	eb 9d                	jmp    5b96 <init_optimized_libs+0xb6>
    5bf9:	0f 1f 80 00 00 00 00 	nopl   0x0(%rax)

0000000000005c00 <sgx_is_within_enclave>:
    5c00:	f3 0f 1e fa          	endbr64 
    5c04:	48 8d 05 15 22 01 00 	lea    0x12215(%rip),%rax        # 17e20 <g_enclave_base>
    5c0b:	48 8b 10             	mov    (%rax),%rdx
    5c0e:	48 8d 05 03 22 01 00 	lea    0x12203(%rip),%rax        # 17e18 <g_enclave_size>
    5c15:	48 8b 08             	mov    (%rax),%rcx
    5c18:	48 01 d1             	add    %rdx,%rcx
    5c1b:	48 89 c8             	mov    %rcx,%rax
    5c1e:	48 83 e8 01          	sub    $0x1,%rax
    5c22:	48 85 f6             	test   %rsi,%rsi
    5c25:	74 21                	je     5c48 <sgx_is_within_enclave+0x48>
    5c27:	48 83 ee 01          	sub    $0x1,%rsi
    5c2b:	48 01 fe             	add    %rdi,%rsi
    5c2e:	0f 93 c1             	setae  %cl
    5c31:	48 39 d7             	cmp    %rdx,%rdi
    5c34:	0f 93 c2             	setae  %dl
    5c37:	21 ca                	and    %ecx,%edx
    5c39:	48 39 f0             	cmp    %rsi,%rax
    5c3c:	0f 93 c0             	setae  %al
    5c3f:	0f b6 c0             	movzbl %al,%eax
    5c42:	21 d0                	and    %edx,%eax
    5c44:	c3                   	ret    
    5c45:	0f 1f 00             	nopl   (%rax)
    5c48:	48 89 fe             	mov    %rdi,%rsi
    5c4b:	b9 01 00 00 00       	mov    $0x1,%ecx
    5c50:	eb df                	jmp    5c31 <sgx_is_within_enclave+0x31>
    5c52:	66 2e 0f 1f 84 00 00 	cs nopw 0x0(%rax,%rax,1)
    5c59:	00 00 00 
    5c5c:	0f 1f 40 00          	nopl   0x0(%rax)

0000000000005c60 <sgx_is_outside_enclave>:
    5c60:	f3 0f 1e fa          	endbr64 
    5c64:	48 85 f6             	test   %rsi,%rsi
    5c67:	74 17                	je     5c80 <sgx_is_outside_enclave+0x20>
    5c69:	48 83 ee 01          	sub    $0x1,%rsi
    5c6d:	b8 00 00 00 00       	mov    $0x0,%eax
    5c72:	48 01 fe             	add    %rdi,%rsi
    5c75:	73 0c                	jae    5c83 <sgx_is_outside_enclave+0x23>
    5c77:	c3                   	ret    
    5c78:	0f 1f 84 00 00 00 00 	nopl   0x0(%rax,%rax,1)
    5c7f:	00 
    5c80:	48 89 fe             	mov    %rdi,%rsi
    5c83:	48 8d 05 96 21 01 00 	lea    0x12196(%rip),%rax        # 17e20 <g_enclave_base>
    5c8a:	48 8b 10             	mov    (%rax),%rdx
    5c8d:	48 8d 05 84 21 01 00 	lea    0x12184(%rip),%rax        # 17e18 <g_enclave_size>
    5c94:	48 8b 08             	mov    (%rax),%rcx
    5c97:	48 01 d1             	add    %rdx,%rcx
    5c9a:	48 89 c8             	mov    %rcx,%rax
    5c9d:	48 83 e8 01          	sub    $0x1,%rax
    5ca1:	48 39 f8             	cmp    %rdi,%rax
    5ca4:	0f 92 c0             	setb   %al
    5ca7:	48 39 d6             	cmp    %rdx,%rsi
    5caa:	0f 92 c2             	setb   %dl
    5cad:	09 d0                	or     %edx,%eax
    5caf:	0f b6 c0             	movzbl %al,%eax
    5cb2:	c3                   	ret    
    5cb3:	66 2e 0f 1f 84 00 00 	cs nopw 0x0(%rax,%rax,1)
    5cba:	00 00 00 
    5cbd:	0f 1f 00             	nopl   (%rax)

0000000000005cc0 <sgx_ocalloc>:
    5cc0:	f3 0f 1e fa          	endbr64 
    5cc4:	53                   	push   %rbx
    5cc5:	48 89 fb             	mov    %rdi,%rbx
    5cc8:	48 83 ec 10          	sub    $0x10,%rsp
    5ccc:	e8 72 c4 00 00       	call   12143 <get_thread_data>
    5cd1:	48 8d 15 48 21 01 00 	lea    0x12148(%rip),%rdx        # 17e20 <g_enclave_base>
    5cd8:	48 8b 70 20          	mov    0x20(%rax),%rsi
    5cdc:	48 8b 3a             	mov    (%rdx),%rdi
    5cdf:	48 8d 15 32 21 01 00 	lea    0x12132(%rip),%rdx        # 17e18 <g_enclave_size>
    5ce6:	48 8b 86 90 00 00 00 	mov    0x90(%rsi),%rax
    5ced:	48 8b 0a             	mov    (%rdx),%rcx
    5cf0:	48 89 c2             	mov    %rax,%rdx
    5cf3:	48 83 c2 07          	add    $0x7,%rdx
    5cf7:	72 33                	jb     5d2c <sgx_ocalloc+0x6c>
    5cf9:	4c 8d 44 0f ff       	lea    -0x1(%rdi,%rcx,1),%r8
    5cfe:	48 39 fa             	cmp    %rdi,%rdx
    5d01:	72 05                	jb     5d08 <sgx_ocalloc+0x48>
    5d03:	49 39 c0             	cmp    %rax,%r8
    5d06:	73 24                	jae    5d2c <sgx_ocalloc+0x6c>
    5d08:	48 39 d8             	cmp    %rbx,%rax
    5d0b:	72 1f                	jb     5d2c <sgx_ocalloc+0x6c>
    5d0d:	48 89 c2             	mov    %rax,%rdx
    5d10:	48 29 da             	sub    %rbx,%rdx
    5d13:	48 89 d1             	mov    %rdx,%rcx
    5d16:	48 83 e1 f0          	and    $0xfffffffffffffff0,%rcx
    5d1a:	48 85 db             	test   %rbx,%rbx
    5d1d:	75 19                	jne    5d38 <sgx_ocalloc+0x78>
    5d1f:	48 89 cb             	mov    %rcx,%rbx
    5d22:	48 39 fb             	cmp    %rdi,%rbx
    5d25:	72 21                	jb     5d48 <sgx_ocalloc+0x88>
    5d27:	49 39 c8             	cmp    %rcx,%r8
    5d2a:	72 1c                	jb     5d48 <sgx_ocalloc+0x88>
    5d2c:	e8 06 c8 00 00       	call   12537 <abort>
    5d31:	0f 1f 80 00 00 00 00 	nopl   0x0(%rax)
    5d38:	48 83 eb 01          	sub    $0x1,%rbx
    5d3c:	48 01 cb             	add    %rcx,%rbx
    5d3f:	72 eb                	jb     5d2c <sgx_ocalloc+0x6c>
    5d41:	eb df                	jmp    5d22 <sgx_ocalloc+0x62>
    5d43:	0f 1f 44 00 00       	nopl   0x0(%rax,%rax,1)
    5d48:	48 83 e8 01          	sub    $0x1,%rax
    5d4c:	48 25 00 f0 ff ff    	and    $0xfffffffffffff000,%rax
    5d52:	48 81 e2 00 f0 ff ff 	and    $0xfffffffffffff000,%rdx
    5d59:	75 1d                	jne    5d78 <sgx_ocalloc+0xb8>
    5d5b:	eb cf                	jmp    5d2c <sgx_ocalloc+0x6c>
    5d5d:	0f 1f 00             	nopl   (%rax)
    5d60:	48 8b 44 24 08       	mov    0x8(%rsp),%rax
    5d65:	48 8b 44 24 08       	mov    0x8(%rsp),%rax
    5d6a:	c6 00 00             	movb   $0x0,(%rax)
    5d6d:	48 8b 44 24 08       	mov    0x8(%rsp),%rax
    5d72:	48 2d 00 10 00 00    	sub    $0x1000,%rax
    5d78:	48 89 44 24 08       	mov    %rax,0x8(%rsp)
    5d7d:	48 8b 44 24 08       	mov    0x8(%rsp),%rax
    5d82:	48 39 d0             	cmp    %rdx,%rax
    5d85:	73 d9                	jae    5d60 <sgx_ocalloc+0xa0>
    5d87:	48 89 8e 90 00 00 00 	mov    %rcx,0x90(%rsi)
    5d8e:	48 83 c4 10          	add    $0x10,%rsp
    5d92:	48 89 c8             	mov    %rcx,%rax
    5d95:	5b                   	pop    %rbx
    5d96:	c3                   	ret    
    5d97:	66 0f 1f 84 00 00 00 	nopw   0x0(%rax,%rax,1)
    5d9e:	00 00 

0000000000005da0 <sgx_ocfree>:
    5da0:	f3 0f 1e fa          	endbr64 
    5da4:	48 83 ec 08          	sub    $0x8,%rsp
    5da8:	e8 96 c3 00 00       	call   12143 <get_thread_data>
    5dad:	48 8d 15 6c 20 01 00 	lea    0x1206c(%rip),%rdx        # 17e20 <g_enclave_base>
    5db4:	48 8d 0d 5d 20 01 00 	lea    0x1205d(%rip),%rcx        # 17e18 <g_enclave_size>
    5dbb:	48 8b 70 20          	mov    0x20(%rax),%rsi
    5dbf:	48 8b 40 08          	mov    0x8(%rax),%rax
    5dc3:	48 8b 12             	mov    (%rdx),%rdx
    5dc6:	48 8b 09             	mov    (%rcx),%rcx
    5dc9:	48 8b 40 e8          	mov    -0x18(%rax),%rax
    5dcd:	48 89 c7             	mov    %rax,%rdi
    5dd0:	48 83 c7 07          	add    $0x7,%rdi
    5dd4:	72 0f                	jb     5de5 <sgx_ocfree+0x45>
    5dd6:	48 8d 4c 0a ff       	lea    -0x1(%rdx,%rcx,1),%rcx
    5ddb:	48 39 c1             	cmp    %rax,%rcx
    5dde:	72 10                	jb     5df0 <sgx_ocfree+0x50>
    5de0:	48 39 d7             	cmp    %rdx,%rdi
    5de3:	72 0b                	jb     5df0 <sgx_ocfree+0x50>
    5de5:	e8 4d c7 00 00       	call   12537 <abort>
    5dea:	66 0f 1f 44 00 00    	nopw   0x0(%rax,%rax,1)
    5df0:	48 89 86 90 00 00 00 	mov    %rax,0x90(%rsi)
    5df7:	48 83 c4 08          	add    $0x8,%rsp
    5dfb:	c3                   	ret    
    5dfc:	0f 1f 40 00          	nopl   0x0(%rax)

0000000000005e00 <sgx_read_rand>:
    5e00:	f3 0f 1e fa          	endbr64 
    5e04:	41 55                	push   %r13
    5e06:	41 54                	push   %r12
    5e08:	55                   	push   %rbp
    5e09:	53                   	push   %rbx
    5e0a:	48 83 ec 18          	sub    $0x18,%rsp
    5e0e:	64 48 8b 04 25 28 00 	mov    %fs:0x28,%rax
    5e15:	00 00 
    5e17:	48 89 44 24 08       	mov    %rax,0x8(%rsp)
    5e1c:	31 c0                	xor    %eax,%eax
    5e1e:	48 85 ff             	test   %rdi,%rdi
    5e21:	0f 84 f9 00 00 00    	je     5f20 <sgx_read_rand+0x120>
    5e27:	48 89 f3             	mov    %rsi,%rbx
    5e2a:	48 85 f6             	test   %rsi,%rsi
    5e2d:	0f 84 ed 00 00 00    	je     5f20 <sgx_read_rand+0x120>
    5e33:	48 8d 05 e6 1f 01 00 	lea    0x11fe6(%rip),%rax        # 17e20 <g_enclave_base>
    5e3a:	48 89 fd             	mov    %rdi,%rbp
    5e3d:	31 ff                	xor    %edi,%edi
    5e3f:	48 8b 08             	mov    (%rax),%rcx
    5e42:	48 8d 05 cf 1f 01 00 	lea    0x11fcf(%rip),%rax        # 17e18 <g_enclave_size>
    5e49:	48 8b 10             	mov    (%rax),%rdx
    5e4c:	48 8d 46 ff          	lea    -0x1(%rsi),%rax
    5e50:	48 01 ca             	add    %rcx,%rdx
    5e53:	48 83 ea 01          	sub    $0x1,%rdx
    5e57:	48 01 e8             	add    %rbp,%rax
    5e5a:	40 0f 92 c7          	setb   %dil
    5e5e:	48 39 c2             	cmp    %rax,%rdx
    5e61:	41 0f 93 c0          	setae  %r8b
    5e65:	48 85 ff             	test   %rdi,%rdi
    5e68:	40 0f 94 c6          	sete   %sil
    5e6c:	41 84 f0             	test   %sil,%r8b
    5e6f:	74 05                	je     5e76 <sgx_read_rand+0x76>
    5e71:	48 39 cd             	cmp    %rcx,%rbp
    5e74:	73 42                	jae    5eb8 <sgx_read_rand+0xb8>
    5e76:	be 02 00 00 00       	mov    $0x2,%esi
    5e7b:	48 85 ff             	test   %rdi,%rdi
    5e7e:	74 28                	je     5ea8 <sgx_read_rand+0xa8>
    5e80:	48 8b 44 24 08       	mov    0x8(%rsp),%rax
    5e85:	64 48 2b 04 25 28 00 	sub    %fs:0x28,%rax
    5e8c:	00 00 
    5e8e:	0f 85 96 00 00 00    	jne    5f2a <sgx_read_rand+0x12a>
    5e94:	48 83 c4 18          	add    $0x18,%rsp
    5e98:	89 f0                	mov    %esi,%eax
    5e9a:	5b                   	pop    %rbx
    5e9b:	5d                   	pop    %rbp
    5e9c:	41 5c                	pop    %r12
    5e9e:	41 5d                	pop    %r13
    5ea0:	c3                   	ret    
    5ea1:	0f 1f 80 00 00 00 00 	nopl   0x0(%rax)
    5ea8:	48 39 c8             	cmp    %rcx,%rax
    5eab:	72 0b                	jb     5eb8 <sgx_read_rand+0xb8>
    5ead:	48 39 d5             	cmp    %rdx,%rbp
    5eb0:	76 ce                	jbe    5e80 <sgx_read_rand+0x80>
    5eb2:	66 0f 1f 44 00 00    	nopw   0x0(%rax,%rax,1)
    5eb8:	c7 44 24 04 00 00 00 	movl   $0x0,0x4(%rsp)
    5ebf:	00 
    5ec0:	4c 8d 6c 24 04       	lea    0x4(%rsp),%r13
    5ec5:	4c 89 ef             	mov    %r13,%rdi
    5ec8:	e8 47 c6 00 00       	call   12514 <do_rdrand>
    5ecd:	85 c0                	test   %eax,%eax
    5ecf:	74 3f                	je     5f10 <sgx_read_rand+0x110>
    5ed1:	41 bc 04 00 00 00    	mov    $0x4,%r12d
    5ed7:	48 89 ef             	mov    %rbp,%rdi
    5eda:	4c 89 ee             	mov    %r13,%rsi
    5edd:	4c 39 e3             	cmp    %r12,%rbx
    5ee0:	4c 0f 46 e3          	cmovbe %rbx,%r12
    5ee4:	4c 89 e2             	mov    %r12,%rdx
    5ee7:	4c 01 e5             	add    %r12,%rbp
    5eea:	e8 81 a8 00 00       	call   10770 <memcpy>
    5eef:	4c 29 e3             	sub    %r12,%rbx
    5ef2:	75 d1                	jne    5ec5 <sgx_read_rand+0xc5>
    5ef4:	be 04 00 00 00       	mov    $0x4,%esi
    5ef9:	b9 04 00 00 00       	mov    $0x4,%ecx
    5efe:	31 d2                	xor    %edx,%edx
    5f00:	4c 89 ef             	mov    %r13,%rdi
    5f03:	e8 b8 aa 00 00       	call   109c0 <memset_s>
    5f08:	31 f6                	xor    %esi,%esi
    5f0a:	e9 71 ff ff ff       	jmp    5e80 <sgx_read_rand+0x80>
    5f0f:	90                   	nop
    5f10:	be 01 00 00 00       	mov    $0x1,%esi
    5f15:	e9 66 ff ff ff       	jmp    5e80 <sgx_read_rand+0x80>
    5f1a:	66 0f 1f 44 00 00    	nopw   0x0(%rax,%rax,1)
    5f20:	be 02 00 00 00       	mov    $0x2,%esi
    5f25:	e9 56 ff ff ff       	jmp    5e80 <sgx_read_rand+0x80>
    5f2a:	e8 d1 ab 00 00       	call   10b00 <__stack_chk_fail>
    5f2f:	90                   	nop

0000000000005f30 <check_static_stack_canary>:
    5f30:	f3 0f 1e fa          	endbr64 
    5f34:	48 8d 05 cd 1e 01 00 	lea    0x11ecd(%rip),%rax        # 17e08 <__intel_security_cookie>
    5f3b:	48 8b 00             	mov    (%rax),%rax
    5f3e:	48 39 87 08 fc fe ff 	cmp    %rax,-0x103f8(%rdi)
    5f45:	0f 95 c0             	setne  %al
    5f48:	0f b6 c0             	movzbl %al,%eax
    5f4b:	f7 d8                	neg    %eax
    5f4d:	c3                   	ret    
    5f4e:	66 90                	xchg   %ax,%ax

0000000000005f50 <sgx_rdpkru>:
    5f50:	f3 0f 1e fa          	endbr64 
    5f54:	53                   	push   %rbx
    5f55:	48 89 fb             	mov    %rdi,%rbx
    5f58:	e8 63 18 00 00       	call   77c0 <is_pkru_enabled>
    5f5d:	89 c2                	mov    %eax,%edx
    5f5f:	31 c0                	xor    %eax,%eax
    5f61:	84 d2                	test   %dl,%dl
    5f63:	74 0c                	je     5f71 <sgx_rdpkru+0x21>
    5f65:	89 c1                	mov    %eax,%ecx
    5f67:	0f 01 ee             	rdpkru 
    5f6a:	89 03                	mov    %eax,(%rbx)
    5f6c:	b8 01 00 00 00       	mov    $0x1,%eax
    5f71:	5b                   	pop    %rbx
    5f72:	c3                   	ret    
    5f73:	66 2e 0f 1f 84 00 00 	cs nopw 0x0(%rax,%rax,1)
    5f7a:	00 00 00 
    5f7d:	0f 1f 00             	nopl   (%rax)

0000000000005f80 <sgx_wrpkru>:
    5f80:	f3 0f 1e fa          	endbr64 
    5f84:	53                   	push   %rbx
    5f85:	89 fb                	mov    %edi,%ebx
    5f87:	e8 34 18 00 00       	call   77c0 <is_pkru_enabled>
    5f8c:	31 d2                	xor    %edx,%edx
    5f8e:	84 c0                	test   %al,%al
    5f90:	74 0c                	je     5f9e <sgx_wrpkru+0x1e>
    5f92:	89 d8                	mov    %ebx,%eax
    5f94:	89 d1                	mov    %edx,%ecx
    5f96:	0f 01 ef             	wrpkru 
    5f99:	ba 01 00 00 00       	mov    $0x1,%edx
    5f9e:	89 d0                	mov    %edx,%eax
    5fa0:	5b                   	pop    %rbx
    5fa1:	c3                   	ret    
    5fa2:	66 2e 0f 1f 84 00 00 	cs nopw 0x0(%rax,%rax,1)
    5fa9:	00 00 00 
    5fac:	0f 1f 40 00          	nopl   0x0(%rax)

0000000000005fb0 <_ZL25check_dynamic_entry_rangePvmtmP24dynamic_flags_attributes.constprop.0>:
    5fb0:	41 55                	push   %r13
    5fb2:	49 89 cd             	mov    %rcx,%r13
    5fb5:	41 54                	push   %r12
    5fb7:	55                   	push   %rbp
    5fb8:	53                   	push   %rbx
    5fb9:	48 83 ec 08          	sub    $0x8,%rsp
    5fbd:	48 8d 0d bc d1 00 00 	lea    0xd1bc(%rip),%rcx        # 13180 <g_global_data>
    5fc4:	8b 81 58 01 00 00    	mov    0x158(%rcx),%eax
    5fca:	85 c0                	test   %eax,%eax
    5fcc:	0f 84 8e 00 00 00    	je     6060 <_ZL25check_dynamic_entry_rangePvmtmP24dynamic_flags_attributes.constprop.0+0xb0>
    5fd2:	48 89 d3             	mov    %rdx,%rbx
    5fd5:	49 89 fc             	mov    %rdi,%r12
    5fd8:	31 d2                	xor    %edx,%edx
    5fda:	eb 11                	jmp    5fed <_ZL25check_dynamic_entry_rangePvmtmP24dynamic_flags_attributes.constprop.0+0x3d>
    5fdc:	0f 1f 40 00          	nopl   0x0(%rax)
    5fe0:	8b 81 58 01 00 00    	mov    0x158(%rcx),%eax
    5fe6:	83 c2 01             	add    $0x1,%edx
    5fe9:	39 c2                	cmp    %eax,%edx
    5feb:	73 73                	jae    6060 <_ZL25check_dynamic_entry_rangePvmtmP24dynamic_flags_attributes.constprop.0+0xb0>
    5fed:	89 d0                	mov    %edx,%eax
    5fef:	48 83 c0 0b          	add    $0xb,%rax
    5ff3:	48 c1 e0 05          	shl    $0x5,%rax
    5ff7:	48 01 c8             	add    %rcx,%rax
    5ffa:	0f b7 00             	movzwl (%rax),%eax
    5ffd:	66 39 c6             	cmp    %ax,%si
    6000:	75 de                	jne    5fe0 <_ZL25check_dynamic_entry_rangePvmtmP24dynamic_flags_attributes.constprop.0+0x30>
    6002:	8d 42 0b             	lea    0xb(%rdx),%eax
    6005:	48 c1 e0 05          	shl    $0x5,%rax
    6009:	48 01 c1             	add    %rax,%rcx
    600c:	48 89 cd             	mov    %rcx,%rbp
    600f:	74 4f                	je     6060 <_ZL25check_dynamic_entry_rangePvmtmP24dynamic_flags_attributes.constprop.0+0xb0>
    6011:	e8 e2 c0 00 00       	call   120f8 <get_enclave_base>
    6016:	48 8b 55 08          	mov    0x8(%rbp),%rdx
    601a:	48 01 da             	add    %rbx,%rdx
    601d:	48 01 d0             	add    %rdx,%rax
    6020:	8b 55 04             	mov    0x4(%rbp),%edx
    6023:	49 39 c4             	cmp    %rax,%r12
    6026:	72 38                	jb     6060 <_ZL25check_dynamic_entry_rangePvmtmP24dynamic_flags_attributes.constprop.0+0xb0>
    6028:	48 c1 e2 0c          	shl    $0xc,%rdx
    602c:	49 81 c4 00 10 00 00 	add    $0x1000,%r12
    6033:	48 01 c2             	add    %rax,%rdx
    6036:	4c 39 e2             	cmp    %r12,%rdx
    6039:	72 25                	jb     6060 <_ZL25check_dynamic_entry_rangePvmtmP24dynamic_flags_attributes.constprop.0+0xb0>
    603b:	4d 85 ed             	test   %r13,%r13
    603e:	74 11                	je     6051 <_ZL25check_dynamic_entry_rangePvmtmP24dynamic_flags_attributes.constprop.0+0xa1>
    6040:	48 8b 45 18          	mov    0x18(%rbp),%rax
    6044:	49 89 45 00          	mov    %rax,0x0(%r13)
    6048:	0f b7 45 02          	movzwl 0x2(%rbp),%eax
    604c:	66 41 89 45 08       	mov    %ax,0x8(%r13)
    6051:	31 c0                	xor    %eax,%eax
    6053:	48 83 c4 08          	add    $0x8,%rsp
    6057:	5b                   	pop    %rbx
    6058:	5d                   	pop    %rbp
    6059:	41 5c                	pop    %r12
    605b:	41 5d                	pop    %r13
    605d:	c3                   	ret    
    605e:	66 90                	xchg   %ax,%ax
    6060:	b8 ff ff ff ff       	mov    $0xffffffff,%eax
    6065:	eb ec                	jmp    6053 <_ZL25check_dynamic_entry_rangePvmtmP24dynamic_flags_attributes.constprop.0+0xa3>
    6067:	66 0f 1f 84 00 00 00 	nopw   0x0(%rax,%rax,1)
    606e:	00 00 

0000000000006070 <_ZL19check_dynamic_rangePvmPmP24dynamic_flags_attributes.constprop.0>:
    6070:	48 81 ff ff ef ff ff 	cmp    $0xffffffffffffefff,%rdi
    6077:	0f 87 c3 01 00 00    	ja     6240 <_ZL19check_dynamic_rangePvmPmP24dynamic_flags_attributes.constprop.0+0x1d0>
    607d:	41 57                	push   %r15
    607f:	41 56                	push   %r14
    6081:	41 55                	push   %r13
    6083:	41 54                	push   %r12
    6085:	49 89 f4             	mov    %rsi,%r12
    6088:	55                   	push   %rbp
    6089:	48 89 d5             	mov    %rdx,%rbp
    608c:	53                   	push   %rbx
    608d:	48 89 fb             	mov    %rdi,%rbx
    6090:	48 83 ec 08          	sub    $0x8,%rsp
    6094:	e8 87 13 00 00       	call   7420 <get_heap_base>
    6099:	49 89 c5             	mov    %rax,%r13
    609c:	e8 0f 14 00 00       	call   74b0 <get_heap_min_size>
    60a1:	49 01 c5             	add    %rax,%r13
    60a4:	e8 97 13 00 00       	call   7440 <get_heap_size>
    60a9:	49 89 c6             	mov    %rax,%r14
    60ac:	e8 ff 13 00 00       	call   74b0 <get_heap_min_size>
    60b1:	49 29 c6             	sub    %rax,%r14
    60b4:	4c 39 eb             	cmp    %r13,%rbx
    60b7:	72 37                	jb     60f0 <_ZL19check_dynamic_rangePvmPmP24dynamic_flags_attributes.constprop.0+0x80>
    60b9:	48 8d 83 00 10 00 00 	lea    0x1000(%rbx),%rax
    60c0:	4d 01 f5             	add    %r14,%r13
    60c3:	49 39 c5             	cmp    %rax,%r13
    60c6:	72 28                	jb     60f0 <_ZL19check_dynamic_rangePvmPmP24dynamic_flags_attributes.constprop.0+0x80>
    60c8:	48 85 ed             	test   %rbp,%rbp
    60cb:	74 11                	je     60de <_ZL19check_dynamic_rangePvmPmP24dynamic_flags_attributes.constprop.0+0x6e>
    60cd:	b8 08 00 00 00       	mov    $0x8,%eax
    60d2:	48 c7 45 00 03 02 00 	movq   $0x203,0x0(%rbp)
    60d9:	00 
    60da:	66 89 45 08          	mov    %ax,0x8(%rbp)
    60de:	31 c0                	xor    %eax,%eax
    60e0:	48 83 c4 08          	add    $0x8,%rsp
    60e4:	5b                   	pop    %rbx
    60e5:	5d                   	pop    %rbp
    60e6:	41 5c                	pop    %r12
    60e8:	41 5d                	pop    %r13
    60ea:	41 5e                	pop    %r14
    60ec:	41 5f                	pop    %r15
    60ee:	c3                   	ret    
    60ef:	90                   	nop
    60f0:	31 d2                	xor    %edx,%edx
    60f2:	48 89 e9             	mov    %rbp,%rcx
    60f5:	be 07 00 00 00       	mov    $0x7,%esi
    60fa:	48 89 df             	mov    %rbx,%rdi
    60fd:	e8 ae fe ff ff       	call   5fb0 <_ZL25check_dynamic_entry_rangePvmtmP24dynamic_flags_attributes.constprop.0>
    6102:	85 c0                	test   %eax,%eax
    6104:	74 d8                	je     60de <_ZL19check_dynamic_rangePvmPmP24dynamic_flags_attributes.constprop.0+0x6e>
    6106:	48 8d 15 5b 1d 01 00 	lea    0x11d5b(%rip),%rdx        # 17e68 <rsrv_mem_size>
    610d:	48 8d 05 5c 1d 01 00 	lea    0x11d5c(%rip),%rax        # 17e70 <rsrv_mem_base>
    6114:	48 8b 0a             	mov    (%rdx),%rcx
    6117:	48 8d 15 42 1d 01 00 	lea    0x11d42(%rip),%rdx        # 17e60 <rsrv_mem_min_size>
    611e:	48 8b 00             	mov    (%rax),%rax
    6121:	48 8b 32             	mov    (%rdx),%rsi
    6124:	48 01 c6             	add    %rax,%rsi
    6127:	48 39 f3             	cmp    %rsi,%rbx
    612a:	72 0f                	jb     613b <_ZL19check_dynamic_rangePvmPmP24dynamic_flags_attributes.constprop.0+0xcb>
    612c:	48 8d 93 00 10 00 00 	lea    0x1000(%rbx),%rdx
    6133:	48 01 c8             	add    %rcx,%rax
    6136:	48 39 d0             	cmp    %rdx,%rax
    6139:	73 8d                	jae    60c8 <_ZL19check_dynamic_rangePvmPmP24dynamic_flags_attributes.constprop.0+0x58>
    613b:	48 8d 0d 3e d0 00 00 	lea    0xd03e(%rip),%rcx        # 13180 <g_global_data>
    6142:	31 d2                	xor    %edx,%edx
    6144:	8b 81 58 01 00 00    	mov    0x158(%rcx),%eax
    614a:	85 c0                	test   %eax,%eax
    614c:	74 25                	je     6173 <_ZL19check_dynamic_rangePvmPmP24dynamic_flags_attributes.constprop.0+0x103>
    614e:	66 90                	xchg   %ax,%ax
    6150:	89 d0                	mov    %edx,%eax
    6152:	48 83 c0 0b          	add    $0xb,%rax
    6156:	48 c1 e0 05          	shl    $0x5,%rax
    615a:	48 01 c8             	add    %rcx,%rax
    615d:	0f b7 00             	movzwl (%rax),%eax
    6160:	66 3d 13 10          	cmp    $0x1013,%ax
    6164:	74 42                	je     61a8 <_ZL19check_dynamic_rangePvmPmP24dynamic_flags_attributes.constprop.0+0x138>
    6166:	8b 81 58 01 00 00    	mov    0x158(%rcx),%eax
    616c:	83 c2 01             	add    $0x1,%edx
    616f:	39 c2                	cmp    %eax,%edx
    6171:	72 dd                	jb     6150 <_ZL19check_dynamic_rangePvmPmP24dynamic_flags_attributes.constprop.0+0xe0>
    6173:	41 bd 0e 00 00 00    	mov    $0xe,%r13d
    6179:	31 d2                	xor    %edx,%edx
    617b:	48 89 e9             	mov    %rbp,%rcx
    617e:	44 89 ee             	mov    %r13d,%esi
    6181:	48 89 df             	mov    %rbx,%rdi
    6184:	e8 27 fe ff ff       	call   5fb0 <_ZL25check_dynamic_entry_rangePvmtmP24dynamic_flags_attributes.constprop.0>
    6189:	85 c0                	test   %eax,%eax
    618b:	0f 84 96 00 00 00    	je     6227 <_ZL19check_dynamic_rangePvmPmP24dynamic_flags_attributes.constprop.0+0x1b7>
    6191:	41 83 c5 01          	add    $0x1,%r13d
    6195:	41 83 fd 13          	cmp    $0x13,%r13d
    6199:	75 de                	jne    6179 <_ZL19check_dynamic_rangePvmPmP24dynamic_flags_attributes.constprop.0+0x109>
    619b:	b8 ff ff ff ff       	mov    $0xffffffff,%eax
    61a0:	e9 3b ff ff ff       	jmp    60e0 <_ZL19check_dynamic_rangePvmPmP24dynamic_flags_attributes.constprop.0+0x70>
    61a5:	0f 1f 00             	nopl   (%rax)
    61a8:	8d 42 0b             	lea    0xb(%rdx),%eax
    61ab:	41 bd 0e 00 00 00    	mov    $0xe,%r13d
    61b1:	48 c1 e0 05          	shl    $0x5,%rax
    61b5:	48 01 c1             	add    %rax,%rcx
    61b8:	49 89 ce             	mov    %rcx,%r14
    61bb:	74 bc                	je     6179 <_ZL19check_dynamic_rangePvmPmP24dynamic_flags_attributes.constprop.0+0x109>
    61bd:	41 8b 46 04          	mov    0x4(%r14),%eax
    61c1:	45 31 ff             	xor    %r15d,%r15d
    61c4:	83 f8 ff             	cmp    $0xffffffff,%eax
    61c7:	75 17                	jne    61e0 <_ZL19check_dynamic_rangePvmPmP24dynamic_flags_attributes.constprop.0+0x170>
    61c9:	eb 4d                	jmp    6218 <_ZL19check_dynamic_rangePvmPmP24dynamic_flags_attributes.constprop.0+0x1a8>
    61cb:	0f 1f 44 00 00       	nopl   0x0(%rax,%rax,1)
    61d0:	41 8b 46 04          	mov    0x4(%r14),%eax
    61d4:	49 83 c7 01          	add    $0x1,%r15
    61d8:	83 c0 01             	add    $0x1,%eax
    61db:	41 39 c7             	cmp    %eax,%r15d
    61de:	73 38                	jae    6218 <_ZL19check_dynamic_rangePvmPmP24dynamic_flags_attributes.constprop.0+0x1a8>
    61e0:	49 8b 56 08          	mov    0x8(%r14),%rdx
    61e4:	48 89 e9             	mov    %rbp,%rcx
    61e7:	44 89 ee             	mov    %r13d,%esi
    61ea:	48 89 df             	mov    %rbx,%rdi
    61ed:	49 0f af d7          	imul   %r15,%rdx
    61f1:	e8 ba fd ff ff       	call   5fb0 <_ZL25check_dynamic_entry_rangePvmtmP24dynamic_flags_attributes.constprop.0>
    61f6:	85 c0                	test   %eax,%eax
    61f8:	75 d6                	jne    61d0 <_ZL19check_dynamic_rangePvmPmP24dynamic_flags_attributes.constprop.0+0x160>
    61fa:	4d 85 e4             	test   %r12,%r12
    61fd:	0f 84 db fe ff ff    	je     60de <_ZL19check_dynamic_rangePvmPmP24dynamic_flags_attributes.constprop.0+0x6e>
    6203:	49 8b 46 08          	mov    0x8(%r14),%rax
    6207:	49 0f af c7          	imul   %r15,%rax
    620b:	49 89 04 24          	mov    %rax,(%r12)
    620f:	e9 ca fe ff ff       	jmp    60de <_ZL19check_dynamic_rangePvmPmP24dynamic_flags_attributes.constprop.0+0x6e>
    6214:	0f 1f 40 00          	nopl   0x0(%rax)
    6218:	41 83 c5 01          	add    $0x1,%r13d
    621c:	41 83 fd 13          	cmp    $0x13,%r13d
    6220:	75 9b                	jne    61bd <_ZL19check_dynamic_rangePvmPmP24dynamic_flags_attributes.constprop.0+0x14d>
    6222:	e9 74 ff ff ff       	jmp    619b <_ZL19check_dynamic_rangePvmPmP24dynamic_flags_attributes.constprop.0+0x12b>
    6227:	4d 85 e4             	test   %r12,%r12
    622a:	0f 84 ae fe ff ff    	je     60de <_ZL19check_dynamic_rangePvmPmP24dynamic_flags_attributes.constprop.0+0x6e>
    6230:	49 c7 04 24 00 00 00 	movq   $0x0,(%r12)
    6237:	00 
    6238:	e9 a1 fe ff ff       	jmp    60de <_ZL19check_dynamic_rangePvmPmP24dynamic_flags_attributes.constprop.0+0x6e>
    623d:	0f 1f 00             	nopl   (%rax)
    6240:	b8 ff ff ff ff       	mov    $0xffffffff,%eax
    6245:	c3                   	ret    
    6246:	66 2e 0f 1f 84 00 00 	cs nopw 0x0(%rax,%rax,1)
    624d:	00 00 00 

0000000000006250 <_Z24get_dynamic_layout_by_idt>:
    6250:	f3 0f 1e fa          	endbr64 
    6254:	48 8d 05 25 cf 00 00 	lea    0xcf25(%rip),%rax        # 13180 <g_global_data>
    625b:	8b 90 58 01 00 00    	mov    0x158(%rax),%edx
    6261:	85 d2                	test   %edx,%edx
    6263:	74 3b                	je     62a0 <_Z24get_dynamic_layout_by_idt+0x50>
    6265:	31 c9                	xor    %ecx,%ecx
    6267:	eb 14                	jmp    627d <_Z24get_dynamic_layout_by_idt+0x2d>
    6269:	0f 1f 80 00 00 00 00 	nopl   0x0(%rax)
    6270:	8b 90 58 01 00 00    	mov    0x158(%rax),%edx
    6276:	83 c1 01             	add    $0x1,%ecx
    6279:	39 d1                	cmp    %edx,%ecx
    627b:	73 23                	jae    62a0 <_Z24get_dynamic_layout_by_idt+0x50>
    627d:	89 ca                	mov    %ecx,%edx
    627f:	48 83 c2 0b          	add    $0xb,%rdx
    6283:	48 c1 e2 05          	shl    $0x5,%rdx
    6287:	48 01 c2             	add    %rax,%rdx
    628a:	0f b7 12             	movzwl (%rdx),%edx
    628d:	66 39 fa             	cmp    %di,%dx
    6290:	75 de                	jne    6270 <_Z24get_dynamic_layout_by_idt+0x20>
    6292:	8d 51 0b             	lea    0xb(%rcx),%edx
    6295:	48 c1 e2 05          	shl    $0x5,%rdx
    6299:	48 01 d0             	add    %rdx,%rax
    629c:	c3                   	ret    
    629d:	0f 1f 00             	nopl   (%rax)
    62a0:	31 c0                	xor    %eax,%eax
    62a2:	c3                   	ret    
    62a3:	66 2e 0f 1f 84 00 00 	cs nopw 0x0(%rax,%rax,1)
    62aa:	00 00 00 
    62ad:	0f 1f 00             	nopl   (%rax)

00000000000062b0 <is_dynamic_thread>:
    62b0:	f3 0f 1e fa          	endbr64 
    62b4:	48 83 ec 28          	sub    $0x28,%rsp
    62b8:	64 48 8b 04 25 28 00 	mov    %fs:0x28,%rax
    62bf:	00 00 
    62c1:	48 89 44 24 18       	mov    %rax,0x18(%rsp)
    62c6:	31 c0                	xor    %eax,%eax
    62c8:	48 85 ff             	test   %rdi,%rdi
    62cb:	74 0e                	je     62db <is_dynamic_thread+0x2b>
    62cd:	31 f6                	xor    %esi,%esi
    62cf:	48 89 e2             	mov    %rsp,%rdx
    62d2:	e8 99 fd ff ff       	call   6070 <_ZL19check_dynamic_rangePvmPmP24dynamic_flags_attributes.constprop.0>
    62d7:	85 c0                	test   %eax,%eax
    62d9:	74 1d                	je     62f8 <is_dynamic_thread+0x48>
    62db:	31 c0                	xor    %eax,%eax
    62dd:	48 8b 54 24 18       	mov    0x18(%rsp),%rdx
    62e2:	64 48 2b 14 25 28 00 	sub    %fs:0x28,%rdx
    62e9:	00 00 
    62eb:	75 1a                	jne    6307 <is_dynamic_thread+0x57>
    62ed:	48 83 c4 28          	add    $0x28,%rsp
    62f1:	c3                   	ret    
    62f2:	66 0f 1f 44 00 00    	nopw   0x0(%rax,%rax,1)
    62f8:	31 c0                	xor    %eax,%eax
    62fa:	48 81 3c 24 00 01 00 	cmpq   $0x100,(%rsp)
    6301:	00 
    6302:	0f 94 c0             	sete   %al
    6305:	eb d6                	jmp    62dd <is_dynamic_thread+0x2d>
    6307:	e8 f4 a7 00 00       	call   10b00 <__stack_chk_fail>
    630c:	0f 1f 40 00          	nopl   0x0(%rax)

0000000000006310 <is_dynamic_thread_exist>:
    6310:	f3 0f 1e fa          	endbr64 
    6314:	48 8d 05 11 1b 01 00 	lea    0x11b11(%rip),%rax        # 17e2c <EDMM_supported>
    631b:	8b 00                	mov    (%rax),%eax
    631d:	85 c0                	test   %eax,%eax
    631f:	74 59                	je     637a <is_dynamic_thread_exist+0x6a>
    6321:	48 8d 0d 58 ce 00 00 	lea    0xce58(%rip),%rcx        # 13180 <g_global_data>
    6328:	8b 81 58 01 00 00    	mov    0x158(%rcx),%eax
    632e:	85 c0                	test   %eax,%eax
    6330:	74 46                	je     6378 <is_dynamic_thread_exist+0x68>
    6332:	31 d2                	xor    %edx,%edx
    6334:	eb 17                	jmp    634d <is_dynamic_thread_exist+0x3d>
    6336:	66 2e 0f 1f 84 00 00 	cs nopw 0x0(%rax,%rax,1)
    633d:	00 00 00 
    6340:	8b 81 58 01 00 00    	mov    0x158(%rcx),%eax
    6346:	83 c2 01             	add    $0x1,%edx
    6349:	39 c2                	cmp    %eax,%edx
    634b:	73 2b                	jae    6378 <is_dynamic_thread_exist+0x68>
    634d:	89 d0                	mov    %edx,%eax
    634f:	48 83 c0 0b          	add    $0xb,%rax
    6353:	48 c1 e0 05          	shl    $0x5,%rax
    6357:	48 01 c8             	add    %rcx,%rax
    635a:	0f b7 00             	movzwl (%rax),%eax
    635d:	66 83 f8 12          	cmp    $0x12,%ax
    6361:	75 dd                	jne    6340 <is_dynamic_thread_exist+0x30>
    6363:	8d 42 0b             	lea    0xb(%rdx),%eax
    6366:	48 c1 e0 05          	shl    $0x5,%rax
    636a:	48 01 c1             	add    %rax,%rcx
    636d:	0f 95 c0             	setne  %al
    6370:	0f b6 c0             	movzbl %al,%eax
    6373:	c3                   	ret    
    6374:	0f 1f 40 00          	nopl   0x0(%rax)
    6378:	31 c0                	xor    %eax,%eax
    637a:	c3                   	ret    
    637b:	0f 1f 44 00 00       	nopl   0x0(%rax,%rax,1)

0000000000006380 <get_dynamic_stack_max_page>:
    6380:	f3 0f 1e fa          	endbr64 
    6384:	48 8d 0d f5 cd 00 00 	lea    0xcdf5(%rip),%rcx        # 13180 <g_global_data>
    638b:	8b 81 58 01 00 00    	mov    0x158(%rcx),%eax
    6391:	85 c0                	test   %eax,%eax
    6393:	74 45                	je     63da <get_dynamic_stack_max_page+0x5a>
    6395:	31 d2                	xor    %edx,%edx
    6397:	eb 14                	jmp    63ad <get_dynamic_stack_max_page+0x2d>
    6399:	0f 1f 80 00 00 00 00 	nopl   0x0(%rax)
    63a0:	8b 81 58 01 00 00    	mov    0x158(%rcx),%eax
    63a6:	83 c2 01             	add    $0x1,%edx
    63a9:	39 c2                	cmp    %eax,%edx
    63ab:	73 2b                	jae    63d8 <get_dynamic_stack_max_page+0x58>
    63ad:	89 d0                	mov    %edx,%eax
    63af:	48 83 c0 0b          	add    $0xb,%rax
    63b3:	48 c1 e0 05          	shl    $0x5,%rax
    63b7:	48 01 c8             	add    %rcx,%rax
    63ba:	0f b7 00             	movzwl (%rax),%eax
    63bd:	66 83 f8 07          	cmp    $0x7,%ax
    63c1:	75 dd                	jne    63a0 <get_dynamic_stack_max_page+0x20>
    63c3:	8d 42 0b             	lea    0xb(%rdx),%eax
    63c6:	48 c1 e0 05          	shl    $0x5,%rax
    63ca:	48 01 c1             	add    %rax,%rcx
    63cd:	74 09                	je     63d8 <get_dynamic_stack_max_page+0x58>
    63cf:	8b 41 04             	mov    0x4(%rcx),%eax
    63d2:	c3                   	ret    
    63d3:	0f 1f 44 00 00       	nopl   0x0(%rax,%rax,1)
    63d8:	31 c0                	xor    %eax,%eax
    63da:	c3                   	ret    
    63db:	0f 1f 44 00 00       	nopl   0x0(%rax,%rax,1)

00000000000063e0 <do_add_thread>:
    63e0:	f3 0f 1e fa          	endbr64 
    63e4:	41 56                	push   %r14
    63e6:	41 55                	push   %r13
    63e8:	41 54                	push   %r12
    63ea:	55                   	push   %rbp
    63eb:	53                   	push   %rbx
    63ec:	48 89 fb             	mov    %rdi,%rbx
    63ef:	48 83 ec 10          	sub    $0x10,%rsp
    63f3:	64 48 8b 04 25 28 00 	mov    %fs:0x28,%rax
    63fa:	00 00 
    63fc:	48 89 44 24 08       	mov    %rax,0x8(%rsp)
    6401:	31 c0                	xor    %eax,%eax
    6403:	48 c7 04 24 00 00 00 	movq   $0x0,(%rsp)
    640a:	00 
    640b:	e8 e8 bc 00 00       	call   120f8 <get_enclave_base>
    6410:	31 d2                	xor    %edx,%edx
    6412:	48 89 e6             	mov    %rsp,%rsi
    6415:	48 89 df             	mov    %rbx,%rdi
    6418:	48 89 c5             	mov    %rax,%rbp
    641b:	e8 50 fc ff ff       	call   6070 <_ZL19check_dynamic_rangePvmPmP24dynamic_flags_attributes.constprop.0>
    6420:	85 c0                	test   %eax,%eax
    6422:	75 62                	jne    6486 <do_add_thread+0xa6>
    6424:	4c 8d 25 55 cd 00 00 	lea    0xcd55(%rip),%r12        # 13180 <g_global_data>
    642b:	41 8b 84 24 58 01 00 	mov    0x158(%r12),%eax
    6432:	00 
    6433:	85 c0                	test   %eax,%eax
    6435:	74 4f                	je     6486 <do_add_thread+0xa6>
    6437:	31 d2                	xor    %edx,%edx
    6439:	eb 14                	jmp    644f <do_add_thread+0x6f>
    643b:	0f 1f 44 00 00       	nopl   0x0(%rax,%rax,1)
    6440:	41 8b 84 24 58 01 00 	mov    0x158(%r12),%eax
    6447:	00 
    6448:	83 c2 01             	add    $0x1,%edx
    644b:	39 c2                	cmp    %eax,%edx
    644d:	73 37                	jae    6486 <do_add_thread+0xa6>
    644f:	89 d0                	mov    %edx,%eax
    6451:	48 83 c0 0b          	add    $0xb,%rax
    6455:	48 c1 e0 05          	shl    $0x5,%rax
    6459:	4c 01 e0             	add    %r12,%rax
    645c:	44 0f b7 28          	movzwl (%rax),%r13d
    6460:	66 41 83 fd 0e       	cmp    $0xe,%r13w
    6465:	75 d9                	jne    6440 <do_add_thread+0x60>
    6467:	8d 42 0b             	lea    0xb(%rdx),%eax
    646a:	48 c1 e0 05          	shl    $0x5,%rax
    646e:	4c 01 e0             	add    %r12,%rax
    6471:	74 13                	je     6486 <do_add_thread+0xa6>
    6473:	4c 8b 34 24          	mov    (%rsp),%r14
    6477:	48 8b 40 08          	mov    0x8(%rax),%rax
    647b:	49 01 ee             	add    %rbp,%r14
    647e:	4c 01 f0             	add    %r14,%rax
    6481:	48 39 d8             	cmp    %rbx,%rax
    6484:	74 4e                	je     64d4 <do_add_thread+0xf4>
    6486:	b8 01 00 00 00       	mov    $0x1,%eax
    648b:	48 8b 54 24 08       	mov    0x8(%rsp),%rdx
    6490:	64 48 2b 14 25 28 00 	sub    %fs:0x28,%rdx
    6497:	00 00 
    6499:	0f 85 f9 00 00 00    	jne    6598 <do_add_thread+0x1b8>
    649f:	48 83 c4 10          	add    $0x10,%rsp
    64a3:	5b                   	pop    %rbx
    64a4:	5d                   	pop    %rbp
    64a5:	41 5c                	pop    %r12
    64a7:	41 5d                	pop    %r13
    64a9:	41 5e                	pop    %r14
    64ab:	c3                   	ret    
    64ac:	0f 1f 40 00          	nopl   0x0(%rax)
    64b0:	8d 42 0b             	lea    0xb(%rdx),%eax
    64b3:	48 c1 e0 05          	shl    $0x5,%rax
    64b7:	4c 01 e0             	add    %r12,%rax
    64ba:	74 0d                	je     64c9 <do_add_thread+0xe9>
    64bc:	0f b7 50 02          	movzwl 0x2(%rax),%edx
    64c0:	83 e2 20             	and    $0x20,%edx
    64c3:	0f 85 af 00 00 00    	jne    6578 <do_add_thread+0x198>
    64c9:	41 83 c5 01          	add    $0x1,%r13d
    64cd:	66 41 83 fd 13       	cmp    $0x13,%r13w
    64d2:	74 3c                	je     6510 <do_add_thread+0x130>
    64d4:	41 8b 84 24 58 01 00 	mov    0x158(%r12),%eax
    64db:	00 
    64dc:	31 d2                	xor    %edx,%edx
    64de:	85 c0                	test   %eax,%eax
    64e0:	75 15                	jne    64f7 <do_add_thread+0x117>
    64e2:	eb e5                	jmp    64c9 <do_add_thread+0xe9>
    64e4:	0f 1f 40 00          	nopl   0x0(%rax)
    64e8:	41 8b 84 24 58 01 00 	mov    0x158(%r12),%eax
    64ef:	00 
    64f0:	83 c2 01             	add    $0x1,%edx
    64f3:	39 c2                	cmp    %eax,%edx
    64f5:	73 d2                	jae    64c9 <do_add_thread+0xe9>
    64f7:	89 d0                	mov    %edx,%eax
    64f9:	48 83 c0 0b          	add    $0xb,%rax
    64fd:	48 c1 e0 05          	shl    $0x5,%rax
    6501:	4c 01 e0             	add    %r12,%rax
    6504:	0f b7 00             	movzwl (%rax),%eax
    6507:	66 44 39 e8          	cmp    %r13w,%ax
    650b:	75 db                	jne    64e8 <do_add_thread+0x108>
    650d:	eb a1                	jmp    64b0 <do_add_thread+0xd0>
    650f:	90                   	nop
    6510:	ba 48 00 00 00       	mov    $0x48,%edx
    6515:	49 8d b4 24 10 01 00 	lea    0x110(%r12),%rsi
    651c:	00 
    651d:	48 89 df             	mov    %rbx,%rdi
    6520:	e8 4b a2 00 00       	call   10770 <memcpy>
    6525:	f3 0f 6f 4b 30       	movdqu 0x30(%rbx),%xmm1
    652a:	48 89 d8             	mov    %rbx,%rax
    652d:	48 89 df             	mov    %rbx,%rdi
    6530:	66 48 0f 6e c3       	movq   %rbx,%xmm0
    6535:	48 29 e8             	sub    %rbp,%rax
    6538:	48 01 43 10          	add    %rax,0x10(%rbx)
    653c:	ba 00 01 00 00       	mov    $0x100,%edx
    6541:	66 0f 6c c0          	punpcklqdq %xmm0,%xmm0
    6545:	be 00 10 00 00       	mov    $0x1000,%esi
    654a:	66 0f d4 c8          	paddq  %xmm0,%xmm1
    654e:	66 48 0f 6e c5       	movq   %rbp,%xmm0
    6553:	66 0f 6c c0          	punpcklqdq %xmm0,%xmm0
    6557:	66 0f fb c8          	psubq  %xmm0,%xmm1
    655b:	0f 11 4b 30          	movups %xmm1,0x30(%rbx)
    655f:	e8 3c 55 00 00       	call   baa0 <mm_modify_type>
    6564:	85 c0                	test   %eax,%eax
    6566:	0f 95 c0             	setne  %al
    6569:	0f b6 c0             	movzbl %al,%eax
    656c:	e9 1a ff ff ff       	jmp    648b <do_add_thread+0xab>
    6571:	0f 1f 80 00 00 00 00 	nopl   0x0(%rax)
    6578:	8b 70 04             	mov    0x4(%rax),%esi
    657b:	48 8b 78 08          	mov    0x8(%rax),%rdi
    657f:	48 c1 e6 0c          	shl    $0xc,%rsi
    6583:	4c 01 f7             	add    %r14,%rdi
    6586:	e8 d5 54 00 00       	call   ba60 <mm_commit>
    658b:	85 c0                	test   %eax,%eax
    658d:	0f 84 36 ff ff ff    	je     64c9 <do_add_thread+0xe9>
    6593:	e9 ee fe ff ff       	jmp    6486 <do_add_thread+0xa6>
    6598:	e8 63 a5 00 00       	call   10b00 <__stack_chk_fail>
    659d:	0f 1f 00             	nopl   (%rax)

00000000000065a0 <sgx_set_ssa_aexnotify>:
    65a0:	f3 0f 1e fa          	endbr64 
    65a4:	55                   	push   %rbp
    65a5:	89 fd                	mov    %edi,%ebp
    65a7:	53                   	push   %rbx
    65a8:	48 83 ec 08          	sub    $0x8,%rsp
    65ac:	e8 92 bb 00 00       	call   12143 <get_thread_data>
    65b1:	48 85 c0             	test   %rax,%rax
    65b4:	74 3a                	je     65f0 <sgx_set_ssa_aexnotify+0x50>
    65b6:	48 89 c3             	mov    %rax,%rbx
    65b9:	e8 12 af 00 00       	call   114d0 <sgx_self_report>
    65be:	f6 40 31 04          	testb  $0x4,0x31(%rax)
    65c2:	74 2c                	je     65f0 <sgx_set_ssa_aexnotify+0x50>
    65c4:	48 8b 53 20          	mov    0x20(%rbx),%rdx
    65c8:	0f b6 82 a7 00 00 00 	movzbl 0xa7(%rdx),%eax
    65cf:	89 c1                	mov    %eax,%ecx
    65d1:	83 c8 01             	or     $0x1,%eax
    65d4:	83 e1 fe             	and    $0xfffffffe,%ecx
    65d7:	85 ed                	test   %ebp,%ebp
    65d9:	0f 44 c1             	cmove  %ecx,%eax
    65dc:	88 82 a7 00 00 00    	mov    %al,0xa7(%rdx)
    65e2:	48 83 c4 08          	add    $0x8,%rsp
    65e6:	31 c0                	xor    %eax,%eax
    65e8:	5b                   	pop    %rbx
    65e9:	5d                   	pop    %rbp
    65ea:	c3                   	ret    
    65eb:	0f 1f 44 00 00       	nopl   0x0(%rax,%rax,1)
    65f0:	48 83 c4 08          	add    $0x8,%rsp
    65f4:	b8 01 00 00 00       	mov    $0x1,%eax
    65f9:	5b                   	pop    %rbx
    65fa:	5d                   	pop    %rbp
    65fb:	c3                   	ret    
    65fc:	0f 1f 40 00          	nopl   0x0(%rax)

0000000000006600 <sgx_register_aex_handler>:
    6600:	f3 0f 1e fa          	endbr64 
    6604:	48 85 ff             	test   %rdi,%rdi
    6607:	0f 84 bb 00 00 00    	je     66c8 <sgx_register_aex_handler+0xc8>
    660d:	41 55                	push   %r13
    660f:	b8 02 00 00 00       	mov    $0x2,%eax
    6614:	41 54                	push   %r12
    6616:	49 89 f4             	mov    %rsi,%r12
    6619:	55                   	push   %rbp
    661a:	53                   	push   %rbx
    661b:	48 83 ec 08          	sub    $0x8,%rsp
    661f:	48 85 f6             	test   %rsi,%rsi
    6622:	74 2a                	je     664e <sgx_register_aex_handler+0x4e>
    6624:	48 89 fb             	mov    %rdi,%rbx
    6627:	48 89 d5             	mov    %rdx,%rbp
    662a:	e8 f1 11 00 00       	call   7820 <get_ssa_aexnotify>
    662f:	85 c0                	test   %eax,%eax
    6631:	75 2d                	jne    6660 <sgx_register_aex_handler+0x60>
    6633:	e8 0b bb 00 00       	call   12143 <get_thread_data>
    6638:	66 48 0f 6e c5       	movq   %rbp,%xmm0
    663d:	0f 16 40 48          	movhps 0x48(%rax),%xmm0
    6641:	4c 89 23             	mov    %r12,(%rbx)
    6644:	0f 11 43 08          	movups %xmm0,0x8(%rbx)
    6648:	48 89 58 48          	mov    %rbx,0x48(%rax)
    664c:	31 c0                	xor    %eax,%eax
    664e:	48 83 c4 08          	add    $0x8,%rsp
    6652:	5b                   	pop    %rbx
    6653:	5d                   	pop    %rbp
    6654:	41 5c                	pop    %r12
    6656:	41 5d                	pop    %r13
    6658:	c3                   	ret    
    6659:	0f 1f 80 00 00 00 00 	nopl   0x0(%rax)
    6660:	e8 de ba 00 00       	call   12143 <get_thread_data>
    6665:	49 89 c5             	mov    %rax,%r13
    6668:	48 85 c0             	test   %rax,%rax
    666b:	74 16                	je     6683 <sgx_register_aex_handler+0x83>
    666d:	e8 5e ae 00 00       	call   114d0 <sgx_self_report>
    6672:	f6 40 31 04          	testb  $0x4,0x31(%rax)
    6676:	74 0b                	je     6683 <sgx_register_aex_handler+0x83>
    6678:	49 8b 45 20          	mov    0x20(%r13),%rax
    667c:	80 a0 a7 00 00 00 fe 	andb   $0xfe,0xa7(%rax)
    6683:	e8 bb ba 00 00       	call   12143 <get_thread_data>
    6688:	66 48 0f 6e c5       	movq   %rbp,%xmm0
    668d:	0f 16 40 48          	movhps 0x48(%rax),%xmm0
    6691:	4c 89 23             	mov    %r12,(%rbx)
    6694:	0f 11 43 08          	movups %xmm0,0x8(%rbx)
    6698:	48 89 58 48          	mov    %rbx,0x48(%rax)
    669c:	e8 a2 ba 00 00       	call   12143 <get_thread_data>
    66a1:	48 89 c3             	mov    %rax,%rbx
    66a4:	48 85 c0             	test   %rax,%rax
    66a7:	74 a3                	je     664c <sgx_register_aex_handler+0x4c>
    66a9:	e8 22 ae 00 00       	call   114d0 <sgx_self_report>
    66ae:	f6 40 31 04          	testb  $0x4,0x31(%rax)
    66b2:	74 98                	je     664c <sgx_register_aex_handler+0x4c>
    66b4:	48 8b 43 20          	mov    0x20(%rbx),%rax
    66b8:	80 88 a7 00 00 00 01 	orb    $0x1,0xa7(%rax)
    66bf:	31 c0                	xor    %eax,%eax
    66c1:	eb 8b                	jmp    664e <sgx_register_aex_handler+0x4e>
    66c3:	0f 1f 44 00 00       	nopl   0x0(%rax,%rax,1)
    66c8:	b8 02 00 00 00       	mov    $0x2,%eax
    66cd:	c3                   	ret    
    66ce:	66 90                	xchg   %ax,%ax

00000000000066d0 <sgx_unregister_aex_handler>:
    66d0:	f3 0f 1e fa          	endbr64 
    66d4:	41 54                	push   %r12
    66d6:	55                   	push   %rbp
    66d7:	53                   	push   %rbx
    66d8:	48 85 ff             	test   %rdi,%rdi
    66db:	0f 84 e7 00 00 00    	je     67c8 <sgx_unregister_aex_handler+0xf8>
    66e1:	48 89 fd             	mov    %rdi,%rbp
    66e4:	e8 37 11 00 00       	call   7820 <get_ssa_aexnotify>
    66e9:	89 c3                	mov    %eax,%ebx
    66eb:	85 c0                	test   %eax,%eax
    66ed:	75 61                	jne    6750 <sgx_unregister_aex_handler+0x80>
    66ef:	e8 4f ba 00 00       	call   12143 <get_thread_data>
    66f4:	41 bc 01 00 00 00    	mov    $0x1,%r12d
    66fa:	48 8b 50 48          	mov    0x48(%rax),%rdx
    66fe:	48 85 d2             	test   %rdx,%rdx
    6701:	74 3d                	je     6740 <sgx_unregister_aex_handler+0x70>
    6703:	31 f6                	xor    %esi,%esi
    6705:	eb 1c                	jmp    6723 <sgx_unregister_aex_handler+0x53>
    6707:	66 0f 1f 84 00 00 00 	nopw   0x0(%rax,%rax,1)
    670e:	00 00 
    6710:	48 8b 4a 10          	mov    0x10(%rdx),%rcx
    6714:	48 89 d6             	mov    %rdx,%rsi
    6717:	48 85 c9             	test   %rcx,%rcx
    671a:	0f 84 98 00 00 00    	je     67b8 <sgx_unregister_aex_handler+0xe8>
    6720:	48 89 ca             	mov    %rcx,%rdx
    6723:	48 39 2a             	cmp    %rbp,(%rdx)
    6726:	75 e8                	jne    6710 <sgx_unregister_aex_handler+0x40>
    6728:	48 8b 52 10          	mov    0x10(%rdx),%rdx
    672c:	48 85 f6             	test   %rsi,%rsi
    672f:	0f 84 ab 00 00 00    	je     67e0 <sgx_unregister_aex_handler+0x110>
    6735:	48 89 56 10          	mov    %rdx,0x10(%rsi)
    6739:	45 31 e4             	xor    %r12d,%r12d
    673c:	85 db                	test   %ebx,%ebx
    673e:	75 48                	jne    6788 <sgx_unregister_aex_handler+0xb8>
    6740:	44 89 e0             	mov    %r12d,%eax
    6743:	5b                   	pop    %rbx
    6744:	5d                   	pop    %rbp
    6745:	41 5c                	pop    %r12
    6747:	c3                   	ret    
    6748:	0f 1f 84 00 00 00 00 	nopl   0x0(%rax,%rax,1)
    674f:	00 
    6750:	e8 ee b9 00 00       	call   12143 <get_thread_data>
    6755:	49 89 c4             	mov    %rax,%r12
    6758:	48 85 c0             	test   %rax,%rax
    675b:	74 17                	je     6774 <sgx_unregister_aex_handler+0xa4>
    675d:	e8 6e ad 00 00       	call   114d0 <sgx_self_report>
    6762:	f6 40 31 04          	testb  $0x4,0x31(%rax)
    6766:	74 0c                	je     6774 <sgx_unregister_aex_handler+0xa4>
    6768:	49 8b 44 24 20       	mov    0x20(%r12),%rax
    676d:	80 a0 a7 00 00 00 fe 	andb   $0xfe,0xa7(%rax)
    6774:	e8 ca b9 00 00       	call   12143 <get_thread_data>
    6779:	48 8b 50 48          	mov    0x48(%rax),%rdx
    677d:	48 85 d2             	test   %rdx,%rdx
    6780:	75 81                	jne    6703 <sgx_unregister_aex_handler+0x33>
    6782:	41 bc 01 00 00 00    	mov    $0x1,%r12d
    6788:	e8 b6 b9 00 00       	call   12143 <get_thread_data>
    678d:	48 89 c3             	mov    %rax,%rbx
    6790:	48 85 c0             	test   %rax,%rax
    6793:	74 ab                	je     6740 <sgx_unregister_aex_handler+0x70>
    6795:	e8 36 ad 00 00       	call   114d0 <sgx_self_report>
    679a:	f6 40 31 04          	testb  $0x4,0x31(%rax)
    679e:	74 a0                	je     6740 <sgx_unregister_aex_handler+0x70>
    67a0:	48 8b 43 20          	mov    0x20(%rbx),%rax
    67a4:	80 88 a7 00 00 00 01 	orb    $0x1,0xa7(%rax)
    67ab:	44 89 e0             	mov    %r12d,%eax
    67ae:	5b                   	pop    %rbx
    67af:	5d                   	pop    %rbp
    67b0:	41 5c                	pop    %r12
    67b2:	c3                   	ret    
    67b3:	0f 1f 44 00 00       	nopl   0x0(%rax,%rax,1)
    67b8:	41 bc 02 00 00 00    	mov    $0x2,%r12d
    67be:	e9 79 ff ff ff       	jmp    673c <sgx_unregister_aex_handler+0x6c>
    67c3:	0f 1f 44 00 00       	nopl   0x0(%rax,%rax,1)
    67c8:	41 bc 02 00 00 00    	mov    $0x2,%r12d
    67ce:	5b                   	pop    %rbx
    67cf:	5d                   	pop    %rbp
    67d0:	44 89 e0             	mov    %r12d,%eax
    67d3:	41 5c                	pop    %r12
    67d5:	c3                   	ret    
    67d6:	66 2e 0f 1f 84 00 00 	cs nopw 0x0(%rax,%rax,1)
    67dd:	00 00 00 
    67e0:	48 89 50 48          	mov    %rdx,0x48(%rax)
    67e4:	e9 50 ff ff ff       	jmp    6739 <sgx_unregister_aex_handler+0x69>
    67e9:	0f 1f 80 00 00 00 00 	nopl   0x0(%rax)

00000000000067f0 <sgx_apply_mitigations>:
    67f0:	f3 0f 1e fa          	endbr64 
    67f4:	55                   	push   %rbp
    67f5:	48 89 fd             	mov    %rdi,%rbp
    67f8:	53                   	push   %rbx
    67f9:	48 83 ec 08          	sub    $0x8,%rsp
    67fd:	e8 41 b9 00 00       	call   12143 <get_thread_data>
    6802:	48 8b 58 48          	mov    0x48(%rax),%rbx
    6806:	48 85 db             	test   %rbx,%rbx
    6809:	74 17                	je     6822 <sgx_apply_mitigations+0x32>
    680b:	0f 1f 44 00 00       	nopl   0x0(%rax,%rax,1)
    6810:	48 8b 73 08          	mov    0x8(%rbx),%rsi
    6814:	48 89 ef             	mov    %rbp,%rdi
    6817:	ff 13                	call   *(%rbx)
    6819:	48 8b 5b 10          	mov    0x10(%rbx),%rbx
    681d:	48 85 db             	test   %rbx,%rbx
    6820:	75 ee                	jne    6810 <sgx_apply_mitigations+0x20>
    6822:	48 83 c4 08          	add    $0x8,%rsp
    6826:	31 c0                	xor    %eax,%eax
    6828:	5b                   	pop    %rbx
    6829:	5d                   	pop    %rbp
    682a:	c3                   	ret    
    682b:	0f 1f 44 00 00       	nopl   0x0(%rax,%rax,1)

0000000000006830 <_pthread_thread_run>:
    6830:	f3 0f 1e fa          	endbr64 
    6834:	31 c0                	xor    %eax,%eax
    6836:	c3                   	ret    
    6837:	66 0f 1f 84 00 00 00 	nopw   0x0(%rax,%rax,1)
    683e:	00 00 

0000000000006840 <_ZL11do_save_tcsPv>:
    6840:	55                   	push   %rbp
    6841:	53                   	push   %rbx
    6842:	48 89 fb             	mov    %rdi,%rbx
    6845:	48 83 ec 18          	sub    $0x18,%rsp
    6849:	64 48 8b 04 25 28 00 	mov    %fs:0x28,%rax
    6850:	00 00 
    6852:	48 89 44 24 08       	mov    %rax,0x8(%rsp)
    6857:	31 c0                	xor    %eax,%eax
    6859:	48 83 3d 17 39 01 00 	cmpq   $0x0,0x13917(%rip)        # 1a178 <_ZL12g_tcs_cookie>
    6860:	00 
    6861:	74 4d                	je     68b0 <_ZL11do_save_tcsPv+0x70>
    6863:	bf 10 00 00 00       	mov    $0x10,%edi
    6868:	e8 63 69 00 00       	call   d1d0 <dlmalloc>
    686d:	48 85 c0             	test   %rax,%rax
    6870:	74 68                	je     68da <_ZL11do_save_tcsPv+0x9a>
    6872:	48 8b 15 07 39 01 00 	mov    0x13907(%rip),%rdx        # 1a180 <_ZL10g_tcs_node>
    6879:	48 33 1d f8 38 01 00 	xor    0x138f8(%rip),%rbx        # 1a178 <_ZL12g_tcs_cookie>
    6880:	48 89 05 f9 38 01 00 	mov    %rax,0x138f9(%rip)        # 1a180 <_ZL10g_tcs_node>
    6887:	48 89 18             	mov    %rbx,(%rax)
    688a:	48 89 50 08          	mov    %rdx,0x8(%rax)
    688e:	31 c0                	xor    %eax,%eax
    6890:	48 8b 54 24 08       	mov    0x8(%rsp),%rdx
    6895:	64 48 2b 14 25 28 00 	sub    %fs:0x28,%rdx
    689c:	00 00 
    689e:	75 62                	jne    6902 <_ZL11do_save_tcsPv+0xc2>
    68a0:	48 83 c4 18          	add    $0x18,%rsp
    68a4:	5b                   	pop    %rbx
    68a5:	5d                   	pop    %rbp
    68a6:	c3                   	ret    
    68a7:	66 0f 1f 84 00 00 00 	nopw   0x0(%rax,%rax,1)
    68ae:	00 00 
    68b0:	48 c7 04 24 00 00 00 	movq   $0x0,(%rsp)
    68b7:	00 
    68b8:	48 89 e5             	mov    %rsp,%rbp
    68bb:	eb 0c                	jmp    68c9 <_ZL11do_save_tcsPv+0x89>
    68bd:	0f 1f 00             	nopl   (%rax)
    68c0:	48 8b 04 24          	mov    (%rsp),%rax
    68c4:	48 85 c0             	test   %rax,%rax
    68c7:	75 1f                	jne    68e8 <_ZL11do_save_tcsPv+0xa8>
    68c9:	be 08 00 00 00       	mov    $0x8,%esi
    68ce:	48 89 ef             	mov    %rbp,%rdi
    68d1:	e8 2a f5 ff ff       	call   5e00 <sgx_read_rand>
    68d6:	85 c0                	test   %eax,%eax
    68d8:	74 e6                	je     68c0 <_ZL11do_save_tcsPv+0x80>
    68da:	b8 01 00 00 00       	mov    $0x1,%eax
    68df:	eb af                	jmp    6890 <_ZL11do_save_tcsPv+0x50>
    68e1:	0f 1f 80 00 00 00 00 	nopl   0x0(%rax)
    68e8:	48 83 3d 88 38 01 00 	cmpq   $0x0,0x13888(%rip)        # 1a178 <_ZL12g_tcs_cookie>
    68ef:	00 
    68f0:	0f 85 6d ff ff ff    	jne    6863 <_ZL11do_save_tcsPv+0x23>
    68f6:	48 89 05 7b 38 01 00 	mov    %rax,0x1387b(%rip)        # 1a178 <_ZL12g_tcs_cookie>
    68fd:	e9 61 ff ff ff       	jmp    6863 <_ZL11do_save_tcsPv+0x23>
    6902:	e8 f9 a1 00 00       	call   10b00 <__stack_chk_fail>
    6907:	66 0f 1f 84 00 00 00 	nopw   0x0(%rax,%rax,1)
    690e:	00 00 

0000000000006910 <_ZL18add_static_threadsPVK9_layout_tS1_m>:
    6910:	48 39 f7             	cmp    %rsi,%rdi
    6913:	0f 83 cf 00 00 00    	jae    69e8 <_ZL18add_static_threadsPVK9_layout_tS1_m+0xd8>
    6919:	41 56                	push   %r14
    691b:	41 55                	push   %r13
    691d:	49 89 f5             	mov    %rsi,%r13
    6920:	41 54                	push   %r12
    6922:	49 89 d4             	mov    %rdx,%r12
    6925:	55                   	push   %rbp
    6926:	53                   	push   %rbx
    6927:	48 89 fb             	mov    %rdi,%rbx
    692a:	eb 0d                	jmp    6939 <_ZL18add_static_threadsPVK9_layout_tS1_m+0x29>
    692c:	0f 1f 40 00          	nopl   0x0(%rax)
    6930:	48 83 c3 20          	add    $0x20,%rbx
    6934:	4c 39 eb             	cmp    %r13,%rbx
    6937:	73 77                	jae    69b0 <_ZL18add_static_threadsPVK9_layout_tS1_m+0xa0>
    6939:	0f b7 03             	movzwl (%rbx),%eax
    693c:	f6 c4 10             	test   $0x10,%ah
    693f:	75 13                	jne    6954 <_ZL18add_static_threadsPVK9_layout_tS1_m+0x44>
    6941:	48 8b 43 18          	mov    0x18(%rbx),%rax
    6945:	f6 c4 01             	test   $0x1,%ah
    6948:	74 0a                	je     6954 <_ZL18add_static_threadsPVK9_layout_tS1_m+0x44>
    694a:	0f b7 43 02          	movzwl 0x2(%rbx),%eax
    694e:	66 83 f8 03          	cmp    $0x3,%ax
    6952:	74 6c                	je     69c0 <_ZL18add_static_threadsPVK9_layout_tS1_m+0xb0>
    6954:	0f b7 03             	movzwl (%rbx),%eax
    6957:	f6 c4 10             	test   $0x10,%ah
    695a:	74 d4                	je     6930 <_ZL18add_static_threadsPVK9_layout_tS1_m+0x20>
    695c:	8b 43 04             	mov    0x4(%rbx),%eax
    695f:	85 c0                	test   %eax,%eax
    6961:	74 cd                	je     6930 <_ZL18add_static_threadsPVK9_layout_tS1_m+0x20>
    6963:	31 ed                	xor    %ebp,%ebp
    6965:	45 31 f6             	xor    %r14d,%r14d
    6968:	eb 10                	jmp    697a <_ZL18add_static_threadsPVK9_layout_tS1_m+0x6a>
    696a:	66 0f 1f 44 00 00    	nopw   0x0(%rax,%rax,1)
    6970:	8b 43 04             	mov    0x4(%rbx),%eax
    6973:	83 c5 01             	add    $0x1,%ebp
    6976:	39 c5                	cmp    %eax,%ebp
    6978:	73 b6                	jae    6930 <_ZL18add_static_threadsPVK9_layout_tS1_m+0x20>
    697a:	48 8b 43 08          	mov    0x8(%rbx),%rax
    697e:	0f b7 7b 02          	movzwl 0x2(%rbx),%edi
    6982:	48 89 de             	mov    %rbx,%rsi
    6985:	f7 df                	neg    %edi
    6987:	49 01 c6             	add    %rax,%r14
    698a:	48 63 ff             	movslq %edi,%rdi
    698d:	4c 89 f2             	mov    %r14,%rdx
    6990:	48 c1 e7 05          	shl    $0x5,%rdi
    6994:	48 01 df             	add    %rbx,%rdi
    6997:	e8 74 ff ff ff       	call   6910 <_ZL18add_static_threadsPVK9_layout_tS1_m>
    699c:	85 c0                	test   %eax,%eax
    699e:	74 d0                	je     6970 <_ZL18add_static_threadsPVK9_layout_tS1_m+0x60>
    69a0:	5b                   	pop    %rbx
    69a1:	5d                   	pop    %rbp
    69a2:	41 5c                	pop    %r12
    69a4:	41 5d                	pop    %r13
    69a6:	41 5e                	pop    %r14
    69a8:	c3                   	ret    
    69a9:	0f 1f 80 00 00 00 00 	nopl   0x0(%rax)
    69b0:	5b                   	pop    %rbx
    69b1:	31 c0                	xor    %eax,%eax
    69b3:	5d                   	pop    %rbp
    69b4:	41 5c                	pop    %r12
    69b6:	41 5d                	pop    %r13
    69b8:	41 5e                	pop    %r14
    69ba:	c3                   	ret    
    69bb:	0f 1f 44 00 00       	nopl   0x0(%rax,%rax,1)
    69c0:	48 8b 6b 08          	mov    0x8(%rbx),%rbp
    69c4:	e8 2f b7 00 00       	call   120f8 <get_enclave_base>
    69c9:	4c 01 e5             	add    %r12,%rbp
    69cc:	48 8d 3c 28          	lea    (%rax,%rbp,1),%rdi
    69d0:	e8 6b fe ff ff       	call   6840 <_ZL11do_save_tcsPv>
    69d5:	85 c0                	test   %eax,%eax
    69d7:	0f 84 53 ff ff ff    	je     6930 <_ZL18add_static_threadsPVK9_layout_tS1_m+0x20>
    69dd:	b8 ff ff ff ff       	mov    $0xffffffff,%eax
    69e2:	eb bc                	jmp    69a0 <_ZL18add_static_threadsPVK9_layout_tS1_m+0x90>
    69e4:	0f 1f 40 00          	nopl   0x0(%rax)
    69e8:	31 c0                	xor    %eax,%eax
    69ea:	c3                   	ret    
    69eb:	0f 1f 44 00 00       	nopl   0x0(%rax,%rax,1)

00000000000069f0 <_ZL10trts_ecalljPv>:
    69f0:	f3 0f 1e fa          	endbr64 
    69f4:	41 55                	push   %r13
    69f6:	41 54                	push   %r12
    69f8:	55                   	push   %rbp
    69f9:	48 89 f5             	mov    %rsi,%rbp
    69fc:	53                   	push   %rbx
    69fd:	89 fb                	mov    %edi,%ebx
    69ff:	48 83 ec 08          	sub    $0x8,%rsp
    6a03:	0f b6 05 16 18 01 00 	movzbl 0x11816(%rip),%eax        # 18220 <_ZL16g_is_first_ecall>
    6a0a:	84 c0                	test   %al,%al
    6a0c:	0f 85 b6 00 00 00    	jne    6ac8 <_ZL10trts_ecalljPv+0xd8>
    6a12:	83 fb fa             	cmp    $0xfffffffa,%ebx
    6a15:	0f 84 8d 00 00 00    	je     6aa8 <_ZL10trts_ecalljPv+0xb8>
    6a1b:	4c 8d 25 9e 13 01 00 	lea    0x1139e(%rip),%r12        # 17dc0 <g_ecall_table>
    6a22:	49 3b 1c 24          	cmp    (%r12),%rbx
    6a26:	73 68                	jae    6a90 <_ZL10trts_ecalljPv+0xa0>
    6a28:	e8 16 b7 00 00       	call   12143 <get_thread_data>
    6a2d:	0f ae e8             	lfence 
    6a30:	48 8b 50 08          	mov    0x8(%rax),%rdx
    6a34:	48 3b 50 10          	cmp    0x10(%rax),%rdx
    6a38:	0f 84 b2 00 00 00    	je     6af0 <_ZL10trts_ecalljPv+0x100>
    6a3e:	48 81 7a 20 44 49 43 	cmpq   $0x4f434944,0x20(%rdx)
    6a45:	4f 
    6a46:	0f 85 5b 01 00 00    	jne    6ba7 <_ZL10trts_ecalljPv+0x1b7>
    6a4c:	48 8d 05 dd c5 00 00 	lea    0xc5dd(%rip),%rax        # 13030 <g_dyn_entry_table>
    6a53:	48 8b 52 28          	mov    0x28(%rdx),%rdx
    6a57:	48 3b 10             	cmp    (%rax),%rdx
    6a5a:	73 34                	jae    6a90 <_ZL10trts_ecalljPv+0xa0>
    6a5c:	49 0f af 14 24       	imul   (%r12),%rdx
    6a61:	48 01 d8             	add    %rbx,%rax
    6a64:	80 7c 02 08 00       	cmpb   $0x0,0x8(%rdx,%rax,1)
    6a69:	74 6c                	je     6ad7 <_ZL10trts_ecalljPv+0xe7>
    6a6b:	48 c1 e3 04          	shl    $0x4,%rbx
    6a6f:	31 f6                	xor    %esi,%esi
    6a71:	49 8b 5c 1c 08       	mov    0x8(%r12,%rbx,1),%rbx
    6a76:	48 89 df             	mov    %rbx,%rdi
    6a79:	e8 82 f1 ff ff       	call   5c00 <sgx_is_within_enclave>
    6a7e:	85 c0                	test   %eax,%eax
    6a80:	0f 84 8a 00 00 00    	je     6b10 <_ZL10trts_ecalljPv+0x120>
    6a86:	48 89 d8             	mov    %rbx,%rax
    6a89:	eb 24                	jmp    6aaf <_ZL10trts_ecalljPv+0xbf>
    6a8b:	0f 1f 44 00 00       	nopl   0x0(%rax,%rax,1)
    6a90:	41 bc 01 10 00 00    	mov    $0x1001,%r12d
    6a96:	48 83 c4 08          	add    $0x8,%rsp
    6a9a:	44 89 e0             	mov    %r12d,%eax
    6a9d:	5b                   	pop    %rbx
    6a9e:	5d                   	pop    %rbp
    6a9f:	41 5c                	pop    %r12
    6aa1:	41 5d                	pop    %r13
    6aa3:	c3                   	ret    
    6aa4:	0f 1f 40 00          	nopl   0x0(%rax)
    6aa8:	48 8d 05 81 fd ff ff 	lea    -0x27f(%rip),%rax        # 6830 <_pthread_thread_run>
    6aaf:	0f ae e8             	lfence 
    6ab2:	48 83 c4 08          	add    $0x8,%rsp
    6ab6:	48 89 ef             	mov    %rbp,%rdi
    6ab9:	5b                   	pop    %rbx
    6aba:	5d                   	pop    %rbp
    6abb:	41 5c                	pop    %r12
    6abd:	41 5d                	pop    %r13
    6abf:	ff e0                	jmp    *%rax
    6ac1:	0f 1f 80 00 00 00 00 	nopl   0x0(%rax)
    6ac8:	e8 76 b6 00 00       	call   12143 <get_thread_data>
    6acd:	48 8b 48 10          	mov    0x10(%rax),%rcx
    6ad1:	48 39 48 08          	cmp    %rcx,0x8(%rax)
    6ad5:	74 49                	je     6b20 <_ZL10trts_ecalljPv+0x130>
    6ad7:	48 83 c4 08          	add    $0x8,%rsp
    6adb:	41 bc 07 10 00 00    	mov    $0x1007,%r12d
    6ae1:	5b                   	pop    %rbx
    6ae2:	44 89 e0             	mov    %r12d,%eax
    6ae5:	5d                   	pop    %rbp
    6ae6:	41 5c                	pop    %r12
    6ae8:	41 5d                	pop    %r13
    6aea:	c3                   	ret    
    6aeb:	0f 1f 44 00 00       	nopl   0x0(%rax,%rax,1)
    6af0:	48 89 d8             	mov    %rbx,%rax
    6af3:	48 c1 e0 04          	shl    $0x4,%rax
    6af7:	41 80 7c 04 10 00    	cmpb   $0x0,0x10(%r12,%rax,1)
    6afd:	0f 84 68 ff ff ff    	je     6a6b <_ZL10trts_ecalljPv+0x7b>
    6b03:	eb d2                	jmp    6ad7 <_ZL10trts_ecalljPv+0xe7>
    6b05:	4c 89 ef             	mov    %r13,%rdi
    6b08:	e8 93 5d 00 00       	call   c8a0 <sgx_spin_unlock>
    6b0d:	0f 1f 00             	nopl   (%rax)
    6b10:	41 bc 01 00 00 00    	mov    $0x1,%r12d
    6b16:	e9 7b ff ff ff       	jmp    6a96 <_ZL10trts_ecalljPv+0xa6>
    6b1b:	0f 1f 44 00 00       	nopl   0x0(%rax,%rax,1)
    6b20:	4c 8d 2d 4d 36 01 00 	lea    0x1364d(%rip),%r13        # 1a174 <_ZL10g_ife_lock>
    6b27:	4c 89 ef             	mov    %r13,%rdi
    6b2a:	e8 e1 5c 00 00       	call   c810 <sgx_spin_lock>
    6b2f:	0f b6 05 ea 16 01 00 	movzbl 0x116ea(%rip),%eax        # 18220 <_ZL16g_is_first_ecall>
    6b36:	84 c0                	test   %al,%al
    6b38:	74 53                	je     6b8d <_ZL10trts_ecalljPv+0x19d>
    6b3a:	48 8d 05 eb 12 01 00 	lea    0x112eb(%rip),%rax        # 17e2c <EDMM_supported>
    6b41:	8b 00                	mov    (%rax),%eax
    6b43:	85 c0                	test   %eax,%eax
    6b45:	74 3a                	je     6b81 <_ZL10trts_ecalljPv+0x191>
    6b47:	48 8d 05 32 c6 00 00 	lea    0xc632(%rip),%rax        # 13180 <g_global_data>
    6b4e:	31 d2                	xor    %edx,%edx
    6b50:	8b b0 58 01 00 00    	mov    0x158(%rax),%esi
    6b56:	48 8d b8 60 01 00 00 	lea    0x160(%rax),%rdi
    6b5d:	48 c1 e6 05          	shl    $0x5,%rsi
    6b61:	48 01 fe             	add    %rdi,%rsi
    6b64:	e8 a7 fd ff ff       	call   6910 <_ZL18add_static_threadsPVK9_layout_tS1_m>
    6b69:	85 c0                	test   %eax,%eax
    6b6b:	75 98                	jne    6b05 <_ZL10trts_ecalljPv+0x115>
    6b6d:	e8 86 b5 00 00       	call   120f8 <get_enclave_base>
    6b72:	48 89 c7             	mov    %rax,%rdi
    6b75:	e8 a6 1d 00 00       	call   8920 <change_protection>
    6b7a:	41 89 c4             	mov    %eax,%r12d
    6b7d:	85 c0                	test   %eax,%eax
    6b7f:	75 19                	jne    6b9a <_ZL10trts_ecalljPv+0x1aa>
    6b81:	e8 ca 21 00 00       	call   8d50 <init_global_object>
    6b86:	c6 05 93 16 01 00 00 	movb   $0x0,0x11693(%rip)        # 18220 <_ZL16g_is_first_ecall>
    6b8d:	4c 89 ef             	mov    %r13,%rdi
    6b90:	e8 0b 5d 00 00       	call   c8a0 <sgx_spin_unlock>
    6b95:	e9 78 fe ff ff       	jmp    6a12 <_ZL10trts_ecalljPv+0x22>
    6b9a:	4c 89 ef             	mov    %r13,%rdi
    6b9d:	e8 fe 5c 00 00       	call   c8a0 <sgx_spin_unlock>
    6ba2:	e9 ef fe ff ff       	jmp    6a96 <_ZL10trts_ecalljPv+0xa6>
    6ba7:	e8 8b b9 00 00       	call   12537 <abort>
    6bac:	0f 1f 40 00          	nopl   0x0(%rax)

0000000000006bb0 <_Z30_random_stack_noinline_wrapperI9_status_tJjPvEJRiRS1_EET_PFS4_DpT0_EDpOT1_.constprop.0.isra.0>:
    6bb0:	e9 3b fe ff ff       	jmp    69f0 <_ZL10trts_ecalljPv>
    6bb5:	66 2e 0f 1f 84 00 00 	cs nopw 0x0(%rax,%rax,1)
    6bbc:	00 00 00 
    6bbf:	90                   	nop

0000000000006bc0 <_Z16_pthread_enabledv>:
    6bc0:	f3 0f 1e fa          	endbr64 
    6bc4:	31 c0                	xor    %eax,%eax
    6bc6:	c3                   	ret    
    6bc7:	66 0f 1f 84 00 00 00 	nopw   0x0(%rax,%rax,1)
    6bce:	00 00 

0000000000006bd0 <_Z24_pthread_tls_store_state9_status_t>:
    6bd0:	f3 0f 1e fa          	endbr64 
    6bd4:	c3                   	ret    
    6bd5:	66 2e 0f 1f 84 00 00 	cs nopw 0x0(%rax,%rax,1)
    6bdc:	00 00 00 
    6bdf:	90                   	nop

0000000000006be0 <_Z22_pthread_tls_get_statev>:
    6be0:	f3 0f 1e fa          	endbr64 
    6be4:	31 c0                	xor    %eax,%eax
    6be6:	c3                   	ret    
    6be7:	66 0f 1f 84 00 00 00 	nopw   0x0(%rax,%rax,1)
    6bee:	00 00 

0000000000006bf0 <_Z26_pthread_tls_store_contextPv>:
    6bf0:	f3 0f 1e fa          	endbr64 
    6bf4:	c3                   	ret    
    6bf5:	66 2e 0f 1f 84 00 00 	cs nopw 0x0(%rax,%rax,1)
    6bfc:	00 00 00 
    6bff:	90                   	nop

0000000000006c00 <_Z20_pthread_wakeup_joinPv>:
    6c00:	f3 0f 1e fa          	endbr64 
    6c04:	c3                   	ret    
    6c05:	66 2e 0f 1f 84 00 00 	cs nopw 0x0(%rax,%rax,1)
    6c0c:	00 00 00 
    6c0f:	90                   	nop

0000000000006c10 <_Z24_pthread_tls_destructorsv>:
    6c10:	f3 0f 1e fa          	endbr64 
    6c14:	c3                   	ret    
    6c15:	66 2e 0f 1f 84 00 00 	cs nopw 0x0(%rax,%rax,1)
    6c1c:	00 00 00 
    6c1f:	90                   	nop

0000000000006c20 <tc_set_idle>:
    6c20:	f3 0f 1e fa          	endbr64 
    6c24:	c3                   	ret    
    6c25:	66 2e 0f 1f 84 00 00 	cs nopw 0x0(%rax,%rax,1)
    6c2c:	00 00 00 
    6c2f:	90                   	nop

0000000000006c30 <do_init_thread>:
    6c30:	f3 0f 1e fa          	endbr64 
    6c34:	41 57                	push   %r15
    6c36:	66 48 0f 6e d7       	movq   %rdi,%xmm2
    6c3b:	ba c0 00 00 00       	mov    $0xc0,%edx
    6c40:	41 56                	push   %r14
    6c42:	66 0f 6c d2          	punpcklqdq %xmm2,%xmm2
    6c46:	41 55                	push   %r13
    6c48:	41 54                	push   %r12
    6c4a:	41 89 f4             	mov    %esi,%r12d
    6c4d:	55                   	push   %rbp
    6c4e:	48 89 fd             	mov    %rdi,%rbp
    6c51:	53                   	push   %rbx
    6c52:	48 83 ec 38          	sub    $0x38,%rsp
    6c56:	64 48 8b 04 25 28 00 	mov    %fs:0x28,%rax
    6c5d:	00 00 
    6c5f:	48 89 44 24 28       	mov    %rax,0x28(%rsp)
    6c64:	48 8d 05 15 c5 00 00 	lea    0xc515(%rip),%rax        # 13180 <g_global_data>
    6c6b:	0f 29 14 24          	movaps %xmm2,(%rsp)
    6c6f:	48 8b 58 50          	mov    0x50(%rax),%rbx
    6c73:	48 8d 70 50          	lea    0x50(%rax),%rsi
    6c77:	48 01 fb             	add    %rdi,%rbx
    6c7a:	48 89 df             	mov    %rbx,%rdi
    6c7d:	4c 8b 7b 28          	mov    0x28(%rbx),%r15
    6c81:	4c 8b 73 30          	mov    0x30(%rbx),%r14
    6c85:	4c 8b ab b0 00 00 00 	mov    0xb0(%rbx),%r13
    6c8c:	e8 df 9a 00 00       	call   10770 <memcpy>
    6c91:	48 8d 85 00 fc ff ff 	lea    -0x400(%rbp),%rax
    6c98:	f3 0f 6f 1b          	movdqu (%rbx),%xmm3
    6c9c:	f3 0f 6f 6b 10       	movdqu 0x10(%rbx),%xmm5
    6ca1:	66 48 0f 6e c0       	movq   %rax,%xmm0
    6ca6:	48 8b 43 18          	mov    0x18(%rbx),%rax
    6caa:	f3 0f 6f 73 68       	movdqu 0x68(%rbx),%xmm6
    6caf:	66 48 0f 6e cd       	movq   %rbp,%xmm1
    6cb4:	66 0f 6f 14 24       	movdqa (%rsp),%xmm2
    6cb9:	66 48 0f 6e e5       	movq   %rbp,%xmm4
    6cbe:	66 0f 6c c8          	punpcklqdq %xmm0,%xmm1
    6cc2:	48 01 6b 20          	add    %rbp,0x20(%rbx)
    6cc6:	48 01 e8             	add    %rbp,%rax
    6cc9:	66 0f 6c c4          	punpcklqdq %xmm4,%xmm0
    6ccd:	66 0f d4 cb          	paddq  %xmm3,%xmm1
    6cd1:	48 01 6b 58          	add    %rbp,0x58(%rbx)
    6cd5:	48 89 83 b0 00 00 00 	mov    %rax,0xb0(%rbx)
    6cdc:	48 8d 05 25 11 01 00 	lea    0x11125(%rip),%rax        # 17e08 <__intel_security_cookie>
    6ce3:	66 0f d4 c5          	paddq  %xmm5,%xmm0
    6ce7:	66 0f d4 d6          	paddq  %xmm6,%xmm2
    6ceb:	4c 89 7b 28          	mov    %r15,0x28(%rbx)
    6cef:	48 8b 00             	mov    (%rax),%rax
    6cf2:	4c 89 73 30          	mov    %r14,0x30(%rbx)
    6cf6:	0f 11 53 68          	movups %xmm2,0x68(%rbx)
    6cfa:	0f 11 0b             	movups %xmm1,(%rbx)
    6cfd:	0f 11 43 10          	movups %xmm0,0x10(%rbx)
    6d01:	48 89 85 08 fc fe ff 	mov    %rax,-0x103f8(%rbp)
    6d08:	48 8d 05 1d 11 01 00 	lea    0x1111d(%rip),%rax        # 17e2c <EDMM_supported>
    6d0f:	8b 00                	mov    (%rax),%eax
    6d11:	85 c0                	test   %eax,%eax
    6d13:	48 8d 05 fa 10 01 00 	lea    0x110fa(%rip),%rax        # 17e14 <g_aexnotify_supported>
    6d1a:	0f 85 f0 00 00 00    	jne    6e10 <do_init_thread+0x1e0>
    6d20:	83 38 01             	cmpl   $0x1,(%rax)
    6d23:	0f 84 17 01 00 00    	je     6e40 <do_init_thread+0x210>
    6d29:	4d 85 ed             	test   %r13,%r13
    6d2c:	0f 85 c8 00 00 00    	jne    6dfa <do_init_thread+0x1ca>
    6d32:	66 0f 1f 44 00 00    	nopw   0x0(%rax,%rax,1)
    6d38:	48 c7 44 24 18 00 00 	movq   $0x0,0x18(%rsp)
    6d3f:	00 00 
    6d41:	48 c7 44 24 20 00 00 	movq   $0x0,0x20(%rsp)
    6d48:	00 00 
    6d4a:	e8 a9 b3 00 00       	call   120f8 <get_enclave_base>
    6d4f:	48 8d 54 24 20       	lea    0x20(%rsp),%rdx
    6d54:	48 8d 74 24 18       	lea    0x18(%rsp),%rsi
    6d59:	48 89 c7             	mov    %rax,%rdi
    6d5c:	e8 3f 19 00 00       	call   86a0 <elf_tls_info>
    6d61:	89 c2                	mov    %eax,%edx
    6d63:	b8 01 00 00 00       	mov    $0x1,%eax
    6d68:	85 d2                	test   %edx,%edx
    6d6a:	75 0a                	jne    6d76 <do_init_thread+0x146>
    6d6c:	48 83 7c 24 18 00    	cmpq   $0x0,0x18(%rsp)
    6d72:	75 2c                	jne    6da0 <do_init_thread+0x170>
    6d74:	31 c0                	xor    %eax,%eax
    6d76:	48 8b 54 24 28       	mov    0x28(%rsp),%rdx
    6d7b:	64 48 2b 14 25 28 00 	sub    %fs:0x28,%rdx
    6d82:	00 00 
    6d84:	0f 85 00 01 00 00    	jne    6e8a <do_init_thread+0x25a>
    6d8a:	48 83 c4 38          	add    $0x38,%rsp
    6d8e:	5b                   	pop    %rbx
    6d8f:	5d                   	pop    %rbp
    6d90:	41 5c                	pop    %r12
    6d92:	41 5d                	pop    %r13
    6d94:	41 5e                	pop    %r14
    6d96:	41 5f                	pop    %r15
    6d98:	c3                   	ret    
    6d99:	0f 1f 80 00 00 00 00 	nopl   0x0(%rax)
    6da0:	48 8b 03             	mov    (%rbx),%rax
    6da3:	48 8b 7b 68          	mov    0x68(%rbx),%rdi
    6da7:	31 f6                	xor    %esi,%esi
    6da9:	48 8d 90 ff 0f 00 00 	lea    0xfff(%rax),%rdx
    6db0:	48 29 fa             	sub    %rdi,%rdx
    6db3:	48 81 e7 00 f0 ff ff 	and    $0xfffffffffffff000,%rdi
    6dba:	48 81 e2 00 f0 ff ff 	and    $0xfffffffffffff000,%rdx
    6dc1:	e8 ea 9b 00 00       	call   109b0 <memset>
    6dc6:	48 8b 7b 68          	mov    0x68(%rbx),%rdi
    6dca:	48 8b 03             	mov    (%rbx),%rax
    6dcd:	48 8b 54 24 20       	mov    0x20(%rsp),%rdx
    6dd2:	48 8b 74 24 18       	mov    0x18(%rsp),%rsi
    6dd7:	48 29 f8             	sub    %rdi,%rax
    6dda:	48 39 d0             	cmp    %rdx,%rax
    6ddd:	72 95                	jb     6d74 <do_init_thread+0x144>
    6ddf:	e8 8c 99 00 00       	call   10770 <memcpy>
    6de4:	eb 8e                	jmp    6d74 <do_init_thread+0x144>
    6de6:	66 2e 0f 1f 84 00 00 	cs nopw 0x0(%rax,%rax,1)
    6ded:	00 00 00 
    6df0:	83 f8 01             	cmp    $0x1,%eax
    6df3:	74 7b                	je     6e70 <do_init_thread+0x240>
    6df5:	4d 85 ed             	test   %r13,%r13
    6df8:	74 5e                	je     6e58 <do_init_thread+0x228>
    6dfa:	4c 89 ab b0 00 00 00 	mov    %r13,0xb0(%rbx)
    6e01:	e9 32 ff ff ff       	jmp    6d38 <do_init_thread+0x108>
    6e06:	66 2e 0f 1f 84 00 00 	cs nopw 0x0(%rax,%rax,1)
    6e0d:	00 00 00 
    6e10:	8b 00                	mov    (%rax),%eax
    6e12:	45 84 e4             	test   %r12b,%r12b
    6e15:	74 d9                	je     6df0 <do_init_thread+0x1c0>
    6e17:	48 c7 43 30 01 00 00 	movq   $0x1,0x30(%rbx)
    6e1e:	00 
    6e1f:	83 f8 01             	cmp    $0x1,%eax
    6e22:	74 5c                	je     6e80 <do_init_thread+0x250>
    6e24:	4d 85 ed             	test   %r13,%r13
    6e27:	75 d1                	jne    6dfa <do_init_thread+0x1ca>
    6e29:	e8 52 f5 ff ff       	call   6380 <get_dynamic_stack_max_page>
    6e2e:	89 c0                	mov    %eax,%eax
    6e30:	48 c1 e0 0c          	shl    $0xc,%rax
    6e34:	48 01 83 b0 00 00 00 	add    %rax,0xb0(%rbx)
    6e3b:	e9 f8 fe ff ff       	jmp    6d38 <do_init_thread+0x108>
    6e40:	48 c7 43 50 01 00 00 	movq   $0x1,0x50(%rbx)
    6e47:	00 
    6e48:	4d 85 ed             	test   %r13,%r13
    6e4b:	75 ad                	jne    6dfa <do_init_thread+0x1ca>
    6e4d:	e9 e6 fe ff ff       	jmp    6d38 <do_init_thread+0x108>
    6e52:	66 0f 1f 44 00 00    	nopw   0x0(%rax,%rax,1)
    6e58:	48 89 ef             	mov    %rbp,%rdi
    6e5b:	e8 50 f4 ff ff       	call   62b0 <is_dynamic_thread>
    6e60:	85 c0                	test   %eax,%eax
    6e62:	75 c5                	jne    6e29 <do_init_thread+0x1f9>
    6e64:	e9 cf fe ff ff       	jmp    6d38 <do_init_thread+0x108>
    6e69:	0f 1f 80 00 00 00 00 	nopl   0x0(%rax)
    6e70:	48 c7 43 50 01 00 00 	movq   $0x1,0x50(%rbx)
    6e77:	00 
    6e78:	e9 78 ff ff ff       	jmp    6df5 <do_init_thread+0x1c5>
    6e7d:	0f 1f 00             	nopl   (%rax)
    6e80:	48 c7 43 50 01 00 00 	movq   $0x1,0x50(%rbx)
    6e87:	00 
    6e88:	eb 9a                	jmp    6e24 <do_init_thread+0x1f4>
    6e8a:	e8 71 9c 00 00       	call   10b00 <__stack_chk_fail>
    6e8f:	90                   	nop

0000000000006e90 <do_ecall>:
    6e90:	f3 0f 1e fa          	endbr64 
    6e94:	53                   	push   %rbx
    6e95:	48 89 d3             	mov    %rdx,%rbx
    6e98:	48 83 c4 80          	add    $0xffffffffffffff80,%rsp
    6e9c:	89 7c 24 20          	mov    %edi,0x20(%rsp)
    6ea0:	48 89 74 24 08       	mov    %rsi,0x8(%rsp)
    6ea5:	64 48 8b 04 25 28 00 	mov    %fs:0x28,%rax
    6eac:	00 00 
    6eae:	48 89 44 24 78       	mov    %rax,0x78(%rsp)
    6eb3:	31 c0                	xor    %eax,%eax
    6eb5:	e8 4a b2 00 00       	call   12104 <get_enclave_state>
    6eba:	89 c2                	mov    %eax,%edx
    6ebc:	b8 01 00 00 00       	mov    $0x1,%eax
    6ec1:	83 fa 02             	cmp    $0x2,%edx
    6ec4:	74 1a                	je     6ee0 <do_ecall+0x50>
    6ec6:	48 8b 54 24 78       	mov    0x78(%rsp),%rdx
    6ecb:	64 48 2b 14 25 28 00 	sub    %fs:0x28,%rdx
    6ed2:	00 00 
    6ed4:	0f 85 0c 02 00 00    	jne    70e6 <do_ecall+0x256>
    6eda:	48 83 ec 80          	sub    $0xffffffffffffff80,%rsp
    6ede:	5b                   	pop    %rbx
    6edf:	c3                   	ret    
    6ee0:	e8 5e b2 00 00       	call   12143 <get_thread_data>
    6ee5:	48 89 44 24 10       	mov    %rax,0x10(%rsp)
    6eea:	48 85 c0             	test   %rax,%rax
    6eed:	0f 84 31 01 00 00    	je     7024 <do_ecall+0x194>
    6ef3:	48 8b 44 24 10       	mov    0x10(%rsp),%rax
    6ef8:	48 8b 48 08          	mov    0x8(%rax),%rcx
    6efc:	48 39 48 10          	cmp    %rcx,0x10(%rax)
    6f00:	0f 84 0a 01 00 00    	je     7010 <do_ecall+0x180>
    6f06:	e8 38 b2 00 00       	call   12143 <get_thread_data>
    6f0b:	48 83 78 50 01       	cmpq   $0x1,0x50(%rax)
    6f10:	48 89 44 24 18       	mov    %rax,0x18(%rsp)
    6f15:	0f 84 25 01 00 00    	je     7040 <do_ecall+0x1b0>
    6f1b:	48 8b 44 24 18       	mov    0x18(%rsp),%rax
    6f20:	48 8b 48 08          	mov    0x8(%rax),%rcx
    6f24:	48 39 48 10          	cmp    %rcx,0x10(%rax)
    6f28:	74 56                	je     6f80 <do_ecall+0xf0>
    6f2a:	48 8b 74 24 08       	mov    0x8(%rsp),%rsi
    6f2f:	8b 7c 24 20          	mov    0x20(%rsp),%edi
    6f33:	e8 b8 fa ff ff       	call   69f0 <_ZL10trts_ecalljPv>
    6f38:	48 8b 5c 24 18       	mov    0x18(%rsp),%rbx
    6f3d:	48 89 5c 24 10       	mov    %rbx,0x10(%rsp)
    6f42:	48 8d 15 37 c2 00 00 	lea    0xc237(%rip),%rdx        # 13180 <g_global_data>
    6f49:	48 8b 52 38          	mov    0x38(%rdx),%rdx
    6f4d:	48 85 d2             	test   %rdx,%rdx
    6f50:	0f 84 70 ff ff ff    	je     6ec6 <do_ecall+0x36>
    6f56:	48 8b 4c 24 10       	mov    0x10(%rsp),%rcx
    6f5b:	48 8b 59 08          	mov    0x8(%rcx),%rbx
    6f5f:	48 39 59 10          	cmp    %rbx,0x10(%rcx)
    6f63:	0f 85 5d ff ff ff    	jne    6ec6 <do_ecall+0x36>
    6f69:	89 44 24 2c          	mov    %eax,0x2c(%rsp)
    6f6d:	e8 ae fc ff ff       	call   6c20 <tc_set_idle>
    6f72:	8b 44 24 2c          	mov    0x2c(%rsp),%eax
    6f76:	e9 4b ff ff ff       	jmp    6ec6 <do_ecall+0x36>
    6f7b:	0f 1f 44 00 00       	nopl   0x0(%rax,%rax,1)
    6f80:	31 ff                	xor    %edi,%edi
    6f82:	e8 f9 ef ff ff       	call   5f80 <sgx_wrpkru>
    6f87:	e8 34 fc ff ff       	call   6bc0 <_Z16_pthread_enabledv>
    6f8c:	84 c0                	test   %al,%al
    6f8e:	0f 84 0c 01 00 00    	je     70a0 <do_ecall+0x210>
    6f94:	48 8b 44 24 18       	mov    0x18(%rsp),%rax
    6f99:	66 0f ef c0          	pxor   %xmm0,%xmm0
    6f9d:	48 8d 7c 24 30       	lea    0x30(%rsp),%rdi
    6fa2:	0f 29 44 24 30       	movaps %xmm0,0x30(%rsp)
    6fa7:	48 89 44 24 10       	mov    %rax,0x10(%rsp)
    6fac:	0f 29 44 24 40       	movaps %xmm0,0x40(%rsp)
    6fb1:	0f 29 44 24 50       	movaps %xmm0,0x50(%rsp)
    6fb6:	0f 29 44 24 60       	movaps %xmm0,0x60(%rsp)
    6fbb:	e8 72 9e 00 00       	call   10e32 <setjmp>
    6fc0:	f3 0f 1e fa          	endbr64 
    6fc4:	85 c0                	test   %eax,%eax
    6fc6:	0f 84 94 00 00 00    	je     7060 <do_ecall+0x1d0>
    6fcc:	48 8b 4c 24 18       	mov    0x18(%rsp),%rcx
    6fd1:	48 8b 41 10          	mov    0x10(%rcx),%rax
    6fd5:	48 89 41 08          	mov    %rax,0x8(%rcx)
    6fd9:	b8 09 00 00 00       	mov    $0x9,%eax
    6fde:	bf 09 00 00 00       	mov    $0x9,%edi
    6fe3:	89 44 24 28          	mov    %eax,0x28(%rsp)
    6fe7:	e8 e4 fb ff ff       	call   6bd0 <_Z24_pthread_tls_store_state9_status_t>
    6fec:	8b 44 24 28          	mov    0x28(%rsp),%eax
    6ff0:	89 44 24 24          	mov    %eax,0x24(%rsp)
    6ff4:	e8 17 fc ff ff       	call   6c10 <_Z24_pthread_tls_destructorsv>
    6ff9:	48 8b 7c 24 08       	mov    0x8(%rsp),%rdi
    6ffe:	e8 fd fb ff ff       	call   6c00 <_Z20_pthread_wakeup_joinPv>
    7003:	8b 44 24 24          	mov    0x24(%rsp),%eax
    7007:	e9 36 ff ff ff       	jmp    6f42 <do_ecall+0xb2>
    700c:	0f 1f 40 00          	nopl   0x0(%rax)
    7010:	48 8d 05 69 c1 00 00 	lea    0xc169(%rip),%rax        # 13180 <g_global_data>
    7017:	48 8b 40 38          	mov    0x38(%rax),%rax
    701b:	48 85 c0             	test   %rax,%rax
    701e:	0f 84 a4 00 00 00    	je     70c8 <do_ecall+0x238>
    7024:	31 f6                	xor    %esi,%esi
    7026:	48 89 df             	mov    %rbx,%rdi
    7029:	e8 02 fc ff ff       	call   6c30 <do_init_thread>
    702e:	85 c0                	test   %eax,%eax
    7030:	0f 84 d0 fe ff ff    	je     6f06 <do_ecall+0x76>
    7036:	e9 8b fe ff ff       	jmp    6ec6 <do_ecall+0x36>
    703b:	0f 1f 44 00 00       	nopl   0x0(%rax,%rax,1)
    7040:	48 8b 44 24 18       	mov    0x18(%rsp),%rax
    7045:	bf 01 00 00 00       	mov    $0x1,%edi
    704a:	48 c7 40 50 00 00 00 	movq   $0x0,0x50(%rax)
    7051:	00 
    7052:	e8 49 f5 ff ff       	call   65a0 <sgx_set_ssa_aexnotify>
    7057:	e9 bf fe ff ff       	jmp    6f1b <do_ecall+0x8b>
    705c:	0f 1f 40 00          	nopl   0x0(%rax)
    7060:	48 8d 7c 24 30       	lea    0x30(%rsp),%rdi
    7065:	e8 86 fb ff ff       	call   6bf0 <_Z26_pthread_tls_store_contextPv>
    706a:	0f c7 f0             	rdrand %eax
    706d:	73 fb                	jae    706a <do_ecall+0x1da>
    706f:	8b 5c 24 20          	mov    0x20(%rsp),%ebx
    7073:	48 8b 74 24 08       	mov    0x8(%rsp),%rsi
    7078:	89 df                	mov    %ebx,%edi
    707a:	e8 31 fb ff ff       	call   6bb0 <_Z30_random_stack_noinline_wrapperI9_status_tJjPvEJRiRS1_EET_PFS4_DpT0_EDpOT1_.constprop.0.isra.0>
    707f:	83 fb fa             	cmp    $0xfffffffa,%ebx
    7082:	0f 84 56 ff ff ff    	je     6fde <do_ecall+0x14e>
    7088:	83 f8 09             	cmp    $0x9,%eax
    708b:	0f 85 5f ff ff ff    	jne    6ff0 <do_ecall+0x160>
    7091:	e9 43 ff ff ff       	jmp    6fd9 <do_ecall+0x149>
    7096:	66 2e 0f 1f 84 00 00 	cs nopw 0x0(%rax,%rax,1)
    709d:	00 00 00 
    70a0:	0f c7 f0             	rdrand %eax
    70a3:	73 fb                	jae    70a0 <do_ecall+0x210>
    70a5:	48 8b 74 24 08       	mov    0x8(%rsp),%rsi
    70aa:	8b 7c 24 20          	mov    0x20(%rsp),%edi
    70ae:	e8 fd fa ff ff       	call   6bb0 <_Z30_random_stack_noinline_wrapperI9_status_tJjPvEJRiRS1_EET_PFS4_DpT0_EDpOT1_.constprop.0.isra.0>
    70b3:	48 8b 4c 24 18       	mov    0x18(%rsp),%rcx
    70b8:	48 89 4c 24 10       	mov    %rcx,0x10(%rsp)
    70bd:	e9 80 fe ff ff       	jmp    6f42 <do_ecall+0xb2>
    70c2:	66 0f 1f 44 00 00    	nopw   0x0(%rax,%rax,1)
    70c8:	e8 13 fb ff ff       	call   6be0 <_Z22_pthread_tls_get_statev>
    70cd:	83 7c 24 20 fa       	cmpl   $0xfffffffa,0x20(%rsp)
    70d2:	0f 84 4c ff ff ff    	je     7024 <do_ecall+0x194>
    70d8:	83 f8 09             	cmp    $0x9,%eax
    70db:	0f 85 25 fe ff ff    	jne    6f06 <do_ecall+0x76>
    70e1:	e9 3e ff ff ff       	jmp    7024 <do_ecall+0x194>
    70e6:	e8 15 9a 00 00       	call   10b00 <__stack_chk_fail>
    70eb:	0f 1f 44 00 00       	nopl   0x0(%rax,%rax,1)

00000000000070f0 <do_ecall_add_thread>:
    70f0:	f3 0f 1e fa          	endbr64 
    70f4:	55                   	push   %rbp
    70f5:	53                   	push   %rbx
    70f6:	48 89 fb             	mov    %rdi,%rbx
    70f9:	48 83 ec 08          	sub    $0x8,%rsp
    70fd:	e8 5e 06 00 00       	call   7760 <is_utility_thread>
    7102:	48 85 db             	test   %rbx,%rbx
    7105:	0f 84 a5 00 00 00    	je     71b0 <do_ecall_add_thread+0xc0>
    710b:	3c 01                	cmp    $0x1,%al
    710d:	0f 85 9d 00 00 00    	jne    71b0 <do_ecall_add_thread+0xc0>
    7113:	be 08 00 00 00       	mov    $0x8,%esi
    7118:	48 89 df             	mov    %rbx,%rdi
    711b:	e8 40 eb ff ff       	call   5c60 <sgx_is_outside_enclave>
    7120:	85 c0                	test   %eax,%eax
    7122:	0f 84 88 00 00 00    	je     71b0 <do_ecall_add_thread+0xc0>
    7128:	0f ae e8             	lfence 
    712b:	48 8b 2b             	mov    (%rbx),%rbp
    712e:	48 85 ed             	test   %rbp,%rbp
    7131:	74 7d                	je     71b0 <do_ecall_add_thread+0xc0>
    7133:	0f ae e8             	lfence 
    7136:	48 89 ef             	mov    %rbp,%rdi
    7139:	e8 02 f7 ff ff       	call   6840 <_ZL11do_save_tcsPv>
    713e:	89 c3                	mov    %eax,%ebx
    7140:	85 c0                	test   %eax,%eax
    7142:	75 71                	jne    71b5 <do_ecall_add_thread+0xc5>
    7144:	48 89 ef             	mov    %rbp,%rdi
    7147:	e8 94 f2 ff ff       	call   63e0 <do_add_thread>
    714c:	89 c3                	mov    %eax,%ebx
    714e:	85 c0                	test   %eax,%eax
    7150:	74 63                	je     71b5 <do_ecall_add_thread+0xc5>
    7152:	e8 09 06 00 00       	call   7760 <is_utility_thread>
    7157:	84 c0                	test   %al,%al
    7159:	74 5a                	je     71b5 <do_ecall_add_thread+0xc5>
    715b:	48 8b 0d 1e 30 01 00 	mov    0x1301e(%rip),%rcx        # 1a180 <_ZL10g_tcs_node>
    7162:	48 85 c9             	test   %rcx,%rcx
    7165:	74 4e                	je     71b5 <do_ecall_add_thread+0xc5>
    7167:	48 8b 35 0a 30 01 00 	mov    0x1300a(%rip),%rsi        # 1a178 <_ZL12g_tcs_cookie>
    716e:	48 8b 01             	mov    (%rcx),%rax
    7171:	48 8b 79 08          	mov    0x8(%rcx),%rdi
    7175:	48 31 f0             	xor    %rsi,%rax
    7178:	48 39 c5             	cmp    %rax,%rbp
    717b:	74 41                	je     71be <do_ecall_add_thread+0xce>
    717d:	48 85 ff             	test   %rdi,%rdi
    7180:	75 11                	jne    7193 <do_ecall_add_thread+0xa3>
    7182:	eb 31                	jmp    71b5 <do_ecall_add_thread+0xc5>
    7184:	0f 1f 40 00          	nopl   0x0(%rax)
    7188:	48 89 f9             	mov    %rdi,%rcx
    718b:	48 85 c0             	test   %rax,%rax
    718e:	74 25                	je     71b5 <do_ecall_add_thread+0xc5>
    7190:	48 89 c7             	mov    %rax,%rdi
    7193:	48 8b 17             	mov    (%rdi),%rdx
    7196:	48 8b 47 08          	mov    0x8(%rdi),%rax
    719a:	48 31 f2             	xor    %rsi,%rdx
    719d:	48 39 d5             	cmp    %rdx,%rbp
    71a0:	75 e6                	jne    7188 <do_ecall_add_thread+0x98>
    71a2:	48 89 41 08          	mov    %rax,0x8(%rcx)
    71a6:	e8 15 7e 00 00       	call   efc0 <dlfree>
    71ab:	eb 08                	jmp    71b5 <do_ecall_add_thread+0xc5>
    71ad:	0f 1f 00             	nopl   (%rax)
    71b0:	bb 01 00 00 00       	mov    $0x1,%ebx
    71b5:	48 83 c4 08          	add    $0x8,%rsp
    71b9:	89 d8                	mov    %ebx,%eax
    71bb:	5b                   	pop    %rbx
    71bc:	5d                   	pop    %rbp
    71bd:	c3                   	ret    
    71be:	48 89 3d bb 2f 01 00 	mov    %rdi,0x12fbb(%rip)        # 1a180 <_ZL10g_tcs_node>
    71c5:	48 89 cf             	mov    %rcx,%rdi
    71c8:	e8 f3 7d 00 00       	call   efc0 <dlfree>
    71cd:	eb e6                	jmp    71b5 <do_ecall_add_thread+0xc5>
    71cf:	90                   	nop

00000000000071d0 <do_uninit_enclave>:
    71d0:	f3 0f 1e fa          	endbr64 
    71d4:	48 8d 05 51 0c 01 00 	lea    0x10c51(%rip),%rax        # 17e2c <EDMM_supported>
    71db:	41 54                	push   %r12
    71dd:	55                   	push   %rbp
    71de:	53                   	push   %rbx
    71df:	8b 00                	mov    (%rax),%eax
    71e1:	85 c0                	test   %eax,%eax
    71e3:	0f 84 a4 00 00 00    	je     728d <do_uninit_enclave+0xbd>
    71e9:	49 89 fc             	mov    %rdi,%r12
    71ec:	e8 6f 05 00 00       	call   7760 <is_utility_thread>
    71f1:	84 c0                	test   %al,%al
    71f3:	0f 84 87 00 00 00    	je     7280 <do_uninit_enclave+0xb0>
    71f9:	f0 83 0d 6f 2f 01 00 	lock orl $0x1,0x12f6f(%rip)        # 1a170 <g_uninit_flag>
    7200:	01 
    7201:	48 8b 1d 78 2f 01 00 	mov    0x12f78(%rip),%rbx        # 1a180 <_ZL10g_tcs_node>
    7208:	48 c7 05 6d 2f 01 00 	movq   $0x0,0x12f6d(%rip)        # 1a180 <_ZL10g_tcs_node>
    720f:	00 00 00 00 
    7213:	eb 2f                	jmp    7244 <do_uninit_enclave+0x74>
    7215:	0f 1f 00             	nopl   (%rax)
    7218:	48 8b 3b             	mov    (%rbx),%rdi
    721b:	48 33 3d 56 2f 01 00 	xor    0x12f56(%rip),%rdi        # 1a178 <_ZL12g_tcs_cookie>
    7222:	4c 39 e7             	cmp    %r12,%rdi
    7225:	74 0e                	je     7235 <do_uninit_enclave+0x65>
    7227:	be 00 10 00 00       	mov    $0x1000,%esi
    722c:	e8 4f 48 00 00       	call   ba80 <mm_dealloc>
    7231:	85 c0                	test   %eax,%eax
    7233:	75 58                	jne    728d <do_uninit_enclave+0xbd>
    7235:	48 8b 6b 08          	mov    0x8(%rbx),%rbp
    7239:	48 89 df             	mov    %rbx,%rdi
    723c:	e8 7f 7d 00 00       	call   efc0 <dlfree>
    7241:	48 89 eb             	mov    %rbp,%rbx
    7244:	48 85 db             	test   %rbx,%rbx
    7247:	75 cf                	jne    7218 <do_uninit_enclave+0x48>
    7249:	48 8d 1d 24 2f 01 00 	lea    0x12f24(%rip),%rbx        # 1a174 <_ZL10g_ife_lock>
    7250:	48 89 df             	mov    %rbx,%rdi
    7253:	e8 b8 55 00 00       	call   c810 <sgx_spin_lock>
    7258:	0f b6 05 c1 0f 01 00 	movzbl 0x10fc1(%rip),%eax        # 18220 <_ZL16g_is_first_ecall>
    725f:	84 c0                	test   %al,%al
    7261:	74 45                	je     72a8 <do_uninit_enclave+0xd8>
    7263:	48 89 df             	mov    %rbx,%rdi
    7266:	e8 35 56 00 00       	call   c8a0 <sgx_spin_unlock>
    726b:	bf 03 00 00 00       	mov    $0x3,%edi
    7270:	e8 a0 ae 00 00       	call   12115 <set_enclave_state>
    7275:	5b                   	pop    %rbx
    7276:	31 c0                	xor    %eax,%eax
    7278:	5d                   	pop    %rbp
    7279:	41 5c                	pop    %r12
    727b:	c3                   	ret    
    727c:	0f 1f 40 00          	nopl   0x0(%rax)
    7280:	e8 8b f0 ff ff       	call   6310 <is_dynamic_thread_exist>
    7285:	85 c0                	test   %eax,%eax
    7287:	0f 84 6c ff ff ff    	je     71f9 <do_uninit_enclave+0x29>
    728d:	bf 03 00 00 00       	mov    $0x3,%edi
    7292:	e8 7e ae 00 00       	call   12115 <set_enclave_state>
    7297:	5b                   	pop    %rbx
    7298:	b8 01 00 00 00       	mov    $0x1,%eax
    729d:	5d                   	pop    %rbp
    729e:	41 5c                	pop    %r12
    72a0:	c3                   	ret    
    72a1:	0f 1f 80 00 00 00 00 	nopl   0x0(%rax)
    72a8:	e8 43 1b 00 00       	call   8df0 <uninit_global_object>
    72ad:	eb b4                	jmp    7263 <do_uninit_enclave+0x93>
    72af:	90                   	nop

00000000000072b0 <sgx_ocall>:
    72b0:	f3 0f 1e fa          	endbr64 
    72b4:	8d 47 07             	lea    0x7(%rdi),%eax
    72b7:	83 f8 05             	cmp    $0x5,%eax
    72ba:	76 12                	jbe    72ce <sgx_ocall+0x1e>
    72bc:	85 ff                	test   %edi,%edi
    72be:	74 0e                	je     72ce <sgx_ocall+0x1e>
    72c0:	48 8d 15 69 bd 00 00 	lea    0xbd69(%rip),%rdx        # 13030 <g_dyn_entry_table>
    72c7:	89 f8                	mov    %edi,%eax
    72c9:	48 3b 02             	cmp    (%rdx),%rax
    72cc:	73 0a                	jae    72d8 <sgx_ocall+0x28>
    72ce:	e9 0c b1 00 00       	jmp    123df <__morestack>
    72d3:	0f 1f 44 00 00       	nopl   0x0(%rax,%rax,1)
    72d8:	b8 01 10 00 00       	mov    $0x1001,%eax
    72dd:	c3                   	ret    
    72de:	66 90                	xchg   %ax,%ax

00000000000072e0 <update_ocall_lastsp>:
    72e0:	f3 0f 1e fa          	endbr64 
    72e4:	53                   	push   %rbx
    72e5:	48 89 fb             	mov    %rdi,%rbx
    72e8:	e8 56 ae 00 00       	call   12143 <get_thread_data>
    72ed:	b9 01 00 00 00       	mov    $0x1,%ecx
    72f2:	48 8b 50 08          	mov    0x8(%rax),%rdx
    72f6:	48 89 53 30          	mov    %rdx,0x30(%rbx)
    72fa:	48 39 50 10          	cmp    %rdx,0x10(%rax)
    72fe:	74 0b                	je     730b <update_ocall_lastsp+0x2b>
    7300:	48 8b b2 90 00 00 00 	mov    0x90(%rdx),%rsi
    7307:	48 8d 4e 01          	lea    0x1(%rsi),%rcx
    730b:	48 89 8b 90 00 00 00 	mov    %rcx,0x90(%rbx)
    7312:	48 89 58 08          	mov    %rbx,0x8(%rax)
    7316:	48 89 d0             	mov    %rdx,%rax
    7319:	5b                   	pop    %rbx
    731a:	c3                   	ret    
    731b:	0f 1f 44 00 00       	nopl   0x0(%rax,%rax,1)

0000000000007320 <do_oret>:
    7320:	f3 0f 1e fa          	endbr64 
    7324:	55                   	push   %rbp
    7325:	48 89 fd             	mov    %rdi,%rbp
    7328:	53                   	push   %rbx
    7329:	48 83 ec 18          	sub    $0x18,%rsp
    732d:	64 48 8b 04 25 28 00 	mov    %fs:0x28,%rax
    7334:	00 00 
    7336:	48 89 44 24 08       	mov    %rax,0x8(%rsp)
    733b:	31 c0                	xor    %eax,%eax
    733d:	e8 01 ae 00 00       	call   12143 <get_thread_data>
    7342:	48 83 78 50 01       	cmpq   $0x1,0x50(%rax)
    7347:	48 89 c3             	mov    %rax,%rbx
    734a:	74 74                	je     73c0 <do_oret+0xa0>
    734c:	48 8b 7b 08          	mov    0x8(%rbx),%rdi
    7350:	48 89 e0             	mov    %rsp,%rax
    7353:	48 89 3c 24          	mov    %rdi,(%rsp)
    7357:	48 39 f8             	cmp    %rdi,%rax
    735a:	72 24                	jb     7380 <do_oret+0x60>
    735c:	48 8b 44 24 08       	mov    0x8(%rsp),%rax
    7361:	64 48 2b 04 25 28 00 	sub    %fs:0x28,%rax
    7368:	00 00 
    736a:	75 6b                	jne    73d7 <do_oret+0xb7>
    736c:	48 83 c4 18          	add    $0x18,%rsp
    7370:	b8 01 00 00 00       	mov    $0x1,%eax
    7375:	5b                   	pop    %rbx
    7376:	5d                   	pop    %rbp
    7377:	c3                   	ret    
    7378:	0f 1f 84 00 00 00 00 	nopl   0x0(%rax,%rax,1)
    737f:	00 
    7380:	48 8b 43 10          	mov    0x10(%rbx),%rax
    7384:	48 8d 90 10 ff ff ff 	lea    -0xf0(%rax),%rdx
    738b:	48 39 fa             	cmp    %rdi,%rdx
    738e:	72 cc                	jb     735c <do_oret+0x3c>
    7390:	48 81 7f 20 44 49 43 	cmpq   $0x4f434944,0x20(%rdi)
    7397:	4f 
    7398:	75 c2                	jne    735c <do_oret+0x3c>
    739a:	48 8b 57 30          	mov    0x30(%rdi),%rdx
    739e:	48 39 d7             	cmp    %rdx,%rdi
    73a1:	73 b9                	jae    735c <do_oret+0x3c>
    73a3:	48 39 d0             	cmp    %rdx,%rax
    73a6:	72 b4                	jb     735c <do_oret+0x3c>
    73a8:	48 89 53 08          	mov    %rdx,0x8(%rbx)
    73ac:	48 89 ee             	mov    %rbp,%rsi
    73af:	e8 3e b0 00 00       	call   123f2 <asm_oret>
    73b4:	eb a6                	jmp    735c <do_oret+0x3c>
    73b6:	66 2e 0f 1f 84 00 00 	cs nopw 0x0(%rax,%rax,1)
    73bd:	00 00 00 
    73c0:	48 c7 40 50 00 00 00 	movq   $0x0,0x50(%rax)
    73c7:	00 
    73c8:	bf 01 00 00 00       	mov    $0x1,%edi
    73cd:	e8 ce f1 ff ff       	call   65a0 <sgx_set_ssa_aexnotify>
    73d2:	e9 75 ff ff ff       	jmp    734c <do_oret+0x2c>
    73d7:	e8 24 97 00 00       	call   10b00 <__stack_chk_fail>
    73dc:	0f 1f 40 00          	nopl   0x0(%rax)

00000000000073e0 <get_enclave_size>:
    73e0:	f3 0f 1e fa          	endbr64 
    73e4:	48 8d 05 95 bd 00 00 	lea    0xbd95(%rip),%rax        # 13180 <g_global_data>
    73eb:	48 8b 40 08          	mov    0x8(%rax),%rax
    73ef:	c3                   	ret    

00000000000073f0 <get_enclave_end>:
    73f0:	f3 0f 1e fa          	endbr64 
    73f4:	48 83 ec 08          	sub    $0x8,%rsp
    73f8:	e8 fb ac 00 00       	call   120f8 <get_enclave_base>
    73fd:	48 8d 15 7c bd 00 00 	lea    0xbd7c(%rip),%rdx        # 13180 <g_global_data>
    7404:	48 8b 52 08          	mov    0x8(%rdx),%rdx
    7408:	48 83 c4 08          	add    $0x8,%rsp
    740c:	48 8d 44 02 ff       	lea    -0x1(%rdx,%rax,1),%rax
    7411:	c3                   	ret    
    7412:	66 2e 0f 1f 84 00 00 	cs nopw 0x0(%rax,%rax,1)
    7419:	00 00 00 
    741c:	0f 1f 40 00          	nopl   0x0(%rax)

0000000000007420 <get_heap_base>:
    7420:	f3 0f 1e fa          	endbr64 
    7424:	48 83 ec 08          	sub    $0x8,%rsp
    7428:	e8 cb ac 00 00       	call   120f8 <get_enclave_base>
    742d:	48 8d 15 4c bd 00 00 	lea    0xbd4c(%rip),%rdx        # 13180 <g_global_data>
    7434:	48 8b 52 10          	mov    0x10(%rdx),%rdx
    7438:	48 83 c4 08          	add    $0x8,%rsp
    743c:	48 01 d0             	add    %rdx,%rax
    743f:	c3                   	ret    

0000000000007440 <get_heap_size>:
    7440:	f3 0f 1e fa          	endbr64 
    7444:	48 8d 05 e1 09 01 00 	lea    0x109e1(%rip),%rax        # 17e2c <EDMM_supported>
    744b:	48 8d 0d 2e bd 00 00 	lea    0xbd2e(%rip),%rcx        # 13180 <g_global_data>
    7452:	8b 00                	mov    (%rax),%eax
    7454:	48 8b 79 18          	mov    0x18(%rcx),%rdi
    7458:	85 c0                	test   %eax,%eax
    745a:	74 41                	je     749d <get_heap_size+0x5d>
    745c:	8b 81 58 01 00 00    	mov    0x158(%rcx),%eax
    7462:	85 c0                	test   %eax,%eax
    7464:	74 37                	je     749d <get_heap_size+0x5d>
    7466:	31 d2                	xor    %edx,%edx
    7468:	0f 1f 84 00 00 00 00 	nopl   0x0(%rax,%rax,1)
    746f:	00 
    7470:	89 d0                	mov    %edx,%eax
    7472:	48 83 c0 0b          	add    $0xb,%rax
    7476:	48 c1 e0 05          	shl    $0x5,%rax
    747a:	48 01 c8             	add    %rcx,%rax
    747d:	0f b7 30             	movzwl (%rax),%esi
    7480:	66 83 fe 03          	cmp    $0x3,%si
    7484:	75 0a                	jne    7490 <get_heap_size+0x50>
    7486:	8b 40 04             	mov    0x4(%rax),%eax
    7489:	48 c1 e0 0c          	shl    $0xc,%rax
    748d:	48 01 c7             	add    %rax,%rdi
    7490:	8b 81 58 01 00 00    	mov    0x158(%rcx),%eax
    7496:	83 c2 01             	add    $0x1,%edx
    7499:	39 c2                	cmp    %eax,%edx
    749b:	72 d3                	jb     7470 <get_heap_size+0x30>
    749d:	48 89 f8             	mov    %rdi,%rax
    74a0:	c3                   	ret    
    74a1:	66 2e 0f 1f 84 00 00 	cs nopw 0x0(%rax,%rax,1)
    74a8:	00 00 00 
    74ab:	0f 1f 44 00 00       	nopl   0x0(%rax,%rax,1)

00000000000074b0 <get_heap_min_size>:
    74b0:	f3 0f 1e fa          	endbr64 
    74b4:	48 8d 0d c5 bc 00 00 	lea    0xbcc5(%rip),%rcx        # 13180 <g_global_data>
    74bb:	8b 81 58 01 00 00    	mov    0x158(%rcx),%eax
    74c1:	85 c0                	test   %eax,%eax
    74c3:	74 3b                	je     7500 <get_heap_min_size+0x50>
    74c5:	31 d2                	xor    %edx,%edx
    74c7:	eb 14                	jmp    74dd <get_heap_min_size+0x2d>
    74c9:	0f 1f 80 00 00 00 00 	nopl   0x0(%rax)
    74d0:	8b 81 58 01 00 00    	mov    0x158(%rcx),%eax
    74d6:	83 c2 01             	add    $0x1,%edx
    74d9:	39 c2                	cmp    %eax,%edx
    74db:	73 23                	jae    7500 <get_heap_min_size+0x50>
    74dd:	89 d0                	mov    %edx,%eax
    74df:	48 83 c0 0b          	add    $0xb,%rax
    74e3:	48 c1 e0 05          	shl    $0x5,%rax
    74e7:	48 01 c8             	add    %rcx,%rax
    74ea:	0f b7 30             	movzwl (%rax),%esi
    74ed:	66 83 fe 01          	cmp    $0x1,%si
    74f1:	75 dd                	jne    74d0 <get_heap_min_size+0x20>
    74f3:	8b 40 04             	mov    0x4(%rax),%eax
    74f6:	48 c1 e0 0c          	shl    $0xc,%rax
    74fa:	c3                   	ret    
    74fb:	0f 1f 44 00 00       	nopl   0x0(%rax,%rax,1)
    7500:	31 c0                	xor    %eax,%eax
    7502:	c3                   	ret    
    7503:	66 2e 0f 1f 84 00 00 	cs nopw 0x0(%rax,%rax,1)
    750a:	00 00 00 
    750d:	0f 1f 00             	nopl   (%rax)

0000000000007510 <get_rsrv_base>:
    7510:	f3 0f 1e fa          	endbr64 
    7514:	48 83 ec 08          	sub    $0x8,%rsp
    7518:	e8 db ab 00 00       	call   120f8 <get_enclave_base>
    751d:	48 8d 15 5c bc 00 00 	lea    0xbc5c(%rip),%rdx        # 13180 <g_global_data>
    7524:	48 8b 52 20          	mov    0x20(%rdx),%rdx
    7528:	48 83 c4 08          	add    $0x8,%rsp
    752c:	48 01 d0             	add    %rdx,%rax
    752f:	c3                   	ret    

0000000000007530 <get_rsrv_end>:
    7530:	f3 0f 1e fa          	endbr64 
    7534:	48 83 ec 08          	sub    $0x8,%rsp
    7538:	e8 bb ab 00 00       	call   120f8 <get_enclave_base>
    753d:	48 8d 35 3c bc 00 00 	lea    0xbc3c(%rip),%rsi        # 13180 <g_global_data>
    7544:	48 8d 15 e1 08 01 00 	lea    0x108e1(%rip),%rdx        # 17e2c <EDMM_supported>
    754b:	4c 8b 4e 20          	mov    0x20(%rsi),%r9
    754f:	8b 12                	mov    (%rdx),%edx
    7551:	4c 8b 46 28          	mov    0x28(%rsi),%r8
    7555:	49 83 e9 01          	sub    $0x1,%r9
    7559:	85 d2                	test   %edx,%edx
    755b:	74 40                	je     759d <get_rsrv_end+0x6d>
    755d:	8b 96 58 01 00 00    	mov    0x158(%rsi),%edx
    7563:	85 d2                	test   %edx,%edx
    7565:	74 36                	je     759d <get_rsrv_end+0x6d>
    7567:	31 c9                	xor    %ecx,%ecx
    7569:	0f 1f 80 00 00 00 00 	nopl   0x0(%rax)
    7570:	89 ca                	mov    %ecx,%edx
    7572:	48 83 c2 0b          	add    $0xb,%rdx
    7576:	48 c1 e2 05          	shl    $0x5,%rdx
    757a:	48 01 f2             	add    %rsi,%rdx
    757d:	0f b7 3a             	movzwl (%rdx),%edi
    7580:	66 83 ff 16          	cmp    $0x16,%di
    7584:	75 0a                	jne    7590 <get_rsrv_end+0x60>
    7586:	8b 52 04             	mov    0x4(%rdx),%edx
    7589:	48 c1 e2 0c          	shl    $0xc,%rdx
    758d:	49 01 d0             	add    %rdx,%r8
    7590:	8b 96 58 01 00 00    	mov    0x158(%rsi),%edx
    7596:	83 c1 01             	add    $0x1,%ecx
    7599:	39 d1                	cmp    %edx,%ecx
    759b:	72 d3                	jb     7570 <get_rsrv_end+0x40>
    759d:	4c 01 c8             	add    %r9,%rax
    75a0:	48 83 c4 08          	add    $0x8,%rsp
    75a4:	4c 01 c0             	add    %r8,%rax
    75a7:	c3                   	ret    
    75a8:	0f 1f 84 00 00 00 00 	nopl   0x0(%rax,%rax,1)
    75af:	00 

00000000000075b0 <get_rsrv_size>:
    75b0:	f3 0f 1e fa          	endbr64 
    75b4:	48 8d 05 71 08 01 00 	lea    0x10871(%rip),%rax        # 17e2c <EDMM_supported>
    75bb:	48 8d 0d be bb 00 00 	lea    0xbbbe(%rip),%rcx        # 13180 <g_global_data>
    75c2:	8b 00                	mov    (%rax),%eax
    75c4:	48 8b 79 28          	mov    0x28(%rcx),%rdi
    75c8:	85 c0                	test   %eax,%eax
    75ca:	74 41                	je     760d <get_rsrv_size+0x5d>
    75cc:	8b 81 58 01 00 00    	mov    0x158(%rcx),%eax
    75d2:	85 c0                	test   %eax,%eax
    75d4:	74 37                	je     760d <get_rsrv_size+0x5d>
    75d6:	31 d2                	xor    %edx,%edx
    75d8:	0f 1f 84 00 00 00 00 	nopl   0x0(%rax,%rax,1)
    75df:	00 
    75e0:	89 d0                	mov    %edx,%eax
    75e2:	48 83 c0 0b          	add    $0xb,%rax
    75e6:	48 c1 e0 05          	shl    $0x5,%rax
    75ea:	48 01 c8             	add    %rcx,%rax
    75ed:	0f b7 30             	movzwl (%rax),%esi
    75f0:	66 83 fe 16          	cmp    $0x16,%si
    75f4:	75 0a                	jne    7600 <get_rsrv_size+0x50>
    75f6:	8b 40 04             	mov    0x4(%rax),%eax
    75f9:	48 c1 e0 0c          	shl    $0xc,%rax
    75fd:	48 01 c7             	add    %rax,%rdi
    7600:	8b 81 58 01 00 00    	mov    0x158(%rcx),%eax
    7606:	83 c2 01             	add    $0x1,%edx
    7609:	39 c2                	cmp    %eax,%edx
    760b:	72 d3                	jb     75e0 <get_rsrv_size+0x30>
    760d:	48 89 f8             	mov    %rdi,%rax
    7610:	c3                   	ret    
    7611:	66 2e 0f 1f 84 00 00 	cs nopw 0x0(%rax,%rax,1)
    7618:	00 00 00 
    761b:	0f 1f 44 00 00       	nopl   0x0(%rax,%rax,1)

0000000000007620 <get_rsrv_min_size>:
    7620:	f3 0f 1e fa          	endbr64 
    7624:	48 8d 0d 55 bb 00 00 	lea    0xbb55(%rip),%rcx        # 13180 <g_global_data>
    762b:	8b 81 58 01 00 00    	mov    0x158(%rcx),%eax
    7631:	85 c0                	test   %eax,%eax
    7633:	74 3b                	je     7670 <get_rsrv_min_size+0x50>
    7635:	31 d2                	xor    %edx,%edx
    7637:	eb 14                	jmp    764d <get_rsrv_min_size+0x2d>
    7639:	0f 1f 80 00 00 00 00 	nopl   0x0(%rax)
    7640:	8b 81 58 01 00 00    	mov    0x158(%rcx),%eax
    7646:	83 c2 01             	add    $0x1,%edx
    7649:	39 c2                	cmp    %eax,%edx
    764b:	73 23                	jae    7670 <get_rsrv_min_size+0x50>
    764d:	89 d0                	mov    %edx,%eax
    764f:	48 83 c0 0b          	add    $0xb,%rax
    7653:	48 c1 e0 05          	shl    $0x5,%rax
    7657:	48 01 c8             	add    %rcx,%rax
    765a:	0f b7 30             	movzwl (%rax),%esi
    765d:	66 83 fe 14          	cmp    $0x14,%si
    7661:	75 dd                	jne    7640 <get_rsrv_min_size+0x20>
    7663:	8b 40 04             	mov    0x4(%rax),%eax
    7666:	48 c1 e0 0c          	shl    $0xc,%rax
    766a:	c3                   	ret    
    766b:	0f 1f 44 00 00       	nopl   0x0(%rax,%rax,1)
    7670:	31 c0                	xor    %eax,%eax
    7672:	c3                   	ret    
    7673:	66 2e 0f 1f 84 00 00 	cs nopw 0x0(%rax,%rax,1)
    767a:	00 00 00 
    767d:	0f 1f 00             	nopl   (%rax)

0000000000007680 <get_errno_addr>:
    7680:	f3 0f 1e fa          	endbr64 
    7684:	48 83 ec 08          	sub    $0x8,%rsp
    7688:	e8 b6 aa 00 00       	call   12143 <get_thread_data>
    768d:	48 83 c4 08          	add    $0x8,%rsp
    7691:	48 83 c0 40          	add    $0x40,%rax
    7695:	c3                   	ret    
    7696:	66 2e 0f 1f 84 00 00 	cs nopw 0x0(%rax,%rax,1)
    769d:	00 00 00 

00000000000076a0 <feature_supported>:
    76a0:	f3 0f 1e fa          	endbr64 
    76a4:	48 85 ff             	test   %rdi,%rdi
    76a7:	74 37                	je     76e0 <feature_supported+0x40>
    76a9:	31 d2                	xor    %edx,%edx
    76ab:	eb 08                	jmp    76b5 <feature_supported+0x15>
    76ad:	0f 1f 00             	nopl   (%rax)
    76b0:	48 85 c0             	test   %rax,%rax
    76b3:	78 2b                	js     76e0 <feature_supported+0x40>
    76b5:	89 d0                	mov    %edx,%eax
    76b7:	83 c2 01             	add    $0x1,%edx
    76ba:	41 89 d1             	mov    %edx,%r9d
    76bd:	49 89 c0             	mov    %rax,%r8
    76c0:	48 8b 04 c7          	mov    (%rdi,%rax,8),%rax
    76c4:	41 c1 e1 06          	shl    $0x6,%r9d
    76c8:	44 39 ce             	cmp    %r9d,%esi
    76cb:	73 e3                	jae    76b0 <feature_supported+0x10>
    76cd:	41 c1 e0 06          	shl    $0x6,%r8d
    76d1:	44 29 c6             	sub    %r8d,%esi
    76d4:	89 f1                	mov    %esi,%ecx
    76d6:	48 d3 e8             	shr    %cl,%rax
    76d9:	83 e0 01             	and    $0x1,%eax
    76dc:	c3                   	ret    
    76dd:	0f 1f 00             	nopl   (%rax)
    76e0:	31 c0                	xor    %eax,%eax
    76e2:	c3                   	ret    
    76e3:	66 2e 0f 1f 84 00 00 	cs nopw 0x0(%rax,%rax,1)
    76ea:	00 00 00 
    76ed:	0f 1f 00             	nopl   (%rax)

00000000000076f0 <is_stack_addr>:
    76f0:	f3 0f 1e fa          	endbr64 
    76f4:	55                   	push   %rbp
    76f5:	48 89 f5             	mov    %rsi,%rbp
    76f8:	53                   	push   %rbx
    76f9:	48 89 fb             	mov    %rdi,%rbx
    76fc:	48 83 ec 08          	sub    $0x8,%rsp
    7700:	e8 3e aa 00 00       	call   12143 <get_thread_data>
    7705:	31 c9                	xor    %ecx,%ecx
    7707:	48 01 dd             	add    %rbx,%rbp
    770a:	48 89 c2             	mov    %rax,%rdx
    770d:	0f 92 c1             	setb   %cl
    7710:	48 39 68 10          	cmp    %rbp,0x10(%rax)
    7714:	0f 93 c0             	setae  %al
    7717:	48 3b 5a 18          	cmp    0x18(%rdx),%rbx
    771b:	0f 93 c2             	setae  %dl
    771e:	21 d0                	and    %edx,%eax
    7720:	48 85 c9             	test   %rcx,%rcx
    7723:	0f 94 c2             	sete   %dl
    7726:	48 83 c4 08          	add    $0x8,%rsp
    772a:	21 d0                	and    %edx,%eax
    772c:	5b                   	pop    %rbx
    772d:	5d                   	pop    %rbp
    772e:	c3                   	ret    
    772f:	90                   	nop

0000000000007730 <is_valid_sp>:
    7730:	f3 0f 1e fa          	endbr64 
    7734:	40 f6 c7 07          	test   $0x7,%dil
    7738:	74 06                	je     7740 <is_valid_sp+0x10>
    773a:	31 c0                	xor    %eax,%eax
    773c:	c3                   	ret    
    773d:	0f 1f 00             	nopl   (%rax)
    7740:	53                   	push   %rbx
    7741:	48 89 fb             	mov    %rdi,%rbx
    7744:	e8 fa a9 00 00       	call   12143 <get_thread_data>
    7749:	48 89 c2             	mov    %rax,%rdx
    774c:	48 3b 58 18          	cmp    0x18(%rax),%rbx
    7750:	0f 93 c0             	setae  %al
    7753:	48 39 5a 10          	cmp    %rbx,0x10(%rdx)
    7757:	5b                   	pop    %rbx
    7758:	0f 93 c2             	setae  %dl
    775b:	21 d0                	and    %edx,%eax
    775d:	c3                   	ret    
    775e:	66 90                	xchg   %ax,%ax

0000000000007760 <is_utility_thread>:
    7760:	f3 0f 1e fa          	endbr64 
    7764:	48 83 ec 08          	sub    $0x8,%rsp
    7768:	e8 d6 a9 00 00       	call   12143 <get_thread_data>
    776d:	31 d2                	xor    %edx,%edx
    776f:	48 85 c0             	test   %rax,%rax
    7772:	74 07                	je     777b <is_utility_thread+0x1b>
    7774:	48 8b 50 30          	mov    0x30(%rax),%rdx
    7778:	83 e2 01             	and    $0x1,%edx
    777b:	89 d0                	mov    %edx,%eax
    777d:	48 83 c4 08          	add    $0x8,%rsp
    7781:	c3                   	ret    
    7782:	66 2e 0f 1f 84 00 00 	cs nopw 0x0(%rax,%rax,1)
    7789:	00 00 00 
    778c:	0f 1f 40 00          	nopl   0x0(%rax)

0000000000007790 <get_max_tcs_num>:
    7790:	f3 0f 1e fa          	endbr64 
    7794:	48 8d 05 91 06 01 00 	lea    0x10691(%rip),%rax        # 17e2c <EDMM_supported>
    779b:	83 38 01             	cmpl   $0x1,(%rax)
    779e:	48 8d 05 db b9 00 00 	lea    0xb9db(%rip),%rax        # 13180 <g_global_data>
    77a5:	74 09                	je     77b0 <get_max_tcs_num+0x20>
    77a7:	48 8b 40 48          	mov    0x48(%rax),%rax
    77ab:	c3                   	ret    
    77ac:	0f 1f 40 00          	nopl   0x0(%rax)
    77b0:	48 8b 40 40          	mov    0x40(%rax),%rax
    77b4:	c3                   	ret    
    77b5:	66 2e 0f 1f 84 00 00 	cs nopw 0x0(%rax,%rax,1)
    77bc:	00 00 00 
    77bf:	90                   	nop

00000000000077c0 <is_pkru_enabled>:
    77c0:	f3 0f 1e fa          	endbr64 
    77c4:	48 83 ec 08          	sub    $0x8,%rsp
    77c8:	e8 23 0a 00 00       	call   81f0 <get_xfeature_state>
    77cd:	48 83 c4 08          	add    $0x8,%rsp
    77d1:	48 c1 e8 09          	shr    $0x9,%rax
    77d5:	83 e0 01             	and    $0x1,%eax
    77d8:	c3                   	ret    
    77d9:	0f 1f 80 00 00 00 00 	nopl   0x0(%rax)

00000000000077e0 <is_tcs_binding_mode>:
    77e0:	f3 0f 1e fa          	endbr64 
    77e4:	48 8d 05 95 b9 00 00 	lea    0xb995(%rip),%rax        # 13180 <g_global_data>
    77eb:	48 8b 40 38          	mov    0x38(%rax),%rax
    77ef:	48 85 c0             	test   %rax,%rax
    77f2:	0f 94 c0             	sete   %al
    77f5:	c3                   	ret    
    77f6:	66 2e 0f 1f 84 00 00 	cs nopw 0x0(%rax,%rax,1)
    77fd:	00 00 00 

0000000000007800 <get_xsave_size>:
    7800:	f3 0f 1e fa          	endbr64 
    7804:	48 8d 05 75 b9 00 00 	lea    0xb975(%rip),%rax        # 13180 <g_global_data>
    780b:	48 8b 80 88 00 00 00 	mov    0x88(%rax),%rax
    7812:	c3                   	ret    
    7813:	66 2e 0f 1f 84 00 00 	cs nopw 0x0(%rax,%rax,1)
    781a:	00 00 00 
    781d:	0f 1f 00             	nopl   (%rax)

0000000000007820 <get_ssa_aexnotify>:
    7820:	f3 0f 1e fa          	endbr64 
    7824:	48 83 ec 08          	sub    $0x8,%rsp
    7828:	e8 16 a9 00 00       	call   12143 <get_thread_data>
    782d:	48 85 c0             	test   %rax,%rax
    7830:	74 16                	je     7848 <get_ssa_aexnotify+0x28>
    7832:	48 8b 40 20          	mov    0x20(%rax),%rax
    7836:	0f b6 80 a7 00 00 00 	movzbl 0xa7(%rax),%eax
    783d:	48 83 c4 08          	add    $0x8,%rsp
    7841:	83 e0 01             	and    $0x1,%eax
    7844:	c3                   	ret    
    7845:	0f 1f 00             	nopl   (%rax)
    7848:	31 c0                	xor    %eax,%eax
    784a:	48 83 c4 08          	add    $0x8,%rsp
    784e:	c3                   	ret    
    784f:	90                   	nop

0000000000007850 <internal_handle_exception>:
    7850:	f3 0f 1e fa          	endbr64 
    7854:	55                   	push   %rbp
    7855:	48 89 e5             	mov    %rsp,%rbp
    7858:	41 57                	push   %r15
    785a:	41 56                	push   %r14
    785c:	41 55                	push   %r13
    785e:	41 54                	push   %r12
    7860:	53                   	push   %rbx
    7861:	48 89 fb             	mov    %rdi,%rbx
    7864:	48 83 ec 38          	sub    $0x38,%rsp
    7868:	64 48 8b 04 25 28 00 	mov    %fs:0x28,%rax
    786f:	00 00 
    7871:	48 89 45 c8          	mov    %rax,-0x38(%rbp)
    7875:	31 c0                	xor    %eax,%eax
    7877:	e8 c7 a8 00 00       	call   12143 <get_thread_data>
    787c:	4c 8b 60 20          	mov    0x20(%rax),%r12
    7880:	49 89 c5             	mov    %rax,%r13
    7883:	e8 78 ff ff ff       	call   7800 <get_xsave_size>
