
Enclave/encl.so:     file format elf64-x86-64


Disassembly of section .plt:

0000000000002000 <.plt>:
    2000:	ff 35 c2 0f 02 00    	push   0x20fc2(%rip)        # 22fc8 <_GLOBAL_OFFSET_TABLE_+0x8>
    2006:	ff 25 c4 0f 02 00    	jmp    *0x20fc4(%rip)        # 22fd0 <_GLOBAL_OFFSET_TABLE_+0x10>
    200c:	0f 1f 40 00          	nopl   0x0(%rax)

Disassembly of section .plt.got:

0000000000002010 <_Z9pcl_entryPvS_@plt>:
    2010:	ff 25 c2 0f 02 00    	jmp    *0x20fc2(%rip)        # 22fd8 <_Z9pcl_entryPvS_>
    2016:	66 90                	xchg   %ax,%ax

Disassembly of section .text:

0000000000003000 <trts_access_version_dummy1>:
    3000:	f3 0f 1e fa          	endbr64 
    3004:	48 8d 05 25 02 02 00 	lea    0x20225(%rip),%rax        # 23230 <sgx_trts_version>
    300b:	c6 00 73             	movb   $0x73,(%rax)
    300e:	c3                   	ret    
    300f:	90                   	nop

0000000000003010 <tstdc_access_version_dummy1>:
    3010:	f3 0f 1e fa          	endbr64 
    3014:	c6 05 c5 20 02 00 73 	movb   $0x73,0x220c5(%rip)        # 250e0 <sgx_tstdc_version>
    301b:	48 8d 05 be 20 02 00 	lea    0x220be(%rip),%rax        # 250e0 <sgx_tstdc_version>
    3022:	c3                   	ret    
    3023:	66 2e 0f 1f 84 00 00 	cs nopw 0x0(%rax,%rax,1)
    302a:	00 00 00 
    302d:	0f 1f 00             	nopl   (%rax)

0000000000003030 <tcrypto_access_version_dummy1>:
    3030:	f3 0f 1e fa          	endbr64 
    3034:	c6 05 c5 20 02 00 73 	movb   $0x73,0x220c5(%rip)        # 25100 <sgx_tcrypto_version>
    303b:	48 8d 05 be 20 02 00 	lea    0x220be(%rip),%rax        # 25100 <sgx_tcrypto_version>
    3042:	c3                   	ret    
    3043:	66 2e 0f 1f 84 00 00 	cs nopw 0x0(%rax,%rax,1)
    304a:	00 00 00 
    304d:	0f 1f 00             	nopl   (%rax)

0000000000003050 <tservice_access_version_dummy1>:
    3050:	f3 0f 1e fa          	endbr64 
    3054:	c6 05 a5 21 02 00 73 	movb   $0x73,0x221a5(%rip)        # 25200 <sgx_tservice_version>
    305b:	48 8d 05 9e 21 02 00 	lea    0x2219e(%rip),%rax        # 25200 <sgx_tservice_version>
    3062:	c3                   	ret    

0000000000003063 <print_str>:
    3063:	f3 0f 1e fa          	endbr64 
    3067:	53                   	push   %rbx
    3068:	48 89 f3             	mov    %rsi,%rbx
    306b:	e8 c4 25 00 00       	call   5634 <ocall_print>
    3070:	48 89 df             	mov    %rbx,%rdi
    3073:	5b                   	pop    %rbx
    3074:	e9 bb 25 00 00       	jmp    5634 <ocall_print>

0000000000003079 <hash_password>:
    3079:	f3 0f 1e fa          	endbr64 
    307d:	55                   	push   %rbp
    307e:	48 89 f5             	mov    %rsi,%rbp
    3081:	48 83 ec 10          	sub    $0x10,%rsp
    3085:	48 89 7c 24 08       	mov    %rdi,0x8(%rsp)
    308a:	e8 21 ed 00 00       	call   11db0 <strlen>
    308f:	48 8b 7c 24 08       	mov    0x8(%rsp),%rdi
    3094:	48 83 c4 10          	add    $0x10,%rsp
    3098:	48 89 ea             	mov    %rbp,%rdx
    309b:	89 c6                	mov    %eax,%esi
    309d:	5d                   	pop    %rbp
    309e:	e9 8d f3 00 00       	jmp    12430 <sgx_sha256_msg>

00000000000030a3 <verify_master_password>:
    30a3:	f3 0f 1e fa          	endbr64 
    30a7:	53                   	push   %rbx
    30a8:	48 83 ec 30          	sub    $0x30,%rsp
    30ac:	64 48 8b 04 25 28 00 	mov    %fs:0x28,%rax
    30b3:	00 00 
    30b5:	48 89 44 24 28       	mov    %rax,0x28(%rsp)
    30ba:	31 c0                	xor    %eax,%eax
    30bc:	48 8d 5c 24 08       	lea    0x8(%rsp),%rbx
    30c1:	48 89 de             	mov    %rbx,%rsi
    30c4:	e8 b0 ff ff ff       	call   3079 <hash_password>
    30c9:	ba 20 00 00 00       	mov    $0x20,%edx
    30ce:	48 8d 35 6b 21 02 00 	lea    0x2216b(%rip),%rsi        # 25240 <current_masterpw_hash>
    30d5:	48 89 df             	mov    %rbx,%rdi
    30d8:	e8 d3 e6 00 00       	call   117b0 <memcmp>
    30dd:	85 c0                	test   %eax,%eax
    30df:	0f 94 c0             	sete   %al
    30e2:	48 8b 54 24 28       	mov    0x28(%rsp),%rdx
    30e7:	64 48 2b 14 25 28 00 	sub    %fs:0x28,%rdx
    30ee:	00 00 
    30f0:	74 05                	je     30f7 <verify_master_password+0x54>
    30f2:	e8 49 ed 00 00       	call   11e40 <__stack_chk_fail>
    30f7:	48 83 c4 30          	add    $0x30,%rsp
    30fb:	0f b6 c0             	movzbl %al,%eax
    30fe:	5b                   	pop    %rbx
    30ff:	c3                   	ret    

0000000000003100 <ecall_init_master_password>:
    3100:	f3 0f 1e fa          	endbr64 
    3104:	55                   	push   %rbp
    3105:	48 8d 2d 34 21 02 00 	lea    0x22134(%rip),%rbp        # 25240 <current_masterpw_hash>
    310c:	0f 57 c0             	xorps  %xmm0,%xmm0
    310f:	ba 20 00 00 00       	mov    $0x20,%edx
    3114:	53                   	push   %rbx
    3115:	48 89 fb             	mov    %rdi,%rbx
    3118:	48 89 ef             	mov    %rbp,%rdi
    311b:	48 83 ec 38          	sub    $0x38,%rsp
    311f:	64 48 8b 04 25 28 00 	mov    %fs:0x28,%rax
    3126:	00 00 
    3128:	48 89 44 24 28       	mov    %rax,0x28(%rsp)
    312d:	31 c0                	xor    %eax,%eax
    312f:	48 8d 74 24 08       	lea    0x8(%rsp),%rsi
    3134:	0f 11 44 24 08       	movups %xmm0,0x8(%rsp)
    3139:	0f 11 44 24 18       	movups %xmm0,0x18(%rsp)
    313e:	e8 6d e6 00 00       	call   117b0 <memcmp>
    3143:	85 c0                	test   %eax,%eax
    3145:	74 19                	je     3160 <ecall_init_master_password+0x60>
    3147:	48 8b 44 24 28       	mov    0x28(%rsp),%rax
    314c:	64 48 2b 04 25 28 00 	sub    %fs:0x28,%rax
    3153:	00 00 
    3155:	48 8d 3d a4 8e 01 00 	lea    0x18ea4(%rip),%rdi        # 1c000 <second_phase+0xa50>
    315c:	74 29                	je     3187 <ecall_init_master_password+0x87>
    315e:	eb 22                	jmp    3182 <ecall_init_master_password+0x82>
    3160:	48 89 df             	mov    %rbx,%rdi
    3163:	48 89 ee             	mov    %rbp,%rsi
    3166:	e8 0e ff ff ff       	call   3079 <hash_password>
    316b:	48 8d 3d cf 8e 01 00 	lea    0x18ecf(%rip),%rdi        # 1c041 <second_phase+0xa91>
    3172:	48 8b 44 24 28       	mov    0x28(%rsp),%rax
    3177:	64 48 2b 04 25 28 00 	sub    %fs:0x28,%rax
    317e:	00 00 
    3180:	74 05                	je     3187 <ecall_init_master_password+0x87>
    3182:	e8 b9 ec 00 00       	call   11e40 <__stack_chk_fail>
    3187:	48 83 c4 38          	add    $0x38,%rsp
    318b:	5b                   	pop    %rbx
    318c:	5d                   	pop    %rbp
    318d:	e9 a2 24 00 00       	jmp    5634 <ocall_print>

0000000000003192 <ecall_add_password>:
    3192:	f3 0f 1e fa          	endbr64 
    3196:	53                   	push   %rbx
    3197:	48 83 ec 10          	sub    $0x10,%rsp
    319b:	48 89 74 24 08       	mov    %rsi,0x8(%rsp)
    31a0:	e8 fe fe ff ff       	call   30a3 <verify_master_password>
    31a5:	48 8b 74 24 08       	mov    0x8(%rsp),%rsi
    31aa:	85 c0                	test   %eax,%eax
    31ac:	75 11                	jne    31bf <ecall_add_password+0x2d>
    31ae:	48 83 c4 10          	add    $0x10,%rsp
    31b2:	48 8d 3d bc 8e 01 00 	lea    0x18ebc(%rip),%rdi        # 1c075 <second_phase+0xac5>
    31b9:	5b                   	pop    %rbx
    31ba:	e9 75 24 00 00       	jmp    5634 <ocall_print>
    31bf:	8b 1d 9b 20 02 00    	mov    0x2209b(%rip),%ebx        # 25260 <pw_count>
    31c5:	83 fb 09             	cmp    $0x9,%ebx
    31c8:	7f 23                	jg     31ed <ecall_add_password+0x5b>
    31ca:	48 63 fb             	movslq %ebx,%rdi
    31cd:	48 8d 05 ac 20 02 00 	lea    0x220ac(%rip),%rax        # 25280 <stored_passwords>
    31d4:	ba 1f 00 00 00       	mov    $0x1f,%edx
    31d9:	ff c3                	inc    %ebx
    31db:	48 c1 e7 05          	shl    $0x5,%rdi
    31df:	48 01 c7             	add    %rax,%rdi
    31e2:	e8 d9 eb 00 00       	call   11dc0 <strncpy>
    31e7:	89 1d 73 20 02 00    	mov    %ebx,0x22073(%rip)        # 25260 <pw_count>
    31ed:	48 83 c4 10          	add    $0x10,%rsp
    31f1:	5b                   	pop    %rbx
    31f2:	c3                   	ret    

00000000000031f3 <ecall_setup>:
    31f3:	f3 0f 1e fa          	endbr64 
    31f7:	53                   	push   %rbx
    31f8:	48 8d 1d b8 8e 01 00 	lea    0x18eb8(%rip),%rbx        # 1c0b7 <second_phase+0xb07>
    31ff:	48 89 df             	mov    %rbx,%rdi
    3202:	e8 f9 fe ff ff       	call   3100 <ecall_init_master_password>
    3207:	48 89 df             	mov    %rbx,%rdi
    320a:	48 8d 35 b3 8e 01 00 	lea    0x18eb3(%rip),%rsi        # 1c0c4 <second_phase+0xb14>
    3211:	e8 7c ff ff ff       	call   3192 <ecall_add_password>
    3216:	48 8d 35 63 20 02 00 	lea    0x22063(%rip),%rsi        # 25280 <stored_passwords>
    321d:	48 8d 3d ae 8e 01 00 	lea    0x18eae(%rip),%rdi        # 1c0d2 <second_phase+0xb22>
    3224:	e8 3a fe ff ff       	call   3063 <print_str>
    3229:	48 89 df             	mov    %rbx,%rdi
    322c:	48 8d 35 ab 8e 01 00 	lea    0x18eab(%rip),%rsi        # 1c0de <second_phase+0xb2e>
    3233:	e8 5a ff ff ff       	call   3192 <ecall_add_password>
    3238:	48 8d 35 61 20 02 00 	lea    0x22061(%rip),%rsi        # 252a0 <stored_passwords+0x20>
    323f:	48 8d 3d a9 8e 01 00 	lea    0x18ea9(%rip),%rdi        # 1c0ef <second_phase+0xb3f>
    3246:	e8 18 fe ff ff       	call   3063 <print_str>
    324b:	48 89 df             	mov    %rbx,%rdi
    324e:	48 8d 35 a6 8e 01 00 	lea    0x18ea6(%rip),%rsi        # 1c0fb <second_phase+0xb4b>
    3255:	e8 38 ff ff ff       	call   3192 <ecall_add_password>
    325a:	48 8d 35 5f 20 02 00 	lea    0x2205f(%rip),%rsi        # 252c0 <stored_passwords+0x40>
    3261:	48 8d 3d a3 8e 01 00 	lea    0x18ea3(%rip),%rdi        # 1c10b <second_phase+0xb5b>
    3268:	5b                   	pop    %rbx
    3269:	e9 f5 fd ff ff       	jmp    3063 <print_str>

000000000000326e <ecall_get_passwords>:
    326e:	f3 0f 1e fa          	endbr64 
    3272:	55                   	push   %rbp
    3273:	48 8d 2d 06 20 02 00 	lea    0x22006(%rip),%rbp        # 25280 <stored_passwords>
    327a:	53                   	push   %rbx
    327b:	31 db                	xor    %ebx,%ebx
    327d:	51                   	push   %rcx
    327e:	e8 20 fe ff ff       	call   30a3 <verify_master_password>
    3283:	85 c0                	test   %eax,%eax
    3285:	75 0f                	jne    3296 <ecall_get_passwords+0x28>
    3287:	5a                   	pop    %rdx
    3288:	48 8d 3d 88 8e 01 00 	lea    0x18e88(%rip),%rdi        # 1c117 <second_phase+0xb67>
    328f:	5b                   	pop    %rbx
    3290:	5d                   	pop    %rbp
    3291:	e9 9e 23 00 00       	jmp    5634 <ocall_print>
    3296:	39 1d c4 1f 02 00    	cmp    %ebx,0x21fc4(%rip)        # 25260 <pw_count>
    329c:	7e 10                	jle    32ae <ecall_get_passwords+0x40>
    329e:	48 89 ef             	mov    %rbp,%rdi
    32a1:	ff c3                	inc    %ebx
    32a3:	48 83 c5 20          	add    $0x20,%rbp
    32a7:	e8 88 23 00 00       	call   5634 <ocall_print>
    32ac:	eb e8                	jmp    3296 <ecall_get_passwords+0x28>
    32ae:	58                   	pop    %rax
    32af:	5b                   	pop    %rbx
    32b0:	5d                   	pop    %rbp
    32b1:	c3                   	ret    

00000000000032b2 <ecall_change_master_password>:
    32b2:	f3 0f 1e fa          	endbr64 
    32b6:	53                   	push   %rbx
    32b7:	48 89 f3             	mov    %rsi,%rbx
    32ba:	e8 e4 fd ff ff       	call   30a3 <verify_master_password>
    32bf:	48 8d 3d 8f 8e 01 00 	lea    0x18e8f(%rip),%rdi        # 1c155 <second_phase+0xba5>
    32c6:	85 c0                	test   %eax,%eax
    32c8:	74 16                	je     32e0 <ecall_change_master_password+0x2e>
    32ca:	48 89 df             	mov    %rbx,%rdi
    32cd:	48 8d 35 6c 1f 02 00 	lea    0x21f6c(%rip),%rsi        # 25240 <current_masterpw_hash>
    32d4:	e8 a0 fd ff ff       	call   3079 <hash_password>
    32d9:	48 8d 3d b0 8e 01 00 	lea    0x18eb0(%rip),%rdi        # 1c190 <second_phase+0xbe0>
    32e0:	5b                   	pop    %rbx
    32e1:	e9 4e 23 00 00       	jmp    5634 <ocall_print>

00000000000032e6 <ecall_clear_all>:
    32e6:	f3 0f 1e fa          	endbr64 
    32ea:	56                   	push   %rsi
    32eb:	e8 b3 fd ff ff       	call   30a3 <verify_master_password>
    32f0:	85 c0                	test   %eax,%eax
    32f2:	75 0d                	jne    3301 <ecall_clear_all+0x1b>
    32f4:	48 8d 3d b8 8e 01 00 	lea    0x18eb8(%rip),%rdi        # 1c1b3 <second_phase+0xc03>
    32fb:	59                   	pop    %rcx
    32fc:	e9 33 23 00 00       	jmp    5634 <ocall_print>
    3301:	48 8d 15 38 1f 02 00 	lea    0x21f38(%rip),%rdx        # 25240 <current_masterpw_hash>
    3308:	b9 08 00 00 00       	mov    $0x8,%ecx
    330d:	31 c0                	xor    %eax,%eax
    330f:	48 89 d7             	mov    %rdx,%rdi
    3312:	48 8d 15 67 1f 02 00 	lea    0x21f67(%rip),%rdx        # 25280 <stored_passwords>
    3319:	f3 ab                	rep stos %eax,%es:(%rdi)
    331b:	48 8d b2 40 01 00 00 	lea    0x140(%rdx),%rsi
    3322:	48 89 d7             	mov    %rdx,%rdi
    3325:	b9 08 00 00 00       	mov    $0x8,%ecx
    332a:	48 83 c2 20          	add    $0x20,%rdx
    332e:	f3 ab                	rep stos %eax,%es:(%rdi)
    3330:	48 39 f2             	cmp    %rsi,%rdx
    3333:	75 ed                	jne    3322 <ecall_clear_all+0x3c>
    3335:	31 c0                	xor    %eax,%eax
    3337:	89 05 23 1f 02 00    	mov    %eax,0x21f23(%rip)        # 25260 <pw_count>
    333d:	5a                   	pop    %rdx
    333e:	c3                   	ret    
    333f:	66 2e 0f 1f 84 00 00 	cs nopw 0x0(%rax,%rax,1)
    3346:	00 00 00 
    3349:	66 2e 0f 1f 84 00 00 	cs nopw 0x0(%rax,%rax,1)
    3350:	00 00 00 
    3353:	66 2e 0f 1f 84 00 00 	cs nopw 0x0(%rax,%rax,1)
    335a:	00 00 00 
    335d:	66 2e 0f 1f 84 00 00 	cs nopw 0x0(%rax,%rax,1)
    3364:	00 00 00 
    3367:	66 2e 0f 1f 84 00 00 	cs nopw 0x0(%rax,%rax,1)
    336e:	00 00 00 
    3371:	66 2e 0f 1f 84 00 00 	cs nopw 0x0(%rax,%rax,1)
    3378:	00 00 00 
    337b:	66 2e 0f 1f 84 00 00 	cs nopw 0x0(%rax,%rax,1)
    3382:	00 00 00 
    3385:	66 2e 0f 1f 84 00 00 	cs nopw 0x0(%rax,%rax,1)
    338c:	00 00 00 
    338f:	66 2e 0f 1f 84 00 00 	cs nopw 0x0(%rax,%rax,1)
    3396:	00 00 00 
    3399:	66 2e 0f 1f 84 00 00 	cs nopw 0x0(%rax,%rax,1)
    33a0:	00 00 00 
    33a3:	66 2e 0f 1f 84 00 00 	cs nopw 0x0(%rax,%rax,1)
    33aa:	00 00 00 
    33ad:	66 2e 0f 1f 84 00 00 	cs nopw 0x0(%rax,%rax,1)
    33b4:	00 00 00 
    33b7:	66 2e 0f 1f 84 00 00 	cs nopw 0x0(%rax,%rax,1)
    33be:	00 00 00 
    33c1:	66 2e 0f 1f 84 00 00 	cs nopw 0x0(%rax,%rax,1)
    33c8:	00 00 00 
    33cb:	66 2e 0f 1f 84 00 00 	cs nopw 0x0(%rax,%rax,1)
    33d2:	00 00 00 
    33d5:	66 2e 0f 1f 84 00 00 	cs nopw 0x0(%rax,%rax,1)
    33dc:	00 00 00 
    33df:	66 2e 0f 1f 84 00 00 	cs nopw 0x0(%rax,%rax,1)
    33e6:	00 00 00 
    33e9:	66 2e 0f 1f 84 00 00 	cs nopw 0x0(%rax,%rax,1)
    33f0:	00 00 00 
    33f3:	66 2e 0f 1f 84 00 00 	cs nopw 0x0(%rax,%rax,1)
    33fa:	00 00 00 
    33fd:	66 2e 0f 1f 84 00 00 	cs nopw 0x0(%rax,%rax,1)
    3404:	00 00 00 
    3407:	66 2e 0f 1f 84 00 00 	cs nopw 0x0(%rax,%rax,1)
    340e:	00 00 00 
    3411:	66 2e 0f 1f 84 00 00 	cs nopw 0x0(%rax,%rax,1)
    3418:	00 00 00 
    341b:	66 2e 0f 1f 84 00 00 	cs nopw 0x0(%rax,%rax,1)
    3422:	00 00 00 
    3425:	66 2e 0f 1f 84 00 00 	cs nopw 0x0(%rax,%rax,1)
    342c:	00 00 00 
    342f:	66 2e 0f 1f 84 00 00 	cs nopw 0x0(%rax,%rax,1)
    3436:	00 00 00 
    3439:	66 2e 0f 1f 84 00 00 	cs nopw 0x0(%rax,%rax,1)
    3440:	00 00 00 
    3443:	66 2e 0f 1f 84 00 00 	cs nopw 0x0(%rax,%rax,1)
    344a:	00 00 00 
    344d:	66 2e 0f 1f 84 00 00 	cs nopw 0x0(%rax,%rax,1)
    3454:	00 00 00 
    3457:	66 2e 0f 1f 84 00 00 	cs nopw 0x0(%rax,%rax,1)
    345e:	00 00 00 
    3461:	66 2e 0f 1f 84 00 00 	cs nopw 0x0(%rax,%rax,1)
    3468:	00 00 00 
    346b:	66 2e 0f 1f 84 00 00 	cs nopw 0x0(%rax,%rax,1)
    3472:	00 00 00 
    3475:	66 2e 0f 1f 84 00 00 	cs nopw 0x0(%rax,%rax,1)
    347c:	00 00 00 
    347f:	66 2e 0f 1f 84 00 00 	cs nopw 0x0(%rax,%rax,1)
    3486:	00 00 00 
    3489:	66 2e 0f 1f 84 00 00 	cs nopw 0x0(%rax,%rax,1)
    3490:	00 00 00 
    3493:	66 2e 0f 1f 84 00 00 	cs nopw 0x0(%rax,%rax,1)
    349a:	00 00 00 
    349d:	66 2e 0f 1f 84 00 00 	cs nopw 0x0(%rax,%rax,1)
    34a4:	00 00 00 
    34a7:	66 2e 0f 1f 84 00 00 	cs nopw 0x0(%rax,%rax,1)
    34ae:	00 00 00 
    34b1:	66 2e 0f 1f 84 00 00 	cs nopw 0x0(%rax,%rax,1)
    34b8:	00 00 00 
    34bb:	66 2e 0f 1f 84 00 00 	cs nopw 0x0(%rax,%rax,1)
    34c2:	00 00 00 
    34c5:	66 2e 0f 1f 84 00 00 	cs nopw 0x0(%rax,%rax,1)
    34cc:	00 00 00 
    34cf:	66 2e 0f 1f 84 00 00 	cs nopw 0x0(%rax,%rax,1)
    34d6:	00 00 00 
    34d9:	66 2e 0f 1f 84 00 00 	cs nopw 0x0(%rax,%rax,1)
    34e0:	00 00 00 
    34e3:	66 2e 0f 1f 84 00 00 	cs nopw 0x0(%rax,%rax,1)
    34ea:	00 00 00 
    34ed:	66 2e 0f 1f 84 00 00 	cs nopw 0x0(%rax,%rax,1)
    34f4:	00 00 00 
    34f7:	66 2e 0f 1f 84 00 00 	cs nopw 0x0(%rax,%rax,1)
    34fe:	00 00 00 
    3501:	66 2e 0f 1f 84 00 00 	cs nopw 0x0(%rax,%rax,1)
    3508:	00 00 00 
    350b:	66 2e 0f 1f 84 00 00 	cs nopw 0x0(%rax,%rax,1)
    3512:	00 00 00 
    3515:	66 2e 0f 1f 84 00 00 	cs nopw 0x0(%rax,%rax,1)
    351c:	00 00 00 
    351f:	66 2e 0f 1f 84 00 00 	cs nopw 0x0(%rax,%rax,1)
    3526:	00 00 00 
    3529:	66 2e 0f 1f 84 00 00 	cs nopw 0x0(%rax,%rax,1)
    3530:	00 00 00 
    3533:	66 2e 0f 1f 84 00 00 	cs nopw 0x0(%rax,%rax,1)
    353a:	00 00 00 
    353d:	66 2e 0f 1f 84 00 00 	cs nopw 0x0(%rax,%rax,1)
    3544:	00 00 00 
    3547:	66 2e 0f 1f 84 00 00 	cs nopw 0x0(%rax,%rax,1)
    354e:	00 00 00 
    3551:	66 2e 0f 1f 84 00 00 	cs nopw 0x0(%rax,%rax,1)
    3558:	00 00 00 
    355b:	66 2e 0f 1f 84 00 00 	cs nopw 0x0(%rax,%rax,1)
    3562:	00 00 00 
    3565:	66 2e 0f 1f 84 00 00 	cs nopw 0x0(%rax,%rax,1)
    356c:	00 00 00 
    356f:	66 2e 0f 1f 84 00 00 	cs nopw 0x0(%rax,%rax,1)
    3576:	00 00 00 
    3579:	66 2e 0f 1f 84 00 00 	cs nopw 0x0(%rax,%rax,1)
    3580:	00 00 00 
    3583:	66 2e 0f 1f 84 00 00 	cs nopw 0x0(%rax,%rax,1)
    358a:	00 00 00 
    358d:	66 2e 0f 1f 84 00 00 	cs nopw 0x0(%rax,%rax,1)
    3594:	00 00 00 
    3597:	66 2e 0f 1f 84 00 00 	cs nopw 0x0(%rax,%rax,1)
    359e:	00 00 00 
    35a1:	66 2e 0f 1f 84 00 00 	cs nopw 0x0(%rax,%rax,1)
    35a8:	00 00 00 
    35ab:	66 2e 0f 1f 84 00 00 	cs nopw 0x0(%rax,%rax,1)
    35b2:	00 00 00 
    35b5:	66 2e 0f 1f 84 00 00 	cs nopw 0x0(%rax,%rax,1)
    35bc:	00 00 00 
    35bf:	66 2e 0f 1f 84 00 00 	cs nopw 0x0(%rax,%rax,1)
    35c6:	00 00 00 
    35c9:	66 2e 0f 1f 84 00 00 	cs nopw 0x0(%rax,%rax,1)
    35d0:	00 00 00 
    35d3:	66 2e 0f 1f 84 00 00 	cs nopw 0x0(%rax,%rax,1)
    35da:	00 00 00 
    35dd:	66 2e 0f 1f 84 00 00 	cs nopw 0x0(%rax,%rax,1)
    35e4:	00 00 00 
    35e7:	66 2e 0f 1f 84 00 00 	cs nopw 0x0(%rax,%rax,1)
    35ee:	00 00 00 
    35f1:	66 2e 0f 1f 84 00 00 	cs nopw 0x0(%rax,%rax,1)
    35f8:	00 00 00 
    35fb:	66 2e 0f 1f 84 00 00 	cs nopw 0x0(%rax,%rax,1)
    3602:	00 00 00 
    3605:	66 2e 0f 1f 84 00 00 	cs nopw 0x0(%rax,%rax,1)
    360c:	00 00 00 
    360f:	66 2e 0f 1f 84 00 00 	cs nopw 0x0(%rax,%rax,1)
    3616:	00 00 00 
    3619:	66 2e 0f 1f 84 00 00 	cs nopw 0x0(%rax,%rax,1)
    3620:	00 00 00 
    3623:	66 2e 0f 1f 84 00 00 	cs nopw 0x0(%rax,%rax,1)
    362a:	00 00 00 
    362d:	66 2e 0f 1f 84 00 00 	cs nopw 0x0(%rax,%rax,1)
    3634:	00 00 00 
    3637:	66 2e 0f 1f 84 00 00 	cs nopw 0x0(%rax,%rax,1)
    363e:	00 00 00 
    3641:	66 2e 0f 1f 84 00 00 	cs nopw 0x0(%rax,%rax,1)
    3648:	00 00 00 
    364b:	66 2e 0f 1f 84 00 00 	cs nopw 0x0(%rax,%rax,1)
    3652:	00 00 00 
    3655:	66 2e 0f 1f 84 00 00 	cs nopw 0x0(%rax,%rax,1)
    365c:	00 00 00 
    365f:	66 2e 0f 1f 84 00 00 	cs nopw 0x0(%rax,%rax,1)
    3666:	00 00 00 
    3669:	66 2e 0f 1f 84 00 00 	cs nopw 0x0(%rax,%rax,1)
    3670:	00 00 00 
    3673:	66 2e 0f 1f 84 00 00 	cs nopw 0x0(%rax,%rax,1)
    367a:	00 00 00 
    367d:	66 2e 0f 1f 84 00 00 	cs nopw 0x0(%rax,%rax,1)
    3684:	00 00 00 
    3687:	66 2e 0f 1f 84 00 00 	cs nopw 0x0(%rax,%rax,1)
    368e:	00 00 00 
    3691:	66 2e 0f 1f 84 00 00 	cs nopw 0x0(%rax,%rax,1)
    3698:	00 00 00 
    369b:	66 2e 0f 1f 84 00 00 	cs nopw 0x0(%rax,%rax,1)
    36a2:	00 00 00 
    36a5:	66 2e 0f 1f 84 00 00 	cs nopw 0x0(%rax,%rax,1)
    36ac:	00 00 00 
    36af:	66 2e 0f 1f 84 00 00 	cs nopw 0x0(%rax,%rax,1)
    36b6:	00 00 00 
    36b9:	66 2e 0f 1f 84 00 00 	cs nopw 0x0(%rax,%rax,1)
    36c0:	00 00 00 
    36c3:	66 2e 0f 1f 84 00 00 	cs nopw 0x0(%rax,%rax,1)
    36ca:	00 00 00 
    36cd:	66 2e 0f 1f 84 00 00 	cs nopw 0x0(%rax,%rax,1)
    36d4:	00 00 00 
    36d7:	66 2e 0f 1f 84 00 00 	cs nopw 0x0(%rax,%rax,1)
    36de:	00 00 00 
    36e1:	66 2e 0f 1f 84 00 00 	cs nopw 0x0(%rax,%rax,1)
    36e8:	00 00 00 
    36eb:	66 2e 0f 1f 84 00 00 	cs nopw 0x0(%rax,%rax,1)
    36f2:	00 00 00 
    36f5:	66 2e 0f 1f 84 00 00 	cs nopw 0x0(%rax,%rax,1)
    36fc:	00 00 00 
    36ff:	66 2e 0f 1f 84 00 00 	cs nopw 0x0(%rax,%rax,1)
    3706:	00 00 00 
    3709:	66 2e 0f 1f 84 00 00 	cs nopw 0x0(%rax,%rax,1)
    3710:	00 00 00 
    3713:	66 2e 0f 1f 84 00 00 	cs nopw 0x0(%rax,%rax,1)
    371a:	00 00 00 
    371d:	66 2e 0f 1f 84 00 00 	cs nopw 0x0(%rax,%rax,1)
    3724:	00 00 00 
    3727:	66 2e 0f 1f 84 00 00 	cs nopw 0x0(%rax,%rax,1)
    372e:	00 00 00 
    3731:	66 2e 0f 1f 84 00 00 	cs nopw 0x0(%rax,%rax,1)
    3738:	00 00 00 
    373b:	66 2e 0f 1f 84 00 00 	cs nopw 0x0(%rax,%rax,1)
    3742:	00 00 00 
    3745:	66 2e 0f 1f 84 00 00 	cs nopw 0x0(%rax,%rax,1)
    374c:	00 00 00 
    374f:	66 2e 0f 1f 84 00 00 	cs nopw 0x0(%rax,%rax,1)
    3756:	00 00 00 
    3759:	66 2e 0f 1f 84 00 00 	cs nopw 0x0(%rax,%rax,1)
    3760:	00 00 00 
    3763:	66 2e 0f 1f 84 00 00 	cs nopw 0x0(%rax,%rax,1)
    376a:	00 00 00 
    376d:	66 2e 0f 1f 84 00 00 	cs nopw 0x0(%rax,%rax,1)
    3774:	00 00 00 
    3777:	66 2e 0f 1f 84 00 00 	cs nopw 0x0(%rax,%rax,1)
    377e:	00 00 00 
    3781:	66 2e 0f 1f 84 00 00 	cs nopw 0x0(%rax,%rax,1)
    3788:	00 00 00 
    378b:	66 2e 0f 1f 84 00 00 	cs nopw 0x0(%rax,%rax,1)
    3792:	00 00 00 
    3795:	66 2e 0f 1f 84 00 00 	cs nopw 0x0(%rax,%rax,1)
    379c:	00 00 00 
    379f:	66 2e 0f 1f 84 00 00 	cs nopw 0x0(%rax,%rax,1)
    37a6:	00 00 00 
    37a9:	66 2e 0f 1f 84 00 00 	cs nopw 0x0(%rax,%rax,1)
    37b0:	00 00 00 
    37b3:	66 2e 0f 1f 84 00 00 	cs nopw 0x0(%rax,%rax,1)
    37ba:	00 00 00 
    37bd:	66 2e 0f 1f 84 00 00 	cs nopw 0x0(%rax,%rax,1)
    37c4:	00 00 00 
    37c7:	66 2e 0f 1f 84 00 00 	cs nopw 0x0(%rax,%rax,1)
    37ce:	00 00 00 
    37d1:	66 2e 0f 1f 84 00 00 	cs nopw 0x0(%rax,%rax,1)
    37d8:	00 00 00 
    37db:	66 2e 0f 1f 84 00 00 	cs nopw 0x0(%rax,%rax,1)
    37e2:	00 00 00 
    37e5:	66 2e 0f 1f 84 00 00 	cs nopw 0x0(%rax,%rax,1)
    37ec:	00 00 00 
    37ef:	66 2e 0f 1f 84 00 00 	cs nopw 0x0(%rax,%rax,1)
    37f6:	00 00 00 
    37f9:	66 2e 0f 1f 84 00 00 	cs nopw 0x0(%rax,%rax,1)
    3800:	00 00 00 
    3803:	66 2e 0f 1f 84 00 00 	cs nopw 0x0(%rax,%rax,1)
    380a:	00 00 00 
    380d:	66 2e 0f 1f 84 00 00 	cs nopw 0x0(%rax,%rax,1)
    3814:	00 00 00 
    3817:	66 2e 0f 1f 84 00 00 	cs nopw 0x0(%rax,%rax,1)
    381e:	00 00 00 
    3821:	66 2e 0f 1f 84 00 00 	cs nopw 0x0(%rax,%rax,1)
    3828:	00 00 00 
    382b:	66 2e 0f 1f 84 00 00 	cs nopw 0x0(%rax,%rax,1)
    3832:	00 00 00 
    3835:	66 2e 0f 1f 84 00 00 	cs nopw 0x0(%rax,%rax,1)
    383c:	00 00 00 
    383f:	66 2e 0f 1f 84 00 00 	cs nopw 0x0(%rax,%rax,1)
    3846:	00 00 00 
    3849:	66 2e 0f 1f 84 00 00 	cs nopw 0x0(%rax,%rax,1)
    3850:	00 00 00 
    3853:	66 2e 0f 1f 84 00 00 	cs nopw 0x0(%rax,%rax,1)
    385a:	00 00 00 
    385d:	66 2e 0f 1f 84 00 00 	cs nopw 0x0(%rax,%rax,1)
    3864:	00 00 00 
    3867:	66 2e 0f 1f 84 00 00 	cs nopw 0x0(%rax,%rax,1)
    386e:	00 00 00 
    3871:	66 2e 0f 1f 84 00 00 	cs nopw 0x0(%rax,%rax,1)
    3878:	00 00 00 
    387b:	66 2e 0f 1f 84 00 00 	cs nopw 0x0(%rax,%rax,1)
    3882:	00 00 00 
    3885:	66 2e 0f 1f 84 00 00 	cs nopw 0x0(%rax,%rax,1)
    388c:	00 00 00 
    388f:	66 2e 0f 1f 84 00 00 	cs nopw 0x0(%rax,%rax,1)
    3896:	00 00 00 
    3899:	66 2e 0f 1f 84 00 00 	cs nopw 0x0(%rax,%rax,1)
    38a0:	00 00 00 
    38a3:	66 2e 0f 1f 84 00 00 	cs nopw 0x0(%rax,%rax,1)
    38aa:	00 00 00 
    38ad:	66 2e 0f 1f 84 00 00 	cs nopw 0x0(%rax,%rax,1)
    38b4:	00 00 00 
    38b7:	66 2e 0f 1f 84 00 00 	cs nopw 0x0(%rax,%rax,1)
    38be:	00 00 00 
    38c1:	66 2e 0f 1f 84 00 00 	cs nopw 0x0(%rax,%rax,1)
    38c8:	00 00 00 
    38cb:	66 2e 0f 1f 84 00 00 	cs nopw 0x0(%rax,%rax,1)
    38d2:	00 00 00 
    38d5:	66 2e 0f 1f 84 00 00 	cs nopw 0x0(%rax,%rax,1)
    38dc:	00 00 00 
    38df:	66 2e 0f 1f 84 00 00 	cs nopw 0x0(%rax,%rax,1)
    38e6:	00 00 00 
    38e9:	66 2e 0f 1f 84 00 00 	cs nopw 0x0(%rax,%rax,1)
    38f0:	00 00 00 
    38f3:	66 2e 0f 1f 84 00 00 	cs nopw 0x0(%rax,%rax,1)
    38fa:	00 00 00 
    38fd:	66 2e 0f 1f 84 00 00 	cs nopw 0x0(%rax,%rax,1)
    3904:	00 00 00 
    3907:	66 2e 0f 1f 84 00 00 	cs nopw 0x0(%rax,%rax,1)
    390e:	00 00 00 
    3911:	66 2e 0f 1f 84 00 00 	cs nopw 0x0(%rax,%rax,1)
    3918:	00 00 00 
    391b:	66 2e 0f 1f 84 00 00 	cs nopw 0x0(%rax,%rax,1)
    3922:	00 00 00 
    3925:	66 2e 0f 1f 84 00 00 	cs nopw 0x0(%rax,%rax,1)
    392c:	00 00 00 
    392f:	66 2e 0f 1f 84 00 00 	cs nopw 0x0(%rax,%rax,1)
    3936:	00 00 00 
    3939:	66 2e 0f 1f 84 00 00 	cs nopw 0x0(%rax,%rax,1)
    3940:	00 00 00 
    3943:	66 2e 0f 1f 84 00 00 	cs nopw 0x0(%rax,%rax,1)
    394a:	00 00 00 
    394d:	66 2e 0f 1f 84 00 00 	cs nopw 0x0(%rax,%rax,1)
    3954:	00 00 00 
    3957:	66 2e 0f 1f 84 00 00 	cs nopw 0x0(%rax,%rax,1)
    395e:	00 00 00 
    3961:	66 2e 0f 1f 84 00 00 	cs nopw 0x0(%rax,%rax,1)
    3968:	00 00 00 
    396b:	66 2e 0f 1f 84 00 00 	cs nopw 0x0(%rax,%rax,1)
    3972:	00 00 00 
    3975:	66 2e 0f 1f 84 00 00 	cs nopw 0x0(%rax,%rax,1)
    397c:	00 00 00 
    397f:	66 2e 0f 1f 84 00 00 	cs nopw 0x0(%rax,%rax,1)
    3986:	00 00 00 
    3989:	66 2e 0f 1f 84 00 00 	cs nopw 0x0(%rax,%rax,1)
    3990:	00 00 00 
    3993:	66 2e 0f 1f 84 00 00 	cs nopw 0x0(%rax,%rax,1)
    399a:	00 00 00 
    399d:	66 2e 0f 1f 84 00 00 	cs nopw 0x0(%rax,%rax,1)
    39a4:	00 00 00 
    39a7:	66 2e 0f 1f 84 00 00 	cs nopw 0x0(%rax,%rax,1)
    39ae:	00 00 00 
    39b1:	66 2e 0f 1f 84 00 00 	cs nopw 0x0(%rax,%rax,1)
    39b8:	00 00 00 
    39bb:	66 2e 0f 1f 84 00 00 	cs nopw 0x0(%rax,%rax,1)
    39c2:	00 00 00 
    39c5:	66 2e 0f 1f 84 00 00 	cs nopw 0x0(%rax,%rax,1)
    39cc:	00 00 00 
    39cf:	66 2e 0f 1f 84 00 00 	cs nopw 0x0(%rax,%rax,1)
    39d6:	00 00 00 
    39d9:	66 2e 0f 1f 84 00 00 	cs nopw 0x0(%rax,%rax,1)
    39e0:	00 00 00 
    39e3:	66 2e 0f 1f 84 00 00 	cs nopw 0x0(%rax,%rax,1)
    39ea:	00 00 00 
    39ed:	66 2e 0f 1f 84 00 00 	cs nopw 0x0(%rax,%rax,1)
    39f4:	00 00 00 
    39f7:	66 2e 0f 1f 84 00 00 	cs nopw 0x0(%rax,%rax,1)
    39fe:	00 00 00 
    3a01:	66 2e 0f 1f 84 00 00 	cs nopw 0x0(%rax,%rax,1)
    3a08:	00 00 00 
    3a0b:	66 2e 0f 1f 84 00 00 	cs nopw 0x0(%rax,%rax,1)
    3a12:	00 00 00 
    3a15:	66 2e 0f 1f 84 00 00 	cs nopw 0x0(%rax,%rax,1)
    3a1c:	00 00 00 
    3a1f:	66 2e 0f 1f 84 00 00 	cs nopw 0x0(%rax,%rax,1)
    3a26:	00 00 00 
    3a29:	66 2e 0f 1f 84 00 00 	cs nopw 0x0(%rax,%rax,1)
    3a30:	00 00 00 
    3a33:	66 2e 0f 1f 84 00 00 	cs nopw 0x0(%rax,%rax,1)
    3a3a:	00 00 00 
    3a3d:	66 2e 0f 1f 84 00 00 	cs nopw 0x0(%rax,%rax,1)
    3a44:	00 00 00 
    3a47:	66 2e 0f 1f 84 00 00 	cs nopw 0x0(%rax,%rax,1)
    3a4e:	00 00 00 
    3a51:	66 2e 0f 1f 84 00 00 	cs nopw 0x0(%rax,%rax,1)
    3a58:	00 00 00 
    3a5b:	66 2e 0f 1f 84 00 00 	cs nopw 0x0(%rax,%rax,1)
    3a62:	00 00 00 
    3a65:	66 2e 0f 1f 84 00 00 	cs nopw 0x0(%rax,%rax,1)
    3a6c:	00 00 00 
    3a6f:	66 2e 0f 1f 84 00 00 	cs nopw 0x0(%rax,%rax,1)
    3a76:	00 00 00 
    3a79:	66 2e 0f 1f 84 00 00 	cs nopw 0x0(%rax,%rax,1)
    3a80:	00 00 00 
    3a83:	66 2e 0f 1f 84 00 00 	cs nopw 0x0(%rax,%rax,1)
    3a8a:	00 00 00 
    3a8d:	66 2e 0f 1f 84 00 00 	cs nopw 0x0(%rax,%rax,1)
    3a94:	00 00 00 
    3a97:	66 2e 0f 1f 84 00 00 	cs nopw 0x0(%rax,%rax,1)
    3a9e:	00 00 00 
    3aa1:	66 2e 0f 1f 84 00 00 	cs nopw 0x0(%rax,%rax,1)
    3aa8:	00 00 00 
    3aab:	66 2e 0f 1f 84 00 00 	cs nopw 0x0(%rax,%rax,1)
    3ab2:	00 00 00 
    3ab5:	66 2e 0f 1f 84 00 00 	cs nopw 0x0(%rax,%rax,1)
    3abc:	00 00 00 
    3abf:	66 2e 0f 1f 84 00 00 	cs nopw 0x0(%rax,%rax,1)
    3ac6:	00 00 00 
    3ac9:	66 2e 0f 1f 84 00 00 	cs nopw 0x0(%rax,%rax,1)
    3ad0:	00 00 00 
    3ad3:	66 2e 0f 1f 84 00 00 	cs nopw 0x0(%rax,%rax,1)
    3ada:	00 00 00 
    3add:	66 2e 0f 1f 84 00 00 	cs nopw 0x0(%rax,%rax,1)
    3ae4:	00 00 00 
    3ae7:	66 2e 0f 1f 84 00 00 	cs nopw 0x0(%rax,%rax,1)
    3aee:	00 00 00 
    3af1:	66 2e 0f 1f 84 00 00 	cs nopw 0x0(%rax,%rax,1)
    3af8:	00 00 00 
    3afb:	66 2e 0f 1f 84 00 00 	cs nopw 0x0(%rax,%rax,1)
    3b02:	00 00 00 
    3b05:	66 2e 0f 1f 84 00 00 	cs nopw 0x0(%rax,%rax,1)
    3b0c:	00 00 00 
    3b0f:	66 2e 0f 1f 84 00 00 	cs nopw 0x0(%rax,%rax,1)
    3b16:	00 00 00 
    3b19:	66 2e 0f 1f 84 00 00 	cs nopw 0x0(%rax,%rax,1)
    3b20:	00 00 00 
    3b23:	66 2e 0f 1f 84 00 00 	cs nopw 0x0(%rax,%rax,1)
    3b2a:	00 00 00 
    3b2d:	66 2e 0f 1f 84 00 00 	cs nopw 0x0(%rax,%rax,1)
    3b34:	00 00 00 
    3b37:	66 2e 0f 1f 84 00 00 	cs nopw 0x0(%rax,%rax,1)
    3b3e:	00 00 00 
    3b41:	66 2e 0f 1f 84 00 00 	cs nopw 0x0(%rax,%rax,1)
    3b48:	00 00 00 
    3b4b:	66 2e 0f 1f 84 00 00 	cs nopw 0x0(%rax,%rax,1)
    3b52:	00 00 00 
    3b55:	66 2e 0f 1f 84 00 00 	cs nopw 0x0(%rax,%rax,1)
    3b5c:	00 00 00 
    3b5f:	66 2e 0f 1f 84 00 00 	cs nopw 0x0(%rax,%rax,1)
    3b66:	00 00 00 
    3b69:	66 2e 0f 1f 84 00 00 	cs nopw 0x0(%rax,%rax,1)
    3b70:	00 00 00 
    3b73:	66 2e 0f 1f 84 00 00 	cs nopw 0x0(%rax,%rax,1)
    3b7a:	00 00 00 
    3b7d:	66 2e 0f 1f 84 00 00 	cs nopw 0x0(%rax,%rax,1)
    3b84:	00 00 00 
    3b87:	66 2e 0f 1f 84 00 00 	cs nopw 0x0(%rax,%rax,1)
    3b8e:	00 00 00 
    3b91:	66 2e 0f 1f 84 00 00 	cs nopw 0x0(%rax,%rax,1)
    3b98:	00 00 00 
    3b9b:	66 2e 0f 1f 84 00 00 	cs nopw 0x0(%rax,%rax,1)
    3ba2:	00 00 00 
    3ba5:	66 2e 0f 1f 84 00 00 	cs nopw 0x0(%rax,%rax,1)
    3bac:	00 00 00 
    3baf:	66 2e 0f 1f 84 00 00 	cs nopw 0x0(%rax,%rax,1)
    3bb6:	00 00 00 
    3bb9:	66 2e 0f 1f 84 00 00 	cs nopw 0x0(%rax,%rax,1)
    3bc0:	00 00 00 
    3bc3:	66 2e 0f 1f 84 00 00 	cs nopw 0x0(%rax,%rax,1)
    3bca:	00 00 00 
    3bcd:	66 2e 0f 1f 84 00 00 	cs nopw 0x0(%rax,%rax,1)
    3bd4:	00 00 00 
    3bd7:	66 2e 0f 1f 84 00 00 	cs nopw 0x0(%rax,%rax,1)
    3bde:	00 00 00 
    3be1:	66 2e 0f 1f 84 00 00 	cs nopw 0x0(%rax,%rax,1)
    3be8:	00 00 00 
    3beb:	66 2e 0f 1f 84 00 00 	cs nopw 0x0(%rax,%rax,1)
    3bf2:	00 00 00 
    3bf5:	66 2e 0f 1f 84 00 00 	cs nopw 0x0(%rax,%rax,1)
    3bfc:	00 00 00 
    3bff:	66 2e 0f 1f 84 00 00 	cs nopw 0x0(%rax,%rax,1)
    3c06:	00 00 00 
    3c09:	66 2e 0f 1f 84 00 00 	cs nopw 0x0(%rax,%rax,1)
    3c10:	00 00 00 
    3c13:	66 2e 0f 1f 84 00 00 	cs nopw 0x0(%rax,%rax,1)
    3c1a:	00 00 00 
    3c1d:	66 2e 0f 1f 84 00 00 	cs nopw 0x0(%rax,%rax,1)
    3c24:	00 00 00 
    3c27:	66 2e 0f 1f 84 00 00 	cs nopw 0x0(%rax,%rax,1)
    3c2e:	00 00 00 
    3c31:	66 2e 0f 1f 84 00 00 	cs nopw 0x0(%rax,%rax,1)
    3c38:	00 00 00 
    3c3b:	66 2e 0f 1f 84 00 00 	cs nopw 0x0(%rax,%rax,1)
    3c42:	00 00 00 
    3c45:	66 2e 0f 1f 84 00 00 	cs nopw 0x0(%rax,%rax,1)
    3c4c:	00 00 00 
    3c4f:	66 2e 0f 1f 84 00 00 	cs nopw 0x0(%rax,%rax,1)
    3c56:	00 00 00 
    3c59:	66 2e 0f 1f 84 00 00 	cs nopw 0x0(%rax,%rax,1)
    3c60:	00 00 00 
    3c63:	66 2e 0f 1f 84 00 00 	cs nopw 0x0(%rax,%rax,1)
    3c6a:	00 00 00 
    3c6d:	66 2e 0f 1f 84 00 00 	cs nopw 0x0(%rax,%rax,1)
    3c74:	00 00 00 
    3c77:	66 2e 0f 1f 84 00 00 	cs nopw 0x0(%rax,%rax,1)
    3c7e:	00 00 00 
    3c81:	66 2e 0f 1f 84 00 00 	cs nopw 0x0(%rax,%rax,1)
    3c88:	00 00 00 
    3c8b:	66 2e 0f 1f 84 00 00 	cs nopw 0x0(%rax,%rax,1)
    3c92:	00 00 00 
    3c95:	66 2e 0f 1f 84 00 00 	cs nopw 0x0(%rax,%rax,1)
    3c9c:	00 00 00 
    3c9f:	66 2e 0f 1f 84 00 00 	cs nopw 0x0(%rax,%rax,1)
    3ca6:	00 00 00 
    3ca9:	66 2e 0f 1f 84 00 00 	cs nopw 0x0(%rax,%rax,1)
    3cb0:	00 00 00 
    3cb3:	66 2e 0f 1f 84 00 00 	cs nopw 0x0(%rax,%rax,1)
    3cba:	00 00 00 
    3cbd:	66 2e 0f 1f 84 00 00 	cs nopw 0x0(%rax,%rax,1)
    3cc4:	00 00 00 
    3cc7:	66 2e 0f 1f 84 00 00 	cs nopw 0x0(%rax,%rax,1)
    3cce:	00 00 00 
    3cd1:	66 2e 0f 1f 84 00 00 	cs nopw 0x0(%rax,%rax,1)
    3cd8:	00 00 00 
    3cdb:	66 2e 0f 1f 84 00 00 	cs nopw 0x0(%rax,%rax,1)
    3ce2:	00 00 00 
    3ce5:	66 2e 0f 1f 84 00 00 	cs nopw 0x0(%rax,%rax,1)
    3cec:	00 00 00 
    3cef:	66 2e 0f 1f 84 00 00 	cs nopw 0x0(%rax,%rax,1)
    3cf6:	00 00 00 
    3cf9:	66 2e 0f 1f 84 00 00 	cs nopw 0x0(%rax,%rax,1)
    3d00:	00 00 00 
    3d03:	66 2e 0f 1f 84 00 00 	cs nopw 0x0(%rax,%rax,1)
    3d0a:	00 00 00 
    3d0d:	66 2e 0f 1f 84 00 00 	cs nopw 0x0(%rax,%rax,1)
    3d14:	00 00 00 
    3d17:	66 2e 0f 1f 84 00 00 	cs nopw 0x0(%rax,%rax,1)
    3d1e:	00 00 00 
    3d21:	66 2e 0f 1f 84 00 00 	cs nopw 0x0(%rax,%rax,1)
    3d28:	00 00 00 
    3d2b:	66 2e 0f 1f 84 00 00 	cs nopw 0x0(%rax,%rax,1)
    3d32:	00 00 00 
    3d35:	66 2e 0f 1f 84 00 00 	cs nopw 0x0(%rax,%rax,1)
    3d3c:	00 00 00 
    3d3f:	66 2e 0f 1f 84 00 00 	cs nopw 0x0(%rax,%rax,1)
    3d46:	00 00 00 
    3d49:	66 2e 0f 1f 84 00 00 	cs nopw 0x0(%rax,%rax,1)
    3d50:	00 00 00 
    3d53:	66 2e 0f 1f 84 00 00 	cs nopw 0x0(%rax,%rax,1)
    3d5a:	00 00 00 
    3d5d:	66 2e 0f 1f 84 00 00 	cs nopw 0x0(%rax,%rax,1)
    3d64:	00 00 00 
    3d67:	66 2e 0f 1f 84 00 00 	cs nopw 0x0(%rax,%rax,1)
    3d6e:	00 00 00 
    3d71:	66 2e 0f 1f 84 00 00 	cs nopw 0x0(%rax,%rax,1)
    3d78:	00 00 00 
    3d7b:	66 2e 0f 1f 84 00 00 	cs nopw 0x0(%rax,%rax,1)
    3d82:	00 00 00 
    3d85:	66 2e 0f 1f 84 00 00 	cs nopw 0x0(%rax,%rax,1)
    3d8c:	00 00 00 
    3d8f:	66 2e 0f 1f 84 00 00 	cs nopw 0x0(%rax,%rax,1)
    3d96:	00 00 00 
    3d99:	66 2e 0f 1f 84 00 00 	cs nopw 0x0(%rax,%rax,1)
    3da0:	00 00 00 
    3da3:	66 2e 0f 1f 84 00 00 	cs nopw 0x0(%rax,%rax,1)
    3daa:	00 00 00 
    3dad:	66 2e 0f 1f 84 00 00 	cs nopw 0x0(%rax,%rax,1)
    3db4:	00 00 00 
    3db7:	66 2e 0f 1f 84 00 00 	cs nopw 0x0(%rax,%rax,1)
    3dbe:	00 00 00 
    3dc1:	66 2e 0f 1f 84 00 00 	cs nopw 0x0(%rax,%rax,1)
    3dc8:	00 00 00 
    3dcb:	66 2e 0f 1f 84 00 00 	cs nopw 0x0(%rax,%rax,1)
    3dd2:	00 00 00 
    3dd5:	66 2e 0f 1f 84 00 00 	cs nopw 0x0(%rax,%rax,1)
    3ddc:	00 00 00 
    3ddf:	66 2e 0f 1f 84 00 00 	cs nopw 0x0(%rax,%rax,1)
    3de6:	00 00 00 
    3de9:	66 2e 0f 1f 84 00 00 	cs nopw 0x0(%rax,%rax,1)
    3df0:	00 00 00 
    3df3:	66 2e 0f 1f 84 00 00 	cs nopw 0x0(%rax,%rax,1)
    3dfa:	00 00 00 
    3dfd:	66 2e 0f 1f 84 00 00 	cs nopw 0x0(%rax,%rax,1)
    3e04:	00 00 00 
    3e07:	66 2e 0f 1f 84 00 00 	cs nopw 0x0(%rax,%rax,1)
    3e0e:	00 00 00 
    3e11:	66 2e 0f 1f 84 00 00 	cs nopw 0x0(%rax,%rax,1)
    3e18:	00 00 00 
    3e1b:	66 2e 0f 1f 84 00 00 	cs nopw 0x0(%rax,%rax,1)
    3e22:	00 00 00 
    3e25:	66 2e 0f 1f 84 00 00 	cs nopw 0x0(%rax,%rax,1)
    3e2c:	00 00 00 
    3e2f:	66 2e 0f 1f 84 00 00 	cs nopw 0x0(%rax,%rax,1)
    3e36:	00 00 00 
    3e39:	66 2e 0f 1f 84 00 00 	cs nopw 0x0(%rax,%rax,1)
    3e40:	00 00 00 
    3e43:	66 2e 0f 1f 84 00 00 	cs nopw 0x0(%rax,%rax,1)
    3e4a:	00 00 00 
    3e4d:	66 2e 0f 1f 84 00 00 	cs nopw 0x0(%rax,%rax,1)
    3e54:	00 00 00 
    3e57:	66 2e 0f 1f 84 00 00 	cs nopw 0x0(%rax,%rax,1)
    3e5e:	00 00 00 
    3e61:	66 2e 0f 1f 84 00 00 	cs nopw 0x0(%rax,%rax,1)
    3e68:	00 00 00 
    3e6b:	66 2e 0f 1f 84 00 00 	cs nopw 0x0(%rax,%rax,1)
    3e72:	00 00 00 
    3e75:	66 2e 0f 1f 84 00 00 	cs nopw 0x0(%rax,%rax,1)
    3e7c:	00 00 00 
    3e7f:	66 2e 0f 1f 84 00 00 	cs nopw 0x0(%rax,%rax,1)
    3e86:	00 00 00 
    3e89:	66 2e 0f 1f 84 00 00 	cs nopw 0x0(%rax,%rax,1)
    3e90:	00 00 00 
    3e93:	66 2e 0f 1f 84 00 00 	cs nopw 0x0(%rax,%rax,1)
    3e9a:	00 00 00 
    3e9d:	66 2e 0f 1f 84 00 00 	cs nopw 0x0(%rax,%rax,1)
    3ea4:	00 00 00 
    3ea7:	66 2e 0f 1f 84 00 00 	cs nopw 0x0(%rax,%rax,1)
    3eae:	00 00 00 
    3eb1:	66 2e 0f 1f 84 00 00 	cs nopw 0x0(%rax,%rax,1)
    3eb8:	00 00 00 
    3ebb:	66 2e 0f 1f 84 00 00 	cs nopw 0x0(%rax,%rax,1)
    3ec2:	00 00 00 
    3ec5:	66 2e 0f 1f 84 00 00 	cs nopw 0x0(%rax,%rax,1)
    3ecc:	00 00 00 
    3ecf:	66 2e 0f 1f 84 00 00 	cs nopw 0x0(%rax,%rax,1)
    3ed6:	00 00 00 
    3ed9:	66 2e 0f 1f 84 00 00 	cs nopw 0x0(%rax,%rax,1)
    3ee0:	00 00 00 
    3ee3:	66 2e 0f 1f 84 00 00 	cs nopw 0x0(%rax,%rax,1)
    3eea:	00 00 00 
    3eed:	66 2e 0f 1f 84 00 00 	cs nopw 0x0(%rax,%rax,1)
    3ef4:	00 00 00 
    3ef7:	66 2e 0f 1f 84 00 00 	cs nopw 0x0(%rax,%rax,1)
    3efe:	00 00 00 
    3f01:	66 2e 0f 1f 84 00 00 	cs nopw 0x0(%rax,%rax,1)
    3f08:	00 00 00 
    3f0b:	66 2e 0f 1f 84 00 00 	cs nopw 0x0(%rax,%rax,1)
    3f12:	00 00 00 
    3f15:	66 2e 0f 1f 84 00 00 	cs nopw 0x0(%rax,%rax,1)
    3f1c:	00 00 00 
    3f1f:	66 2e 0f 1f 84 00 00 	cs nopw 0x0(%rax,%rax,1)
    3f26:	00 00 00 
    3f29:	66 2e 0f 1f 84 00 00 	cs nopw 0x0(%rax,%rax,1)
    3f30:	00 00 00 
    3f33:	66 2e 0f 1f 84 00 00 	cs nopw 0x0(%rax,%rax,1)
    3f3a:	00 00 00 
    3f3d:	66 2e 0f 1f 84 00 00 	cs nopw 0x0(%rax,%rax,1)
    3f44:	00 00 00 
    3f47:	66 2e 0f 1f 84 00 00 	cs nopw 0x0(%rax,%rax,1)
    3f4e:	00 00 00 
    3f51:	66 2e 0f 1f 84 00 00 	cs nopw 0x0(%rax,%rax,1)
    3f58:	00 00 00 
    3f5b:	66 2e 0f 1f 84 00 00 	cs nopw 0x0(%rax,%rax,1)
    3f62:	00 00 00 
    3f65:	66 2e 0f 1f 84 00 00 	cs nopw 0x0(%rax,%rax,1)
    3f6c:	00 00 00 
    3f6f:	66 2e 0f 1f 84 00 00 	cs nopw 0x0(%rax,%rax,1)
    3f76:	00 00 00 
    3f79:	66 2e 0f 1f 84 00 00 	cs nopw 0x0(%rax,%rax,1)
    3f80:	00 00 00 
    3f83:	66 2e 0f 1f 84 00 00 	cs nopw 0x0(%rax,%rax,1)
    3f8a:	00 00 00 
    3f8d:	66 2e 0f 1f 84 00 00 	cs nopw 0x0(%rax,%rax,1)
    3f94:	00 00 00 
    3f97:	66 2e 0f 1f 84 00 00 	cs nopw 0x0(%rax,%rax,1)
    3f9e:	00 00 00 
    3fa1:	66 2e 0f 1f 84 00 00 	cs nopw 0x0(%rax,%rax,1)
    3fa8:	00 00 00 
    3fab:	66 2e 0f 1f 84 00 00 	cs nopw 0x0(%rax,%rax,1)
    3fb2:	00 00 00 
    3fb5:	66 2e 0f 1f 84 00 00 	cs nopw 0x0(%rax,%rax,1)
    3fbc:	00 00 00 
    3fbf:	66 2e 0f 1f 84 00 00 	cs nopw 0x0(%rax,%rax,1)
    3fc6:	00 00 00 
    3fc9:	66 2e 0f 1f 84 00 00 	cs nopw 0x0(%rax,%rax,1)
    3fd0:	00 00 00 
    3fd3:	66 2e 0f 1f 84 00 00 	cs nopw 0x0(%rax,%rax,1)
    3fda:	00 00 00 
    3fdd:	66 2e 0f 1f 84 00 00 	cs nopw 0x0(%rax,%rax,1)
    3fe4:	00 00 00 
    3fe7:	66 2e 0f 1f 84 00 00 	cs nopw 0x0(%rax,%rax,1)
    3fee:	00 00 00 
    3ff1:	66 2e 0f 1f 84 00 00 	cs nopw 0x0(%rax,%rax,1)
    3ff8:	00 00 00 
    3ffb:	0f 1f 44 00 00       	nopl   0x0(%rax,%rax,1)

0000000000004000 <test_dummy>:
    4000:	b8 00 00 00 00       	mov    $0x0,%eax
    4005:	c3                   	ret    
	...

0000000000005006 <sgx_ecall_clear_all>:
    5006:	f3 0f 1e fa          	endbr64 
    500a:	41 55                	push   %r13
    500c:	41 54                	push   %r12
    500e:	55                   	push   %rbp
    500f:	53                   	push   %rbx
    5010:	48 83 ec 18          	sub    $0x18,%rsp
    5014:	48 85 ff             	test   %rdi,%rdi
    5017:	75 0b                	jne    5024 <sgx_ecall_clear_all+0x1e>
    5019:	41 bc 02 00 00 00    	mov    $0x2,%r12d
    501f:	e9 c7 00 00 00       	jmp    50eb <sgx_ecall_clear_all+0xe5>
    5024:	be 10 00 00 00       	mov    $0x10,%esi
    5029:	48 89 fb             	mov    %rdi,%rbx
    502c:	e8 ef 1e 00 00       	call   6f20 <sgx_is_outside_enclave>
    5031:	85 c0                	test   %eax,%eax
    5033:	74 e4                	je     5019 <sgx_ecall_clear_all+0x13>
    5035:	0f ae e8             	lfence 
    5038:	48 89 e7             	mov    %rsp,%rdi
    503b:	b9 10 00 00 00       	mov    $0x10,%ecx
    5040:	48 89 da             	mov    %rbx,%rdx
    5043:	be 10 00 00 00       	mov    $0x10,%esi
    5048:	41 bc 01 00 00 00    	mov    $0x1,%r12d
    504e:	e8 2d d0 00 00       	call   12080 <memcpy_s>
    5053:	85 c0                	test   %eax,%eax
    5055:	0f 85 90 00 00 00    	jne    50eb <sgx_ecall_clear_all+0xe5>
    505b:	4c 8b 2c 24          	mov    (%rsp),%r13
    505f:	48 8b 6c 24 08       	mov    0x8(%rsp),%rbp
    5064:	4d 85 ed             	test   %r13,%r13
    5067:	75 11                	jne    507a <sgx_ecall_clear_all+0x74>
    5069:	0f ae e8             	lfence 
    506c:	4d 85 ed             	test   %r13,%r13
    506f:	74 05                	je     5076 <sgx_ecall_clear_all+0x70>
    5071:	48 85 ed             	test   %rbp,%rbp
    5074:	75 15                	jne    508b <sgx_ecall_clear_all+0x85>
    5076:	31 db                	xor    %ebx,%ebx
    5078:	eb 59                	jmp    50d3 <sgx_ecall_clear_all+0xcd>
    507a:	48 89 ee             	mov    %rbp,%rsi
    507d:	4c 89 ef             	mov    %r13,%rdi
    5080:	e8 9b 1e 00 00       	call   6f20 <sgx_is_outside_enclave>
    5085:	85 c0                	test   %eax,%eax
    5087:	75 e0                	jne    5069 <sgx_ecall_clear_all+0x63>
    5089:	eb 8e                	jmp    5019 <sgx_ecall_clear_all+0x13>
    508b:	48 89 ef             	mov    %rbp,%rdi
    508e:	41 bc 03 00 00 00    	mov    $0x3,%r12d
    5094:	e8 f7 93 00 00       	call   e490 <dlmalloc>
    5099:	48 89 c3             	mov    %rax,%rbx
    509c:	48 85 c0             	test   %rax,%rax
    509f:	74 4a                	je     50eb <sgx_ecall_clear_all+0xe5>
    50a1:	48 89 e9             	mov    %rbp,%rcx
    50a4:	4c 89 ea             	mov    %r13,%rdx
    50a7:	48 89 ee             	mov    %rbp,%rsi
    50aa:	48 89 c7             	mov    %rax,%rdi
    50ad:	e8 ce cf 00 00       	call   12080 <memcpy_s>
    50b2:	85 c0                	test   %eax,%eax
    50b4:	75 15                	jne    50cb <sgx_ecall_clear_all+0xc5>
    50b6:	c6 44 2b ff 00       	movb   $0x0,-0x1(%rbx,%rbp,1)
    50bb:	48 89 df             	mov    %rbx,%rdi
    50be:	e8 ed cc 00 00       	call   11db0 <strlen>
    50c3:	48 ff c0             	inc    %rax
    50c6:	48 39 e8             	cmp    %rbp,%rax
    50c9:	74 08                	je     50d3 <sgx_ecall_clear_all+0xcd>
    50cb:	41 bc 01 00 00 00    	mov    $0x1,%r12d
    50d1:	eb 10                	jmp    50e3 <sgx_ecall_clear_all+0xdd>
    50d3:	48 89 df             	mov    %rbx,%rdi
    50d6:	45 31 e4             	xor    %r12d,%r12d
    50d9:	e8 08 e2 ff ff       	call   32e6 <ecall_clear_all>
    50de:	48 85 db             	test   %rbx,%rbx
    50e1:	74 08                	je     50eb <sgx_ecall_clear_all+0xe5>
    50e3:	48 89 df             	mov    %rbx,%rdi
    50e6:	e8 95 b1 00 00       	call   10280 <dlfree>
    50eb:	48 83 c4 18          	add    $0x18,%rsp
    50ef:	44 89 e0             	mov    %r12d,%eax
    50f2:	5b                   	pop    %rbx
    50f3:	5d                   	pop    %rbp
    50f4:	41 5c                	pop    %r12
    50f6:	41 5d                	pop    %r13
    50f8:	c3                   	ret    

00000000000050f9 <sgx_ecall_init_master_password>:
    50f9:	f3 0f 1e fa          	endbr64 
    50fd:	41 55                	push   %r13
    50ff:	41 54                	push   %r12
    5101:	55                   	push   %rbp
    5102:	53                   	push   %rbx
    5103:	48 83 ec 18          	sub    $0x18,%rsp
    5107:	48 85 ff             	test   %rdi,%rdi
    510a:	75 0b                	jne    5117 <sgx_ecall_init_master_password+0x1e>
    510c:	41 bc 02 00 00 00    	mov    $0x2,%r12d
    5112:	e9 c7 00 00 00       	jmp    51de <sgx_ecall_init_master_password+0xe5>
    5117:	be 10 00 00 00       	mov    $0x10,%esi
    511c:	48 89 fb             	mov    %rdi,%rbx
    511f:	e8 fc 1d 00 00       	call   6f20 <sgx_is_outside_enclave>
    5124:	85 c0                	test   %eax,%eax
    5126:	74 e4                	je     510c <sgx_ecall_init_master_password+0x13>
    5128:	0f ae e8             	lfence 
    512b:	48 89 e7             	mov    %rsp,%rdi
    512e:	b9 10 00 00 00       	mov    $0x10,%ecx
    5133:	48 89 da             	mov    %rbx,%rdx
    5136:	be 10 00 00 00       	mov    $0x10,%esi
    513b:	41 bc 01 00 00 00    	mov    $0x1,%r12d
    5141:	e8 3a cf 00 00       	call   12080 <memcpy_s>
    5146:	85 c0                	test   %eax,%eax
    5148:	0f 85 90 00 00 00    	jne    51de <sgx_ecall_init_master_password+0xe5>
    514e:	4c 8b 2c 24          	mov    (%rsp),%r13
    5152:	48 8b 6c 24 08       	mov    0x8(%rsp),%rbp
    5157:	4d 85 ed             	test   %r13,%r13
    515a:	75 11                	jne    516d <sgx_ecall_init_master_password+0x74>
    515c:	0f ae e8             	lfence 
    515f:	4d 85 ed             	test   %r13,%r13
    5162:	74 05                	je     5169 <sgx_ecall_init_master_password+0x70>
    5164:	48 85 ed             	test   %rbp,%rbp
    5167:	75 15                	jne    517e <sgx_ecall_init_master_password+0x85>
    5169:	31 db                	xor    %ebx,%ebx
    516b:	eb 59                	jmp    51c6 <sgx_ecall_init_master_password+0xcd>
    516d:	48 89 ee             	mov    %rbp,%rsi
    5170:	4c 89 ef             	mov    %r13,%rdi
    5173:	e8 a8 1d 00 00       	call   6f20 <sgx_is_outside_enclave>
    5178:	85 c0                	test   %eax,%eax
    517a:	75 e0                	jne    515c <sgx_ecall_init_master_password+0x63>
    517c:	eb 8e                	jmp    510c <sgx_ecall_init_master_password+0x13>
    517e:	48 89 ef             	mov    %rbp,%rdi
    5181:	41 bc 03 00 00 00    	mov    $0x3,%r12d
    5187:	e8 04 93 00 00       	call   e490 <dlmalloc>
    518c:	48 89 c3             	mov    %rax,%rbx
    518f:	48 85 c0             	test   %rax,%rax
    5192:	74 4a                	je     51de <sgx_ecall_init_master_password+0xe5>
    5194:	48 89 e9             	mov    %rbp,%rcx
    5197:	4c 89 ea             	mov    %r13,%rdx
    519a:	48 89 ee             	mov    %rbp,%rsi
    519d:	48 89 c7             	mov    %rax,%rdi
    51a0:	e8 db ce 00 00       	call   12080 <memcpy_s>
    51a5:	85 c0                	test   %eax,%eax
    51a7:	75 15                	jne    51be <sgx_ecall_init_master_password+0xc5>
    51a9:	c6 44 2b ff 00       	movb   $0x0,-0x1(%rbx,%rbp,1)
    51ae:	48 89 df             	mov    %rbx,%rdi
    51b1:	e8 fa cb 00 00       	call   11db0 <strlen>
    51b6:	48 ff c0             	inc    %rax
    51b9:	48 39 e8             	cmp    %rbp,%rax
    51bc:	74 08                	je     51c6 <sgx_ecall_init_master_password+0xcd>
    51be:	41 bc 01 00 00 00    	mov    $0x1,%r12d
    51c4:	eb 10                	jmp    51d6 <sgx_ecall_init_master_password+0xdd>
    51c6:	48 89 df             	mov    %rbx,%rdi
    51c9:	45 31 e4             	xor    %r12d,%r12d
    51cc:	e8 2f df ff ff       	call   3100 <ecall_init_master_password>
    51d1:	48 85 db             	test   %rbx,%rbx
    51d4:	74 08                	je     51de <sgx_ecall_init_master_password+0xe5>
    51d6:	48 89 df             	mov    %rbx,%rdi
    51d9:	e8 a2 b0 00 00       	call   10280 <dlfree>
    51de:	48 83 c4 18          	add    $0x18,%rsp
    51e2:	44 89 e0             	mov    %r12d,%eax
    51e5:	5b                   	pop    %rbx
    51e6:	5d                   	pop    %rbp
    51e7:	41 5c                	pop    %r12
    51e9:	41 5d                	pop    %r13
    51eb:	c3                   	ret    

00000000000051ec <sgx_ecall_get_passwords>:
    51ec:	f3 0f 1e fa          	endbr64 
    51f0:	41 55                	push   %r13
    51f2:	41 54                	push   %r12
    51f4:	55                   	push   %rbp
    51f5:	53                   	push   %rbx
    51f6:	48 83 ec 18          	sub    $0x18,%rsp
    51fa:	48 85 ff             	test   %rdi,%rdi
    51fd:	75 0b                	jne    520a <sgx_ecall_get_passwords+0x1e>
    51ff:	41 bc 02 00 00 00    	mov    $0x2,%r12d
    5205:	e9 c7 00 00 00       	jmp    52d1 <sgx_ecall_get_passwords+0xe5>
    520a:	be 10 00 00 00       	mov    $0x10,%esi
    520f:	48 89 fb             	mov    %rdi,%rbx
    5212:	e8 09 1d 00 00       	call   6f20 <sgx_is_outside_enclave>
    5217:	85 c0                	test   %eax,%eax
    5219:	74 e4                	je     51ff <sgx_ecall_get_passwords+0x13>
    521b:	0f ae e8             	lfence 
    521e:	48 89 e7             	mov    %rsp,%rdi
    5221:	b9 10 00 00 00       	mov    $0x10,%ecx
    5226:	48 89 da             	mov    %rbx,%rdx
    5229:	be 10 00 00 00       	mov    $0x10,%esi
    522e:	41 bc 01 00 00 00    	mov    $0x1,%r12d
    5234:	e8 47 ce 00 00       	call   12080 <memcpy_s>
    5239:	85 c0                	test   %eax,%eax
    523b:	0f 85 90 00 00 00    	jne    52d1 <sgx_ecall_get_passwords+0xe5>
    5241:	4c 8b 2c 24          	mov    (%rsp),%r13
    5245:	48 8b 6c 24 08       	mov    0x8(%rsp),%rbp
    524a:	4d 85 ed             	test   %r13,%r13
    524d:	75 11                	jne    5260 <sgx_ecall_get_passwords+0x74>
    524f:	0f ae e8             	lfence 
    5252:	4d 85 ed             	test   %r13,%r13
    5255:	74 05                	je     525c <sgx_ecall_get_passwords+0x70>
    5257:	48 85 ed             	test   %rbp,%rbp
    525a:	75 15                	jne    5271 <sgx_ecall_get_passwords+0x85>
    525c:	31 db                	xor    %ebx,%ebx
    525e:	eb 59                	jmp    52b9 <sgx_ecall_get_passwords+0xcd>
    5260:	48 89 ee             	mov    %rbp,%rsi
    5263:	4c 89 ef             	mov    %r13,%rdi
    5266:	e8 b5 1c 00 00       	call   6f20 <sgx_is_outside_enclave>
    526b:	85 c0                	test   %eax,%eax
    526d:	75 e0                	jne    524f <sgx_ecall_get_passwords+0x63>
    526f:	eb 8e                	jmp    51ff <sgx_ecall_get_passwords+0x13>
    5271:	48 89 ef             	mov    %rbp,%rdi
    5274:	41 bc 03 00 00 00    	mov    $0x3,%r12d
    527a:	e8 11 92 00 00       	call   e490 <dlmalloc>
    527f:	48 89 c3             	mov    %rax,%rbx
    5282:	48 85 c0             	test   %rax,%rax
    5285:	74 4a                	je     52d1 <sgx_ecall_get_passwords+0xe5>
    5287:	48 89 e9             	mov    %rbp,%rcx
    528a:	4c 89 ea             	mov    %r13,%rdx
    528d:	48 89 ee             	mov    %rbp,%rsi
    5290:	48 89 c7             	mov    %rax,%rdi
    5293:	e8 e8 cd 00 00       	call   12080 <memcpy_s>
    5298:	85 c0                	test   %eax,%eax
    529a:	75 15                	jne    52b1 <sgx_ecall_get_passwords+0xc5>
    529c:	c6 44 2b ff 00       	movb   $0x0,-0x1(%rbx,%rbp,1)
    52a1:	48 89 df             	mov    %rbx,%rdi
    52a4:	e8 07 cb 00 00       	call   11db0 <strlen>
    52a9:	48 ff c0             	inc    %rax
    52ac:	48 39 e8             	cmp    %rbp,%rax
    52af:	74 08                	je     52b9 <sgx_ecall_get_passwords+0xcd>
    52b1:	41 bc 01 00 00 00    	mov    $0x1,%r12d
    52b7:	eb 10                	jmp    52c9 <sgx_ecall_get_passwords+0xdd>
    52b9:	48 89 df             	mov    %rbx,%rdi
    52bc:	45 31 e4             	xor    %r12d,%r12d
    52bf:	e8 aa df ff ff       	call   326e <ecall_get_passwords>
    52c4:	48 85 db             	test   %rbx,%rbx
    52c7:	74 08                	je     52d1 <sgx_ecall_get_passwords+0xe5>
    52c9:	48 89 df             	mov    %rbx,%rdi
    52cc:	e8 af af 00 00       	call   10280 <dlfree>
    52d1:	48 83 c4 18          	add    $0x18,%rsp
    52d5:	44 89 e0             	mov    %r12d,%eax
    52d8:	5b                   	pop    %rbx
    52d9:	5d                   	pop    %rbp
    52da:	41 5c                	pop    %r12
    52dc:	41 5d                	pop    %r13
    52de:	c3                   	ret    

00000000000052df <sgx_ecall_change_master_password>:
    52df:	f3 0f 1e fa          	endbr64 
    52e3:	41 56                	push   %r14
    52e5:	41 55                	push   %r13
    52e7:	41 54                	push   %r12
    52e9:	55                   	push   %rbp
    52ea:	53                   	push   %rbx
    52eb:	48 83 ec 20          	sub    $0x20,%rsp
    52ef:	48 85 ff             	test   %rdi,%rdi
    52f2:	75 0b                	jne    52ff <sgx_ecall_change_master_password+0x20>
    52f4:	41 bc 02 00 00 00    	mov    $0x2,%r12d
    52fa:	e9 6e 01 00 00       	jmp    546d <sgx_ecall_change_master_password+0x18e>
    52ff:	be 20 00 00 00       	mov    $0x20,%esi
    5304:	48 89 fb             	mov    %rdi,%rbx
    5307:	e8 14 1c 00 00       	call   6f20 <sgx_is_outside_enclave>
    530c:	85 c0                	test   %eax,%eax
    530e:	74 e4                	je     52f4 <sgx_ecall_change_master_password+0x15>
    5310:	0f ae e8             	lfence 
    5313:	48 89 e7             	mov    %rsp,%rdi
    5316:	b9 20 00 00 00       	mov    $0x20,%ecx
    531b:	48 89 da             	mov    %rbx,%rdx
    531e:	be 20 00 00 00       	mov    $0x20,%esi
    5323:	41 bc 01 00 00 00    	mov    $0x1,%r12d
    5329:	e8 52 cd 00 00       	call   12080 <memcpy_s>
    532e:	85 c0                	test   %eax,%eax
    5330:	0f 85 37 01 00 00    	jne    546d <sgx_ecall_change_master_password+0x18e>
    5336:	4c 8b 34 24          	mov    (%rsp),%r14
    533a:	48 8b 6c 24 08       	mov    0x8(%rsp),%rbp
    533f:	4c 8b 6c 24 10       	mov    0x10(%rsp),%r13
    5344:	4c 8b 64 24 18       	mov    0x18(%rsp),%r12
    5349:	4d 85 f6             	test   %r14,%r14
    534c:	75 07                	jne    5355 <sgx_ecall_change_master_password+0x76>
    534e:	4d 85 ed             	test   %r13,%r13
    5351:	75 13                	jne    5366 <sgx_ecall_change_master_password+0x87>
    5353:	eb 24                	jmp    5379 <sgx_ecall_change_master_password+0x9a>
    5355:	48 89 ee             	mov    %rbp,%rsi
    5358:	4c 89 f7             	mov    %r14,%rdi
    535b:	e8 c0 1b 00 00       	call   6f20 <sgx_is_outside_enclave>
    5360:	85 c0                	test   %eax,%eax
    5362:	75 ea                	jne    534e <sgx_ecall_change_master_password+0x6f>
    5364:	eb 8e                	jmp    52f4 <sgx_ecall_change_master_password+0x15>
    5366:	4c 89 e6             	mov    %r12,%rsi
    5369:	4c 89 ef             	mov    %r13,%rdi
    536c:	e8 af 1b 00 00       	call   6f20 <sgx_is_outside_enclave>
    5371:	85 c0                	test   %eax,%eax
    5373:	0f 84 7b ff ff ff    	je     52f4 <sgx_ecall_change_master_password+0x15>
    5379:	0f ae e8             	lfence 
    537c:	4d 85 f6             	test   %r14,%r14
    537f:	74 05                	je     5386 <sgx_ecall_change_master_password+0xa7>
    5381:	48 85 ed             	test   %rbp,%rbp
    5384:	75 04                	jne    538a <sgx_ecall_change_master_password+0xab>
    5386:	31 db                	xor    %ebx,%ebx
    5388:	eb 46                	jmp    53d0 <sgx_ecall_change_master_password+0xf1>
    538a:	48 89 ef             	mov    %rbp,%rdi
    538d:	e8 fe 90 00 00       	call   e490 <dlmalloc>
    5392:	48 89 c3             	mov    %rax,%rbx
    5395:	48 85 c0             	test   %rax,%rax
    5398:	0f 84 c9 00 00 00    	je     5467 <sgx_ecall_change_master_password+0x188>
    539e:	48 89 e9             	mov    %rbp,%rcx
    53a1:	4c 89 f2             	mov    %r14,%rdx
    53a4:	48 89 ee             	mov    %rbp,%rsi
    53a7:	48 89 c7             	mov    %rax,%rdi
    53aa:	e8 d1 cc 00 00       	call   12080 <memcpy_s>
    53af:	85 c0                	test   %eax,%eax
    53b1:	0f 85 99 00 00 00    	jne    5450 <sgx_ecall_change_master_password+0x171>
    53b7:	c6 44 2b ff 00       	movb   $0x0,-0x1(%rbx,%rbp,1)
    53bc:	48 89 df             	mov    %rbx,%rdi
    53bf:	e8 ec c9 00 00       	call   11db0 <strlen>
    53c4:	48 ff c0             	inc    %rax
    53c7:	48 39 e8             	cmp    %rbp,%rax
    53ca:	0f 85 80 00 00 00    	jne    5450 <sgx_ecall_change_master_password+0x171>
    53d0:	4d 85 ed             	test   %r13,%r13
    53d3:	74 42                	je     5417 <sgx_ecall_change_master_password+0x138>
    53d5:	4d 85 e4             	test   %r12,%r12
    53d8:	74 3d                	je     5417 <sgx_ecall_change_master_password+0x138>
    53da:	4c 89 e7             	mov    %r12,%rdi
    53dd:	e8 ae 90 00 00       	call   e490 <dlmalloc>
    53e2:	48 89 c5             	mov    %rax,%rbp
    53e5:	48 85 c0             	test   %rax,%rax
    53e8:	74 44                	je     542e <sgx_ecall_change_master_password+0x14f>
    53ea:	4c 89 e1             	mov    %r12,%rcx
    53ed:	4c 89 ea             	mov    %r13,%rdx
    53f0:	4c 89 e6             	mov    %r12,%rsi
    53f3:	48 89 c7             	mov    %rax,%rdi
    53f6:	e8 85 cc 00 00       	call   12080 <memcpy_s>
    53fb:	85 c0                	test   %eax,%eax
    53fd:	75 5b                	jne    545a <sgx_ecall_change_master_password+0x17b>
    53ff:	42 c6 44 25 ff 00    	movb   $0x0,-0x1(%rbp,%r12,1)
    5405:	48 89 ef             	mov    %rbp,%rdi
    5408:	e8 a3 c9 00 00       	call   11db0 <strlen>
    540d:	48 ff c0             	inc    %rax
    5410:	4c 39 e0             	cmp    %r12,%rax
    5413:	75 45                	jne    545a <sgx_ecall_change_master_password+0x17b>
    5415:	eb 02                	jmp    5419 <sgx_ecall_change_master_password+0x13a>
    5417:	31 ed                	xor    %ebp,%ebp
    5419:	48 89 ee             	mov    %rbp,%rsi
    541c:	48 89 df             	mov    %rbx,%rdi
    541f:	45 31 e4             	xor    %r12d,%r12d
    5422:	e8 8b de ff ff       	call   32b2 <ecall_change_master_password>
    5427:	48 85 db             	test   %rbx,%rbx
    542a:	74 15                	je     5441 <sgx_ecall_change_master_password+0x162>
    542c:	eb 0b                	jmp    5439 <sgx_ecall_change_master_password+0x15a>
    542e:	48 85 db             	test   %rbx,%rbx
    5431:	74 34                	je     5467 <sgx_ecall_change_master_password+0x188>
    5433:	41 bc 03 00 00 00    	mov    $0x3,%r12d
    5439:	48 89 df             	mov    %rbx,%rdi
    543c:	e8 3f ae 00 00       	call   10280 <dlfree>
    5441:	48 85 ed             	test   %rbp,%rbp
    5444:	74 27                	je     546d <sgx_ecall_change_master_password+0x18e>
    5446:	48 89 ef             	mov    %rbp,%rdi
    5449:	e8 32 ae 00 00       	call   10280 <dlfree>
    544e:	eb 1d                	jmp    546d <sgx_ecall_change_master_password+0x18e>
    5450:	31 ed                	xor    %ebp,%ebp
    5452:	41 bc 01 00 00 00    	mov    $0x1,%r12d
    5458:	eb df                	jmp    5439 <sgx_ecall_change_master_password+0x15a>
    545a:	41 bc 01 00 00 00    	mov    $0x1,%r12d
    5460:	48 85 db             	test   %rbx,%rbx
    5463:	74 e1                	je     5446 <sgx_ecall_change_master_password+0x167>
    5465:	eb eb                	jmp    5452 <sgx_ecall_change_master_password+0x173>
    5467:	41 bc 03 00 00 00    	mov    $0x3,%r12d
    546d:	48 83 c4 20          	add    $0x20,%rsp
    5471:	44 89 e0             	mov    %r12d,%eax
    5474:	5b                   	pop    %rbx
    5475:	5d                   	pop    %rbp
    5476:	41 5c                	pop    %r12
    5478:	41 5d                	pop    %r13
    547a:	41 5e                	pop    %r14
    547c:	c3                   	ret    

000000000000547d <sgx_ecall_add_password>:
    547d:	f3 0f 1e fa          	endbr64 
    5481:	41 56                	push   %r14
    5483:	41 55                	push   %r13
    5485:	41 54                	push   %r12
    5487:	55                   	push   %rbp
    5488:	53                   	push   %rbx
    5489:	48 83 ec 20          	sub    $0x20,%rsp
    548d:	48 85 ff             	test   %rdi,%rdi
    5490:	75 0b                	jne    549d <sgx_ecall_add_password+0x20>
    5492:	41 bc 02 00 00 00    	mov    $0x2,%r12d
    5498:	e9 6e 01 00 00       	jmp    560b <sgx_ecall_add_password+0x18e>
    549d:	be 20 00 00 00       	mov    $0x20,%esi
    54a2:	48 89 fb             	mov    %rdi,%rbx
    54a5:	e8 76 1a 00 00       	call   6f20 <sgx_is_outside_enclave>
    54aa:	85 c0                	test   %eax,%eax
    54ac:	74 e4                	je     5492 <sgx_ecall_add_password+0x15>
    54ae:	0f ae e8             	lfence 
    54b1:	48 89 e7             	mov    %rsp,%rdi
    54b4:	b9 20 00 00 00       	mov    $0x20,%ecx
    54b9:	48 89 da             	mov    %rbx,%rdx
    54bc:	be 20 00 00 00       	mov    $0x20,%esi
    54c1:	41 bc 01 00 00 00    	mov    $0x1,%r12d
    54c7:	e8 b4 cb 00 00       	call   12080 <memcpy_s>
    54cc:	85 c0                	test   %eax,%eax
    54ce:	0f 85 37 01 00 00    	jne    560b <sgx_ecall_add_password+0x18e>
    54d4:	4c 8b 34 24          	mov    (%rsp),%r14
    54d8:	48 8b 6c 24 08       	mov    0x8(%rsp),%rbp
    54dd:	4c 8b 6c 24 10       	mov    0x10(%rsp),%r13
    54e2:	4c 8b 64 24 18       	mov    0x18(%rsp),%r12
    54e7:	4d 85 f6             	test   %r14,%r14
    54ea:	75 07                	jne    54f3 <sgx_ecall_add_password+0x76>
    54ec:	4d 85 ed             	test   %r13,%r13
    54ef:	75 13                	jne    5504 <sgx_ecall_add_password+0x87>
    54f1:	eb 24                	jmp    5517 <sgx_ecall_add_password+0x9a>
    54f3:	48 89 ee             	mov    %rbp,%rsi
    54f6:	4c 89 f7             	mov    %r14,%rdi
    54f9:	e8 22 1a 00 00       	call   6f20 <sgx_is_outside_enclave>
    54fe:	85 c0                	test   %eax,%eax
    5500:	75 ea                	jne    54ec <sgx_ecall_add_password+0x6f>
    5502:	eb 8e                	jmp    5492 <sgx_ecall_add_password+0x15>
    5504:	4c 89 e6             	mov    %r12,%rsi
    5507:	4c 89 ef             	mov    %r13,%rdi
    550a:	e8 11 1a 00 00       	call   6f20 <sgx_is_outside_enclave>
    550f:	85 c0                	test   %eax,%eax
    5511:	0f 84 7b ff ff ff    	je     5492 <sgx_ecall_add_password+0x15>
    5517:	0f ae e8             	lfence 
    551a:	4d 85 f6             	test   %r14,%r14
    551d:	74 05                	je     5524 <sgx_ecall_add_password+0xa7>
    551f:	48 85 ed             	test   %rbp,%rbp
    5522:	75 04                	jne    5528 <sgx_ecall_add_password+0xab>
    5524:	31 db                	xor    %ebx,%ebx
    5526:	eb 46                	jmp    556e <sgx_ecall_add_password+0xf1>
    5528:	48 89 ef             	mov    %rbp,%rdi
    552b:	e8 60 8f 00 00       	call   e490 <dlmalloc>
    5530:	48 89 c3             	mov    %rax,%rbx
    5533:	48 85 c0             	test   %rax,%rax
    5536:	0f 84 c9 00 00 00    	je     5605 <sgx_ecall_add_password+0x188>
    553c:	48 89 e9             	mov    %rbp,%rcx
    553f:	4c 89 f2             	mov    %r14,%rdx
    5542:	48 89 ee             	mov    %rbp,%rsi
    5545:	48 89 c7             	mov    %rax,%rdi
    5548:	e8 33 cb 00 00       	call   12080 <memcpy_s>
    554d:	85 c0                	test   %eax,%eax
    554f:	0f 85 99 00 00 00    	jne    55ee <sgx_ecall_add_password+0x171>
    5555:	c6 44 2b ff 00       	movb   $0x0,-0x1(%rbx,%rbp,1)
    555a:	48 89 df             	mov    %rbx,%rdi
    555d:	e8 4e c8 00 00       	call   11db0 <strlen>
    5562:	48 ff c0             	inc    %rax
    5565:	48 39 e8             	cmp    %rbp,%rax
    5568:	0f 85 80 00 00 00    	jne    55ee <sgx_ecall_add_password+0x171>
    556e:	4d 85 ed             	test   %r13,%r13
    5571:	74 42                	je     55b5 <sgx_ecall_add_password+0x138>
    5573:	4d 85 e4             	test   %r12,%r12
    5576:	74 3d                	je     55b5 <sgx_ecall_add_password+0x138>
    5578:	4c 89 e7             	mov    %r12,%rdi
    557b:	e8 10 8f 00 00       	call   e490 <dlmalloc>
    5580:	48 89 c5             	mov    %rax,%rbp
    5583:	48 85 c0             	test   %rax,%rax
    5586:	74 44                	je     55cc <sgx_ecall_add_password+0x14f>
    5588:	4c 89 e1             	mov    %r12,%rcx
    558b:	4c 89 ea             	mov    %r13,%rdx
    558e:	4c 89 e6             	mov    %r12,%rsi
    5591:	48 89 c7             	mov    %rax,%rdi
    5594:	e8 e7 ca 00 00       	call   12080 <memcpy_s>
    5599:	85 c0                	test   %eax,%eax
    559b:	75 5b                	jne    55f8 <sgx_ecall_add_password+0x17b>
    559d:	42 c6 44 25 ff 00    	movb   $0x0,-0x1(%rbp,%r12,1)
    55a3:	48 89 ef             	mov    %rbp,%rdi
    55a6:	e8 05 c8 00 00       	call   11db0 <strlen>
    55ab:	48 ff c0             	inc    %rax
    55ae:	4c 39 e0             	cmp    %r12,%rax
    55b1:	75 45                	jne    55f8 <sgx_ecall_add_password+0x17b>
    55b3:	eb 02                	jmp    55b7 <sgx_ecall_add_password+0x13a>
    55b5:	31 ed                	xor    %ebp,%ebp
    55b7:	48 89 ee             	mov    %rbp,%rsi
    55ba:	48 89 df             	mov    %rbx,%rdi
    55bd:	45 31 e4             	xor    %r12d,%r12d
    55c0:	e8 cd db ff ff       	call   3192 <ecall_add_password>
    55c5:	48 85 db             	test   %rbx,%rbx
    55c8:	74 15                	je     55df <sgx_ecall_add_password+0x162>
    55ca:	eb 0b                	jmp    55d7 <sgx_ecall_add_password+0x15a>
    55cc:	48 85 db             	test   %rbx,%rbx
    55cf:	74 34                	je     5605 <sgx_ecall_add_password+0x188>
    55d1:	41 bc 03 00 00 00    	mov    $0x3,%r12d
    55d7:	48 89 df             	mov    %rbx,%rdi
    55da:	e8 a1 ac 00 00       	call   10280 <dlfree>
    55df:	48 85 ed             	test   %rbp,%rbp
    55e2:	74 27                	je     560b <sgx_ecall_add_password+0x18e>
    55e4:	48 89 ef             	mov    %rbp,%rdi
    55e7:	e8 94 ac 00 00       	call   10280 <dlfree>
    55ec:	eb 1d                	jmp    560b <sgx_ecall_add_password+0x18e>
    55ee:	31 ed                	xor    %ebp,%ebp
    55f0:	41 bc 01 00 00 00    	mov    $0x1,%r12d
    55f6:	eb df                	jmp    55d7 <sgx_ecall_add_password+0x15a>
    55f8:	41 bc 01 00 00 00    	mov    $0x1,%r12d
    55fe:	48 85 db             	test   %rbx,%rbx
    5601:	74 e1                	je     55e4 <sgx_ecall_add_password+0x167>
    5603:	eb eb                	jmp    55f0 <sgx_ecall_add_password+0x173>
    5605:	41 bc 03 00 00 00    	mov    $0x3,%r12d
    560b:	48 83 c4 20          	add    $0x20,%rsp
    560f:	44 89 e0             	mov    %r12d,%eax
    5612:	5b                   	pop    %rbx
    5613:	5d                   	pop    %rbp
    5614:	41 5c                	pop    %r12
    5616:	41 5d                	pop    %r13
    5618:	41 5e                	pop    %r14
    561a:	c3                   	ret    

000000000000561b <sgx_ecall_setup>:
    561b:	f3 0f 1e fa          	endbr64 
    561f:	48 85 ff             	test   %rdi,%rdi
    5622:	75 0a                	jne    562e <sgx_ecall_setup+0x13>
    5624:	50                   	push   %rax
    5625:	e8 c9 db ff ff       	call   31f3 <ecall_setup>
    562a:	31 c0                	xor    %eax,%eax
    562c:	5a                   	pop    %rdx
    562d:	c3                   	ret    
    562e:	b8 02 00 00 00       	mov    $0x2,%eax
    5633:	c3                   	ret    

0000000000005634 <ocall_print>:
    5634:	f3 0f 1e fa          	endbr64 
    5638:	41 55                	push   %r13
    563a:	41 54                	push   %r12
    563c:	55                   	push   %rbp
    563d:	31 ed                	xor    %ebp,%ebp
    563f:	53                   	push   %rbx
    5640:	48 89 fb             	mov    %rdi,%rbx
    5643:	48 83 ec 28          	sub    $0x28,%rsp
    5647:	48 85 ff             	test   %rdi,%rdi
    564a:	74 09                	je     5655 <ocall_print+0x21>
    564c:	e8 5f c7 00 00       	call   11db0 <strlen>
    5651:	48 8d 68 01          	lea    0x1(%rax),%rbp
    5655:	31 c9                	xor    %ecx,%ecx
    5657:	48 89 4c 24 18       	mov    %rcx,0x18(%rsp)
    565c:	48 85 db             	test   %rbx,%rbx
    565f:	74 1c                	je     567d <ocall_print+0x49>
    5661:	48 89 ee             	mov    %rbp,%rsi
    5664:	48 89 df             	mov    %rbx,%rdi
    5667:	49 89 ed             	mov    %rbp,%r13
    566a:	e8 51 18 00 00       	call   6ec0 <sgx_is_within_enclave>
    566f:	85 c0                	test   %eax,%eax
    5671:	75 0d                	jne    5680 <ocall_print+0x4c>
    5673:	b8 02 00 00 00       	mov    $0x2,%eax
    5678:	e9 95 00 00 00       	jmp    5712 <ocall_print+0xde>
    567d:	45 31 ed             	xor    %r13d,%r13d
    5680:	49 8d 7d 08          	lea    0x8(%r13),%rdi
    5684:	48 39 ef             	cmp    %rbp,%rdi
    5687:	73 05                	jae    568e <ocall_print+0x5a>
    5689:	48 85 db             	test   %rbx,%rbx
    568c:	75 e5                	jne    5673 <ocall_print+0x3f>
    568e:	e8 ed 18 00 00       	call   6f80 <sgx_ocalloc>
    5693:	49 89 c4             	mov    %rax,%r12
    5696:	48 85 c0             	test   %rax,%rax
    5699:	75 13                	jne    56ae <ocall_print+0x7a>
    569b:	31 d2                	xor    %edx,%edx
    569d:	48 89 54 24 18       	mov    %rdx,0x18(%rsp)
    56a2:	e8 b9 19 00 00       	call   7060 <sgx_ocfree>
    56a7:	b8 01 00 00 00       	mov    $0x1,%eax
    56ac:	eb 64                	jmp    5712 <ocall_print+0xde>
    56ae:	48 8d 40 08          	lea    0x8(%rax),%rax
    56b2:	48 89 44 24 18       	mov    %rax,0x18(%rsp)
    56b7:	48 85 db             	test   %rbx,%rbx
    56ba:	74 39                	je     56f5 <ocall_print+0xc1>
    56bc:	48 8d 54 24 18       	lea    0x18(%rsp),%rdx
    56c1:	b9 08 00 00 00       	mov    $0x8,%ecx
    56c6:	be 08 00 00 00       	mov    $0x8,%esi
    56cb:	4c 89 e7             	mov    %r12,%rdi
    56ce:	e8 2d ca 00 00       	call   12100 <memcpy_verw_s>
    56d3:	85 c0                	test   %eax,%eax
    56d5:	75 cb                	jne    56a2 <ocall_print+0x6e>
    56d7:	48 8b 7c 24 18       	mov    0x18(%rsp),%rdi
    56dc:	48 89 e9             	mov    %rbp,%rcx
    56df:	48 89 da             	mov    %rbx,%rdx
    56e2:	4c 89 ee             	mov    %r13,%rsi
    56e5:	e8 16 ca 00 00       	call   12100 <memcpy_verw_s>
    56ea:	85 c0                	test   %eax,%eax
    56ec:	75 b4                	jne    56a2 <ocall_print+0x6e>
    56ee:	48 01 6c 24 18       	add    %rbp,0x18(%rsp)
    56f3:	eb 06                	jmp    56fb <ocall_print+0xc7>
    56f5:	31 c0                	xor    %eax,%eax
    56f7:	49 89 04 24          	mov    %rax,(%r12)
    56fb:	4c 89 e6             	mov    %r12,%rsi
    56fe:	31 ff                	xor    %edi,%edi
    5700:	e8 6b 2e 00 00       	call   8570 <sgx_ocall>
    5705:	89 44 24 0c          	mov    %eax,0xc(%rsp)
    5709:	e8 52 19 00 00       	call   7060 <sgx_ocfree>
    570e:	8b 44 24 0c          	mov    0xc(%rsp),%eax
    5712:	48 83 c4 28          	add    $0x28,%rsp
    5716:	5b                   	pop    %rbx
    5717:	5d                   	pop    %rbp
    5718:	41 5c                	pop    %r12
    571a:	41 5d                	pop    %r13
    571c:	c3                   	ret    
    571d:	0f 1f 00             	nopl   (%rax)

0000000000005720 <register_value_select>:
    5720:	89 f1                	mov    %esi,%ecx
    5722:	31 c0                	xor    %eax,%eax
    5724:	48 83 f9 00          	cmp    $0x0,%rcx
    5728:	48 0f 44 07          	cmove  (%rdi),%rax
    572c:	48 83 f9 01          	cmp    $0x1,%rcx
    5730:	48 0f 44 47 08       	cmove  0x8(%rdi),%rax
    5735:	48 83 f9 02          	cmp    $0x2,%rcx
    5739:	48 0f 44 47 10       	cmove  0x10(%rdi),%rax
    573e:	48 83 f9 03          	cmp    $0x3,%rcx
    5742:	48 0f 44 47 18       	cmove  0x18(%rdi),%rax
    5747:	48 83 f9 04          	cmp    $0x4,%rcx
    574b:	48 0f 44 47 20       	cmove  0x20(%rdi),%rax
    5750:	48 83 f9 05          	cmp    $0x5,%rcx
    5754:	48 0f 44 47 28       	cmove  0x28(%rdi),%rax
    5759:	48 83 f9 06          	cmp    $0x6,%rcx
    575d:	48 0f 44 47 30       	cmove  0x30(%rdi),%rax
    5762:	48 83 f9 07          	cmp    $0x7,%rcx
    5766:	48 0f 44 47 38       	cmove  0x38(%rdi),%rax
    576b:	48 83 f9 08          	cmp    $0x8,%rcx
    576f:	48 0f 44 47 40       	cmove  0x40(%rdi),%rax
    5774:	48 83 f9 09          	cmp    $0x9,%rcx
    5778:	48 0f 44 47 48       	cmove  0x48(%rdi),%rax
    577d:	48 83 f9 0a          	cmp    $0xa,%rcx
    5781:	48 0f 44 47 50       	cmove  0x50(%rdi),%rax
    5786:	48 83 f9 0b          	cmp    $0xb,%rcx
    578a:	48 0f 44 47 58       	cmove  0x58(%rdi),%rax
    578f:	48 83 f9 0c          	cmp    $0xc,%rcx
    5793:	48 0f 44 47 60       	cmove  0x60(%rdi),%rax
    5798:	48 83 f9 0d          	cmp    $0xd,%rcx
    579c:	48 0f 44 47 68       	cmove  0x68(%rdi),%rax
    57a1:	48 83 f9 0e          	cmp    $0xe,%rcx
    57a5:	48 0f 44 47 70       	cmove  0x70(%rdi),%rax
    57aa:	48 83 f9 0f          	cmp    $0xf,%rcx
    57ae:	48 0f 44 47 78       	cmove  0x78(%rdi),%rax
    57b3:	c3                   	ret    
    57b4:	66 2e 0f 1f 84 00 00 	cs nopw 0x0(%rax,%rax,1)
    57bb:	00 00 00 
    57be:	66 90                	xchg   %ax,%ax

00000000000057c0 <ct_decode>:
    57c0:	f3 0f 1e fa          	endbr64 
    57c4:	55                   	push   %rbp
    57c5:	48 89 e5             	mov    %rsp,%rbp
    57c8:	41 57                	push   %r15
    57ca:	41 56                	push   %r14
    57cc:	41 55                	push   %r13
    57ce:	41 54                	push   %r12
    57d0:	53                   	push   %rbx
    57d1:	48 83 e4 c0          	and    $0xffffffffffffffc0,%rsp
    57d5:	48 81 ec 40 05 00 00 	sub    $0x540,%rsp
    57dc:	48 89 7c 24 78       	mov    %rdi,0x78(%rsp)
    57e1:	48 89 74 24 50       	mov    %rsi,0x50(%rsp)
    57e6:	64 48 8b 04 25 28 00 	mov    %fs:0x28,%rax
    57ed:	00 00 
    57ef:	48 89 84 24 38 05 00 	mov    %rax,0x538(%rsp)
    57f6:	00 
    57f7:	31 c0                	xor    %eax,%eax
    57f9:	48 8d 84 24 00 01 00 	lea    0x100(%rsp),%rax
    5800:	00 
    5801:	f6 05 33 d6 01 00 08 	testb  $0x8,0x1d633(%rip)        # 22e3b <g_cpu_feature_indicator+0x3>
    5808:	48 89 44 24 18       	mov    %rax,0x18(%rsp)
    580d:	0f 84 fd 0f 00 00    	je     6810 <ct_decode+0x1050>
    5813:	62 f1 7c 48 29 00    	vmovaps %zmm0,(%rax)
    5819:	62 f1 7c 48 29 48 01 	vmovaps %zmm1,0x40(%rax)
    5820:	62 f1 7c 48 29 50 02 	vmovaps %zmm2,0x80(%rax)
    5827:	62 f1 7c 48 29 58 03 	vmovaps %zmm3,0xc0(%rax)
    582e:	62 f1 7c 48 29 60 04 	vmovaps %zmm4,0x100(%rax)
    5835:	62 f1 7c 48 29 68 05 	vmovaps %zmm5,0x140(%rax)
    583c:	62 f1 7c 48 29 70 06 	vmovaps %zmm6,0x180(%rax)
    5843:	62 f1 7c 48 29 78 07 	vmovaps %zmm7,0x1c0(%rax)
    584a:	62 71 7c 48 29 40 08 	vmovaps %zmm8,0x200(%rax)
    5851:	62 71 7c 48 29 48 09 	vmovaps %zmm9,0x240(%rax)
    5858:	62 71 7c 48 29 50 0a 	vmovaps %zmm10,0x280(%rax)
    585f:	62 71 7c 48 29 58 0b 	vmovaps %zmm11,0x2c0(%rax)
    5866:	62 71 7c 48 29 60 0c 	vmovaps %zmm12,0x300(%rax)
    586d:	62 71 7c 48 29 68 0d 	vmovaps %zmm13,0x340(%rax)
    5874:	62 71 7c 48 29 70 0e 	vmovaps %zmm14,0x380(%rax)
    587b:	62 71 7c 48 29 78 0f 	vmovaps %zmm15,0x3c0(%rax)
    5882:	48 8b 7c 24 78       	mov    0x78(%rsp),%rdi
    5887:	31 c9                	xor    %ecx,%ecx
    5889:	ba f0 0f 00 00       	mov    $0xff0,%edx
    588e:	48 be f0 f0 f0 f0 f0 	movabs $0xf0f0f0f0f0f0f0f0,%rsi
    5895:	f0 f0 f0 
    5898:	c4 e1 f9 6e c6       	vmovq  %rsi,%xmm0
    589d:	c5 f9 6f 25 7b d8 01 	vmovdqa 0x1d87b(%rip),%xmm4        # 23120 <standard>
    58a4:	00 
    58a5:	49 bb 80 80 80 80 80 	movabs $0x8080808080808080,%r11
    58ac:	80 80 80 
    58af:	c4 e3 5d 38 25 67 d7 	vinserti128 $0x1,0x1d767(%rip),%ymm4,%ymm4        # 23020 <extended>
    58b6:	01 00 01 
    58b9:	4c 8b b7 88 00 00 00 	mov    0x88(%rdi),%r14
    58c0:	c4 e2 7d 59 c0       	vpbroadcastq %xmm0,%ymm0
    58c5:	c5 79 6f 2d 73 d8 01 	vmovdqa 0x1d873(%rip),%xmm13        # 23140 <standard+0x20>
    58cc:	00 
    58cd:	48 bf ff ff ff ff ff 	movabs $0xffffffffffff,%rdi
    58d4:	ff 00 00 
    58d7:	c4 63 15 38 2d 5f d7 	vinserti128 $0x1,0x1d75f(%rip),%ymm13,%ymm13        # 23040 <extended+0x20>
    58de:	01 00 01 
    58e1:	c5 79 6f 25 87 d8 01 	vmovdqa 0x1d887(%rip),%xmm12        # 23170 <standard+0x50>
    58e8:	00 
    58e9:	41 bd 01 00 00 00    	mov    $0x1,%r13d
    58ef:	41 b8 03 00 00 00    	mov    $0x3,%r8d
    58f5:	4c 89 f0             	mov    %r14,%rax
    58f8:	c5 79 6f 1d 80 d8 01 	vmovdqa 0x1d880(%rip),%xmm11        # 23180 <standard+0x60>
    58ff:	00 
    5900:	c4 63 1d 38 25 66 d7 	vinserti128 $0x1,0x1d766(%rip),%ymm12,%ymm12        # 23070 <extended+0x50>
    5907:	01 00 01 
    590a:	4c 89 74 24 68       	mov    %r14,0x68(%rsp)
    590f:	25 ff 0f 00 00       	and    $0xfff,%eax
    5914:	c5 79 6f 15 74 d8 01 	vmovdqa 0x1d874(%rip),%xmm10        # 23190 <standard+0x70>
    591b:	00 
    591c:	c4 63 25 38 1d 5a d7 	vinserti128 $0x1,0x1d75a(%rip),%ymm11,%ymm11        # 23080 <extended+0x60>
    5923:	01 00 01 
    5926:	48 3d f0 0f 00 00    	cmp    $0xff0,%rax
    592c:	c5 79 6f 0d 6c d8 01 	vmovdqa 0x1d86c(%rip),%xmm9        # 231a0 <standard+0x80>
    5933:	00 
    5934:	c4 63 2d 38 15 52 d7 	vinserti128 $0x1,0x1d752(%rip),%ymm10,%ymm10        # 23090 <extended+0x70>
    593b:	01 00 01 
    593e:	0f 96 c1             	setbe  %cl
    5941:	c5 79 6f 05 67 d8 01 	vmovdqa 0x1d867(%rip),%xmm8        # 231b0 <standard+0x90>
    5948:	00 
    5949:	c4 63 35 38 0d 4d d7 	vinserti128 $0x1,0x1d74d(%rip),%ymm9,%ymm9        # 230a0 <extended+0x80>
    5950:	01 00 01 
    5953:	48 83 f9 00          	cmp    $0x0,%rcx
    5957:	48 0f 45 d0          	cmovne %rax,%rdx
    595b:	31 c9                	xor    %ecx,%ecx
    595d:	48 3d f0 0f 00 00    	cmp    $0xff0,%rax
    5963:	c4 63 3d 38 05 43 d7 	vinserti128 $0x1,0x1d743(%rip),%ymm8,%ymm8        # 230b0 <extended+0x90>
    596a:	01 00 01 
    596d:	c5 79 6f 3d 6b d8 01 	vmovdqa 0x1d86b(%rip),%xmm15        # 231e0 <standard+0xc0>
    5974:	00 
    5975:	0f 97 c1             	seta   %cl
    5978:	45 31 e4             	xor    %r12d,%r12d
    597b:	2d f0 0f 00 00       	sub    $0xff0,%eax
    5980:	44 89 e3             	mov    %r12d,%ebx
    5983:	45 89 e7             	mov    %r12d,%r15d
    5986:	48 83 f9 00          	cmp    $0x0,%rcx
    598a:	0f 45 d8             	cmovne %eax,%ebx
    598d:	4c 89 f0             	mov    %r14,%rax
    5990:	89 5c 24 4c          	mov    %ebx,0x4c(%rsp)
    5994:	48 25 00 f0 ff ff    	and    $0xfffffffffffff000,%rax
    599a:	48 09 d0             	or     %rdx,%rax
    599d:	c5 fa 6f 28          	vmovdqu (%rax),%xmm5
    59a1:	48 63 c3             	movslq %ebx,%rax
    59a4:	bb 02 00 00 00       	mov    $0x2,%ebx
    59a9:	c4 e1 f9 6e f8       	vmovq  %rax,%xmm7
    59ae:	b8 10 00 00 00       	mov    $0x10,%eax
    59b3:	41 89 de             	mov    %ebx,%r14d
    59b6:	c5 d1 f3 ef          	vpsllq %xmm7,%xmm5,%xmm5
    59ba:	c4 c1 f9 6e fb       	vmovq  %r11,%xmm7
    59bf:	c4 e2 7d 59 df       	vpbroadcastq %xmm7,%ymm3
    59c4:	c4 e2 7d 59 cd       	vpbroadcastq %xmm5,%ymm1
    59c9:	c4 e1 f9 7e ea       	vmovq  %xmm5,%rdx
    59ce:	c5 fd df d1          	vpandn %ymm1,%ymm0,%ymm2
    59d2:	c5 f5 db c8          	vpand  %ymm0,%ymm1,%ymm1
    59d6:	c5 f9 ef c0          	vpxor  %xmm0,%xmm0,%xmm0
    59da:	49 89 d2             	mov    %rdx,%r10
    59dd:	c5 f5 74 c0          	vpcmpeqb %ymm0,%ymm1,%ymm0
    59e1:	c5 fd df c3          	vpandn %ymm3,%ymm0,%ymm0
    59e5:	c5 fd eb c2          	vpor   %ymm2,%ymm0,%ymm0
    59e9:	c4 62 5d 00 f0       	vpshufb %ymm0,%ymm4,%ymm14
    59ee:	c5 f9 6e c0          	vmovd  %eax,%xmm0
    59f2:	c5 f9 6f 25 36 d7 01 	vmovdqa 0x1d736(%rip),%xmm4        # 23130 <standard+0x10>
    59f9:	00 
    59fa:	c4 e3 5d 38 25 2c d6 	vinserti128 $0x1,0x1d62c(%rip),%ymm4,%ymm4        # 23030 <extended+0x10>
    5a01:	01 00 01 
    5a04:	c4 e2 7d 78 c0       	vpbroadcastb %xmm0,%ymm0
    5a09:	b8 20 00 00 00       	mov    $0x20,%eax
    5a0e:	c5 7d 7f b4 24 a0 00 	vmovdqa %ymm14,0xa0(%rsp)
    5a15:	00 00 
    5a17:	c5 f5 74 c0          	vpcmpeqb %ymm0,%ymm1,%ymm0
    5a1b:	c5 fd df c3          	vpandn %ymm3,%ymm0,%ymm0
    5a1f:	c5 fd eb c2          	vpor   %ymm2,%ymm0,%ymm0
    5a23:	c4 e2 5d 00 f8       	vpshufb %ymm0,%ymm4,%ymm7
    5a28:	c5 f9 6e c0          	vmovd  %eax,%xmm0
    5a2c:	b8 30 00 00 00       	mov    $0x30,%eax
    5a31:	c5 f9 6f 25 17 d7 01 	vmovdqa 0x1d717(%rip),%xmm4        # 23150 <standard+0x30>
    5a38:	00 
    5a39:	c4 e3 5d 38 25 0d d6 	vinserti128 $0x1,0x1d60d(%rip),%ymm4,%ymm4        # 23050 <extended+0x30>
    5a40:	01 00 01 
    5a43:	c4 e2 7d 78 c0       	vpbroadcastb %xmm0,%ymm0
    5a48:	c5 fd 7f bc 24 e0 00 	vmovdqa %ymm7,0xe0(%rsp)
    5a4f:	00 00 
    5a51:	c5 f9 6f 3d 67 d7 01 	vmovdqa 0x1d767(%rip),%xmm7        # 231c0 <standard+0xa0>
    5a58:	00 
    5a59:	c4 e3 45 38 3d 5d d6 	vinserti128 $0x1,0x1d65d(%rip),%ymm7,%ymm7        # 230c0 <extended+0xa0>
    5a60:	01 00 01 
    5a63:	c5 f5 74 c0          	vpcmpeqb %ymm0,%ymm1,%ymm0
    5a67:	c5 fd df c3          	vpandn %ymm3,%ymm0,%ymm0
    5a6b:	c5 fd eb c2          	vpor   %ymm2,%ymm0,%ymm0
    5a6f:	c4 62 15 00 e8       	vpshufb %ymm0,%ymm13,%ymm13
    5a74:	c5 f9 6e c0          	vmovd  %eax,%xmm0
    5a78:	b8 40 00 00 00       	mov    $0x40,%eax
    5a7d:	c4 e2 7d 78 c0       	vpbroadcastb %xmm0,%ymm0
    5a82:	c5 f9 6e f0          	vmovd  %eax,%xmm6
    5a86:	b8 50 00 00 00       	mov    $0x50,%eax
    5a8b:	c5 f5 74 c0          	vpcmpeqb %ymm0,%ymm1,%ymm0
    5a8f:	c4 e2 7d 78 f6       	vpbroadcastb %xmm6,%ymm6
    5a94:	c5 f5 74 f6          	vpcmpeqb %ymm6,%ymm1,%ymm6
    5a98:	c5 fd df c3          	vpandn %ymm3,%ymm0,%ymm0
    5a9c:	c5 fd eb c2          	vpor   %ymm2,%ymm0,%ymm0
    5aa0:	c5 cd df f3          	vpandn %ymm3,%ymm6,%ymm6
    5aa4:	c4 e2 5d 00 e0       	vpshufb %ymm0,%ymm4,%ymm4
    5aa9:	c5 f9 6f 05 af d6 01 	vmovdqa 0x1d6af(%rip),%xmm0        # 23160 <standard+0x40>
    5ab0:	00 
    5ab1:	c5 cd eb f2          	vpor   %ymm2,%ymm6,%ymm6
    5ab5:	c4 e3 7d 38 05 a1 d5 	vinserti128 $0x1,0x1d5a1(%rip),%ymm0,%ymm0        # 23060 <extended+0x40>
    5abc:	01 00 01 
    5abf:	c4 e1 f9 7e e1       	vmovq  %xmm4,%rcx
    5ac4:	c4 e3 7d 39 e4 01    	vextracti128 $0x1,%ymm4,%xmm4
    5aca:	c4 e2 7d 00 c6       	vpshufb %ymm6,%ymm0,%ymm0
    5acf:	c5 f9 6e f0          	vmovd  %eax,%xmm6
    5ad3:	b8 60 00 00 00       	mov    $0x60,%eax
    5ad8:	c4 e2 7d 78 f6       	vpbroadcastb %xmm6,%ymm6
    5add:	c5 f5 74 f6          	vpcmpeqb %ymm6,%ymm1,%ymm6
    5ae1:	c5 cd df f3          	vpandn %ymm3,%ymm6,%ymm6
    5ae5:	c5 cd eb f2          	vpor   %ymm2,%ymm6,%ymm6
    5ae9:	c4 62 1d 00 e6       	vpshufb %ymm6,%ymm12,%ymm12
    5aee:	c5 f9 6e f0          	vmovd  %eax,%xmm6
    5af2:	b8 70 00 00 00       	mov    $0x70,%eax
    5af7:	c4 e2 7d 78 f6       	vpbroadcastb %xmm6,%ymm6
    5afc:	c5 f5 74 f6          	vpcmpeqb %ymm6,%ymm1,%ymm6
    5b00:	c5 cd df f3          	vpandn %ymm3,%ymm6,%ymm6
    5b04:	c5 cd eb f2          	vpor   %ymm2,%ymm6,%ymm6
    5b08:	c4 62 25 00 de       	vpshufb %ymm6,%ymm11,%ymm11
    5b0d:	c5 f9 6e f0          	vmovd  %eax,%xmm6
    5b11:	b8 80 ff ff ff       	mov    $0xffffff80,%eax
    5b16:	c4 e2 7d 78 f6       	vpbroadcastb %xmm6,%ymm6
    5b1b:	c5 f5 74 f6          	vpcmpeqb %ymm6,%ymm1,%ymm6
    5b1f:	c5 cd df f3          	vpandn %ymm3,%ymm6,%ymm6
    5b23:	c5 cd eb f2          	vpor   %ymm2,%ymm6,%ymm6
    5b27:	c4 62 2d 00 d6       	vpshufb %ymm6,%ymm10,%ymm10
    5b2c:	c5 f9 6e f0          	vmovd  %eax,%xmm6
    5b30:	b8 90 ff ff ff       	mov    $0xffffff90,%eax
    5b35:	c4 e2 7d 78 f6       	vpbroadcastb %xmm6,%ymm6
    5b3a:	c5 f5 74 f6          	vpcmpeqb %ymm6,%ymm1,%ymm6
    5b3e:	c5 cd df f3          	vpandn %ymm3,%ymm6,%ymm6
    5b42:	c5 cd eb f2          	vpor   %ymm2,%ymm6,%ymm6
    5b46:	c4 62 35 00 ce       	vpshufb %ymm6,%ymm9,%ymm9
    5b4b:	c5 f9 6e f0          	vmovd  %eax,%xmm6
    5b4f:	b8 a0 ff ff ff       	mov    $0xffffffa0,%eax
    5b54:	c4 e2 7d 78 f6       	vpbroadcastb %xmm6,%ymm6
    5b59:	c5 f5 74 f6          	vpcmpeqb %ymm6,%ymm1,%ymm6
    5b5d:	c5 cd df f3          	vpandn %ymm3,%ymm6,%ymm6
    5b61:	c5 cd eb f2          	vpor   %ymm2,%ymm6,%ymm6
    5b65:	c4 62 3d 00 c6       	vpshufb %ymm6,%ymm8,%ymm8
    5b6a:	c5 f9 6e f0          	vmovd  %eax,%xmm6
    5b6e:	b8 b0 ff ff ff       	mov    $0xffffffb0,%eax
    5b73:	c4 e2 7d 78 f6       	vpbroadcastb %xmm6,%ymm6
    5b78:	c5 79 6e f0          	vmovd  %eax,%xmm14
    5b7c:	b8 c0 ff ff ff       	mov    $0xffffffc0,%eax
    5b81:	c5 f5 74 f6          	vpcmpeqb %ymm6,%ymm1,%ymm6
    5b85:	c4 42 7d 78 f6       	vpbroadcastb %xmm14,%ymm14
    5b8a:	c4 41 75 74 f6       	vpcmpeqb %ymm14,%ymm1,%ymm14
    5b8f:	c5 cd df f3          	vpandn %ymm3,%ymm6,%ymm6
    5b93:	c5 cd eb f2          	vpor   %ymm2,%ymm6,%ymm6
    5b97:	c5 0d df f3          	vpandn %ymm3,%ymm14,%ymm14
    5b9b:	c4 e2 45 00 fe       	vpshufb %ymm6,%ymm7,%ymm7
    5ba0:	c5 f9 6f 35 28 d6 01 	vmovdqa 0x1d628(%rip),%xmm6        # 231d0 <standard+0xb0>
    5ba7:	00 
    5ba8:	c5 0d eb f2          	vpor   %ymm2,%ymm14,%ymm14
    5bac:	c4 e3 4d 38 35 1a d5 	vinserti128 $0x1,0x1d51a(%rip),%ymm6,%ymm6        # 230d0 <extended+0xb0>
    5bb3:	01 00 01 
    5bb6:	c4 63 05 38 3d 20 d5 	vinserti128 $0x1,0x1d520(%rip),%ymm15,%ymm15        # 230e0 <extended+0xc0>
    5bbd:	01 00 01 
    5bc0:	c4 c2 4d 00 f6       	vpshufb %ymm14,%ymm6,%ymm6
    5bc5:	c5 79 6e f0          	vmovd  %eax,%xmm14
    5bc9:	b8 d0 ff ff ff       	mov    $0xffffffd0,%eax
    5bce:	c4 42 7d 78 f6       	vpbroadcastb %xmm14,%ymm14
    5bd3:	c4 41 75 74 f6       	vpcmpeqb %ymm14,%ymm1,%ymm14
    5bd8:	c5 0d df f3          	vpandn %ymm3,%ymm14,%ymm14
    5bdc:	c5 0d eb f2          	vpor   %ymm2,%ymm14,%ymm14
    5be0:	c4 42 05 00 fe       	vpshufb %ymm14,%ymm15,%ymm15
    5be5:	c5 79 6e f0          	vmovd  %eax,%xmm14
    5be9:	b8 e0 ff ff ff       	mov    $0xffffffe0,%eax
    5bee:	c5 7d 7f bc 24 c0 00 	vmovdqa %ymm15,0xc0(%rsp)
    5bf5:	00 00 
    5bf7:	c4 42 7d 78 f6       	vpbroadcastb %xmm14,%ymm14
    5bfc:	c5 79 6f 3d ec d5 01 	vmovdqa 0x1d5ec(%rip),%xmm15        # 231f0 <standard+0xd0>
    5c03:	00 
    5c04:	c4 63 05 38 3d e2 d4 	vinserti128 $0x1,0x1d4e2(%rip),%ymm15,%ymm15        # 230f0 <extended+0xd0>
    5c0b:	01 00 01 
    5c0e:	c4 41 75 74 f6       	vpcmpeqb %ymm14,%ymm1,%ymm14
    5c13:	c5 0d df f3          	vpandn %ymm3,%ymm14,%ymm14
    5c17:	c5 0d eb f2          	vpor   %ymm2,%ymm14,%ymm14
    5c1b:	c4 42 05 00 fe       	vpshufb %ymm14,%ymm15,%ymm15
    5c20:	c5 79 6e f0          	vmovd  %eax,%xmm14
    5c24:	b8 f0 ff ff ff       	mov    $0xfffffff0,%eax
    5c29:	c5 7d 7f bc 24 80 00 	vmovdqa %ymm15,0x80(%rsp)
    5c30:	00 00 
    5c32:	c4 42 7d 78 f6       	vpbroadcastb %xmm14,%ymm14
    5c37:	c5 79 6f 3d c1 d5 01 	vmovdqa 0x1d5c1(%rip),%xmm15        # 23200 <standard+0xe0>
    5c3e:	00 
    5c3f:	c4 63 05 38 3d b7 d4 	vinserti128 $0x1,0x1d4b7(%rip),%ymm15,%ymm15        # 23100 <extended+0xe0>
    5c46:	01 00 01 
    5c49:	c4 41 75 74 f6       	vpcmpeqb %ymm14,%ymm1,%ymm14
    5c4e:	c5 0d df f3          	vpandn %ymm3,%ymm14,%ymm14
    5c52:	c5 0d eb f2          	vpor   %ymm2,%ymm14,%ymm14
    5c56:	c4 42 05 00 fe       	vpshufb %ymm14,%ymm15,%ymm15
    5c5b:	c5 79 6e f0          	vmovd  %eax,%xmm14
    5c5f:	c4 61 f9 7e e8       	vmovq  %xmm13,%rax
    5c64:	48 09 c8             	or     %rcx,%rax
    5c67:	c4 42 7d 78 f6       	vpbroadcastb %xmm14,%ymm14
    5c6c:	c4 e1 f9 7e c1       	vmovq  %xmm0,%rcx
    5c71:	48 09 c8             	or     %rcx,%rax
    5c74:	c4 c1 75 74 ce       	vpcmpeqb %ymm14,%ymm1,%ymm1
    5c79:	c4 61 f9 7e e1       	vmovq  %xmm12,%rcx
    5c7e:	c5 7d 6f b4 24 a0 00 	vmovdqa 0xa0(%rsp),%ymm14
    5c85:	00 00 
    5c87:	48 09 c8             	or     %rcx,%rax
    5c8a:	c4 61 f9 7e d9       	vmovq  %xmm11,%rcx
    5c8f:	c4 43 7d 39 ed 01    	vextracti128 $0x1,%ymm13,%xmm13
    5c95:	48 09 c8             	or     %rcx,%rax
    5c98:	c4 61 f9 7e d1       	vmovq  %xmm10,%rcx
    5c9d:	c5 91 eb e4          	vpor   %xmm4,%xmm13,%xmm4
    5ca1:	48 09 c8             	or     %rcx,%rax
    5ca4:	c5 f5 df cb          	vpandn %ymm3,%ymm1,%ymm1
    5ca8:	c4 61 f9 7e c9       	vmovq  %xmm9,%rcx
    5cad:	c5 f9 6f 1d 5b d5 01 	vmovdqa 0x1d55b(%rip),%xmm3        # 23210 <standard+0xf0>
    5cb4:	00 
    5cb5:	c5 f5 eb ca          	vpor   %ymm2,%ymm1,%ymm1
    5cb9:	48 09 c8             	or     %rcx,%rax
    5cbc:	c4 61 f9 7e c1       	vmovq  %xmm8,%rcx
    5cc1:	48 09 c8             	or     %rcx,%rax
    5cc4:	c4 e1 f9 7e f9       	vmovq  %xmm7,%rcx
    5cc9:	c4 e3 65 38 1d 3d d4 	vinserti128 $0x1,0x1d43d(%rip),%ymm3,%ymm3        # 23110 <extended+0xf0>
    5cd0:	01 00 01 
    5cd3:	48 09 c8             	or     %rcx,%rax
    5cd6:	c4 e1 f9 7e f1       	vmovq  %xmm6,%rcx
    5cdb:	c4 61 f9 7e f6       	vmovq  %xmm14,%rsi
    5ce0:	c4 e2 65 00 d9       	vpshufb %ymm1,%ymm3,%ymm3
    5ce5:	48 09 c8             	or     %rcx,%rax
    5ce8:	c5 f9 6f 8c 24 c0 00 	vmovdqa 0xc0(%rsp),%xmm1
    5cef:	00 00 
    5cf1:	c4 e3 7d 39 c0 01    	vextracti128 $0x1,%ymm0,%xmm0
    5cf7:	c5 d9 eb c0          	vpor   %xmm0,%xmm4,%xmm0
    5cfb:	c4 43 7d 39 e4 01    	vextracti128 $0x1,%ymm12,%xmm12
    5d01:	c4 43 7d 39 db 01    	vextracti128 $0x1,%ymm11,%xmm11
    5d07:	c5 fd 6f a4 24 c0 00 	vmovdqa 0xc0(%rsp),%ymm4
    5d0e:	00 00 
    5d10:	c4 e1 f9 7e c9       	vmovq  %xmm1,%rcx
    5d15:	c4 c1 79 eb c4       	vpor   %xmm12,%xmm0,%xmm0
    5d1a:	c5 f9 6f 8c 24 80 00 	vmovdqa 0x80(%rsp),%xmm1
    5d21:	00 00 
    5d23:	c4 43 7d 39 d2 01    	vextracti128 $0x1,%ymm10,%xmm10
    5d29:	48 09 c8             	or     %rcx,%rax
    5d2c:	c4 c1 79 eb c3       	vpor   %xmm11,%xmm0,%xmm0
    5d31:	c4 43 7d 39 c9 01    	vextracti128 $0x1,%ymm9,%xmm9
    5d37:	c4 e1 f9 7e c9       	vmovq  %xmm1,%rcx
    5d3c:	c4 c1 79 eb c2       	vpor   %xmm10,%xmm0,%xmm0
    5d41:	c5 f9 6f 8c 24 e0 00 	vmovdqa 0xe0(%rsp),%xmm1
    5d48:	00 00 
    5d4a:	c4 43 7d 39 c0 01    	vextracti128 $0x1,%ymm8,%xmm8
    5d50:	48 09 c8             	or     %rcx,%rax
    5d53:	c4 61 f9 7e f9       	vmovq  %xmm15,%rcx
    5d58:	c4 c1 79 eb c1       	vpor   %xmm9,%xmm0,%xmm0
    5d5d:	48 09 c8             	or     %rcx,%rax
    5d60:	c4 e1 f9 7e d9       	vmovq  %xmm3,%rcx
    5d65:	c4 c1 79 eb c0       	vpor   %xmm8,%xmm0,%xmm0
    5d6a:	48 09 c8             	or     %rcx,%rax
    5d6d:	c4 e1 f9 7e c9       	vmovq  %xmm1,%rcx
    5d72:	c4 e3 7d 39 ff 01    	vextracti128 $0x1,%ymm7,%xmm7
    5d78:	48 09 f1             	or     %rsi,%rcx
    5d7b:	be 0f 00 00 00       	mov    $0xf,%esi
    5d80:	c5 f9 eb c7          	vpor   %xmm7,%xmm0,%xmm0
    5d84:	c5 fd 6f bc 24 e0 00 	vmovdqa 0xe0(%rsp),%ymm7
    5d8b:	00 00 
    5d8d:	48 09 c8             	or     %rcx,%rax
    5d90:	c4 e3 7d 39 f6 01    	vextracti128 $0x1,%ymm6,%xmm6
    5d96:	c4 43 7d 39 ff 01    	vextracti128 $0x1,%ymm15,%xmm15
    5d9c:	48 21 c7             	and    %rax,%rdi
    5d9f:	25 c0 00 00 00       	and    $0xc0,%eax
    5da4:	c5 f9 eb c6          	vpor   %xmm6,%xmm0,%xmm0
    5da8:	48 83 f8 7f          	cmp    $0x7f,%rax
    5dac:	49 89 f9             	mov    %rdi,%r9
    5daf:	c4 e3 7d 39 db 01    	vextracti128 $0x1,%ymm3,%xmm3
    5db5:	0f 97 c0             	seta   %al
    5db8:	0f b6 c0             	movzbl %al,%eax
    5dbb:	48 83 f8 00          	cmp    $0x0,%rax
    5dbf:	41 0f 45 f4          	cmovne %r12d,%esi
    5dc3:	48 89 f8             	mov    %rdi,%rax
    5dc6:	89 f1                	mov    %esi,%ecx
    5dc8:	48 c1 e8 08          	shr    $0x8,%rax
    5dcc:	25 c0 00 00 00       	and    $0xc0,%eax
    5dd1:	48 83 f8 7f          	cmp    $0x7f,%rax
    5dd5:	0f 97 c0             	seta   %al
    5dd8:	c1 e1 08             	shl    $0x8,%ecx
    5ddb:	0f b6 c0             	movzbl %al,%eax
    5dde:	09 c8                	or     %ecx,%eax
    5de0:	3d 01 0f 00 00       	cmp    $0xf01,%eax
    5de5:	0f 94 c0             	sete   %al
    5de8:	0f b6 c0             	movzbl %al,%eax
    5deb:	48 83 f8 00          	cmp    $0x0,%rax
    5def:	41 0f 45 f5          	cmovne %r13d,%esi
    5df3:	48 89 f8             	mov    %rdi,%rax
    5df6:	89 f1                	mov    %esi,%ecx
    5df8:	48 c1 e8 10          	shr    $0x10,%rax
    5dfc:	25 c0 00 00 00       	and    $0xc0,%eax
    5e01:	48 83 f8 7f          	cmp    $0x7f,%rax
    5e05:	0f 97 c0             	seta   %al
    5e08:	c1 e1 08             	shl    $0x8,%ecx
    5e0b:	0f b6 c0             	movzbl %al,%eax
    5e0e:	09 c8                	or     %ecx,%eax
    5e10:	3d 01 0f 00 00       	cmp    $0xf01,%eax
    5e15:	0f 94 c0             	sete   %al
    5e18:	0f b6 c0             	movzbl %al,%eax
    5e1b:	48 83 f8 00          	cmp    $0x0,%rax
    5e1f:	0f 45 f3             	cmovne %ebx,%esi
    5e22:	48 89 f8             	mov    %rdi,%rax
    5e25:	89 f1                	mov    %esi,%ecx
    5e27:	bb 04 00 00 00       	mov    $0x4,%ebx
    5e2c:	48 c1 e8 18          	shr    $0x18,%rax
    5e30:	25 c0 00 00 00       	and    $0xc0,%eax
    5e35:	48 83 f8 7f          	cmp    $0x7f,%rax
    5e39:	0f 97 c0             	seta   %al
    5e3c:	c1 e1 08             	shl    $0x8,%ecx
    5e3f:	0f b6 c0             	movzbl %al,%eax
    5e42:	09 c8                	or     %ecx,%eax
    5e44:	3d 01 0f 00 00       	cmp    $0xf01,%eax
    5e49:	0f 94 c0             	sete   %al
    5e4c:	0f b6 c0             	movzbl %al,%eax
    5e4f:	48 83 f8 00          	cmp    $0x0,%rax
    5e53:	41 0f 45 f0          	cmovne %r8d,%esi
    5e57:	48 89 f8             	mov    %rdi,%rax
    5e5a:	89 f1                	mov    %esi,%ecx
    5e5c:	48 c1 e8 20          	shr    $0x20,%rax
    5e60:	25 c0 00 00 00       	and    $0xc0,%eax
    5e65:	48 83 f8 7f          	cmp    $0x7f,%rax
    5e69:	0f 97 c0             	seta   %al
    5e6c:	c1 e1 08             	shl    $0x8,%ecx
    5e6f:	0f b6 c0             	movzbl %al,%eax
    5e72:	09 c8                	or     %ecx,%eax
    5e74:	3d 01 0f 00 00       	cmp    $0xf01,%eax
    5e79:	0f 94 c0             	sete   %al
    5e7c:	0f b6 c0             	movzbl %al,%eax
    5e7f:	48 83 f8 00          	cmp    $0x0,%rax
    5e83:	0f 45 f3             	cmovne %ebx,%esi
    5e86:	48 89 f8             	mov    %rdi,%rax
    5e89:	89 f1                	mov    %esi,%ecx
    5e8b:	48 c1 e8 28          	shr    $0x28,%rax
    5e8f:	25 c0 00 00 00       	and    $0xc0,%eax
    5e94:	48 83 f8 7f          	cmp    $0x7f,%rax
    5e98:	0f 97 c0             	seta   %al
    5e9b:	c1 e1 08             	shl    $0x8,%ecx
    5e9e:	0f b6 c0             	movzbl %al,%eax
    5ea1:	09 c8                	or     %ecx,%eax
    5ea3:	31 c9                	xor    %ecx,%ecx
    5ea5:	3d 01 0f 00 00       	cmp    $0xf01,%eax
    5eaa:	b8 05 00 00 00       	mov    $0x5,%eax
    5eaf:	0f 94 c1             	sete   %cl
    5eb2:	48 83 f9 00          	cmp    $0x0,%rcx
    5eb6:	0f 45 f0             	cmovne %eax,%esi
    5eb9:	8d 0c f5 00 00 00 00 	lea    0x0(,%rsi,8),%ecx
    5ec0:	49 d3 e9             	shr    %cl,%r9
    5ec3:	49 d3 ea             	shr    %cl,%r10
    5ec6:	4c 89 d1             	mov    %r10,%rcx
    5ec9:	45 89 ca             	mov    %r9d,%r10d
    5ecc:	4c 89 cb             	mov    %r9,%rbx
    5ecf:	48 89 4c 24 70       	mov    %rcx,0x70(%rsp)
    5ed4:	41 c0 ea 02          	shr    $0x2,%r10b
    5ed8:	31 c9                	xor    %ecx,%ecx
    5eda:	80 7c 24 70 0f       	cmpb   $0xf,0x70(%rsp)
    5edf:	0f 94 c1             	sete   %cl
    5ee2:	44 88 94 24 a0 00 00 	mov    %r10b,0xa0(%rsp)
    5ee9:	00 
    5eea:	45 89 e2             	mov    %r12d,%r10d
    5eed:	48 83 f9 00          	cmp    $0x0,%rcx
    5ef1:	45 0f 45 fd          	cmovne %r13d,%r15d
    5ef5:	44 89 c9             	mov    %r9d,%ecx
    5ef8:	45 31 c9             	xor    %r9d,%r9d
    5efb:	83 e1 f0             	and    $0xfffffff0,%ecx
    5efe:	80 f9 a0             	cmp    $0xa0,%cl
    5f01:	41 0f 94 c1          	sete   %r9b
    5f05:	49 83 f9 00          	cmp    $0x0,%r9
    5f09:	45 0f 45 d5          	cmovne %r13d,%r10d
    5f0d:	80 f9 b0             	cmp    $0xb0,%cl
    5f10:	45 89 e1             	mov    %r12d,%r9d
    5f13:	44 89 54 24 48       	mov    %r10d,0x48(%rsp)
    5f18:	0f 94 c1             	sete   %cl
    5f1b:	29 f0                	sub    %esi,%eax
    5f1d:	45 31 d2             	xor    %r10d,%r10d
    5f20:	0f b6 c9             	movzbl %cl,%ecx
    5f23:	48 83 f9 00          	cmp    $0x0,%rcx
    5f27:	45 0f 45 cd          	cmovne %r13d,%r9d
    5f2b:	8d 0c c5 00 00 00 00 	lea    0x0(,%rax,8),%ecx
    5f32:	44 89 4c 24 3c       	mov    %r9d,0x3c(%rsp)
    5f37:	48 b8 ff ff ff ff ff 	movabs $0xffffffffff,%rax
    5f3e:	00 00 00 
    5f41:	48 d3 f8             	sar    %cl,%rax
    5f44:	8d 0c f5 f8 ff ff ff 	lea    -0x8(,%rsi,8),%ecx
    5f4b:	48 21 f8             	and    %rdi,%rax
    5f4e:	49 89 c1             	mov    %rax,%r9
    5f51:	c4 e1 f9 6e d0       	vmovq  %rax,%xmm2
    5f56:	49 d3 e9             	shr    %cl,%r9
    5f59:	c4 c1 f9 6e c9       	vmovq  %r9,%xmm1
    5f5e:	49 c7 c1 ff ff ff ff 	mov    $0xffffffffffffffff,%r9
    5f65:	c4 c3 f1 22 c9 01    	vpinsrq $0x1,%r9,%xmm1,%xmm1
    5f6b:	c5 f1 74 0d ed 62 01 	vpcmpeqb 0x162ed(%rip),%xmm1,%xmm1        # 1c260 <g_dyn_entry_table+0x10>
    5f72:	00 
    5f73:	c4 e1 f9 7e cf       	vmovq  %xmm1,%rdi
    5f78:	c4 c3 e9 22 c9 01    	vpinsrq $0x1,%r9,%xmm2,%xmm1
    5f7e:	45 89 e9             	mov    %r13d,%r9d
    5f81:	c5 f1 74 15 e7 62 01 	vpcmpeqb 0x162e7(%rip),%xmm1,%xmm2        # 1c270 <g_dyn_entry_table+0x20>
    5f88:	00 
    5f89:	48 85 ff             	test   %rdi,%rdi
    5f8c:	44 89 ef             	mov    %r13d,%edi
    5f8f:	41 0f 94 c2          	sete   %r10b
    5f93:	48 d3 ea             	shr    %cl,%rdx
    5f96:	44 89 e1             	mov    %r12d,%ecx
    5f99:	49 83 fa 00          	cmp    $0x0,%r10
    5f9d:	41 0f 45 fc          	cmovne %r12d,%edi
    5fa1:	c4 e1 f9 7e d0       	vmovq  %xmm2,%rax
    5fa6:	c5 f1 74 15 d2 62 01 	vpcmpeqb 0x162d2(%rip),%xmm1,%xmm2        # 1c280 <g_dyn_entry_table+0x30>
    5fad:	00 
    5fae:	83 e2 4f             	and    $0x4f,%edx
    5fb1:	89 ff                	mov    %edi,%edi
    5fb3:	48 83 ff 00          	cmp    $0x0,%rdi
    5fb7:	0f 45 ca             	cmovne %edx,%ecx
    5fba:	31 d2                	xor    %edx,%edx
    5fbc:	48 85 c0             	test   %rax,%rax
    5fbf:	44 89 e8             	mov    %r13d,%eax
    5fc2:	89 4c 24 38          	mov    %ecx,0x38(%rsp)
    5fc6:	0f 94 c2             	sete   %dl
    5fc9:	44 89 e9             	mov    %r13d,%ecx
    5fcc:	48 83 fa 00          	cmp    $0x0,%rdx
    5fd0:	41 0f 45 c4          	cmovne %r12d,%eax
    5fd4:	89 c2                	mov    %eax,%edx
    5fd6:	44 89 e0             	mov    %r12d,%eax
    5fd9:	48 83 fa 00          	cmp    $0x0,%rdx
    5fdd:	41 0f 45 c5          	cmovne %r13d,%eax
    5fe1:	c4 e1 f9 7e d2       	vmovq  %xmm2,%rdx
    5fe6:	c5 f1 74 15 a2 62 01 	vpcmpeqb 0x162a2(%rip),%xmm1,%xmm2        # 1c290 <g_dyn_entry_table+0x40>
    5fed:	00 
    5fee:	48 85 d2             	test   %rdx,%rdx
    5ff1:	0f 94 c2             	sete   %dl
    5ff4:	0f b6 d2             	movzbl %dl,%edx
    5ff7:	48 83 fa 00          	cmp    $0x0,%rdx
    5ffb:	45 0f 45 cc          	cmovne %r12d,%r9d
    5fff:	c4 e1 f9 7e d2       	vmovq  %xmm2,%rdx
    6004:	c5 f1 74 15 94 62 01 	vpcmpeqb 0x16294(%rip),%xmm1,%xmm2        # 1c2a0 <g_dyn_entry_table+0x50>
    600b:	00 
    600c:	44 89 4c 24 34       	mov    %r9d,0x34(%rsp)
    6011:	49 b9 00 80 80 80 80 	movabs $0x8080808080808000,%r9
    6018:	80 80 80 
    601b:	48 85 d2             	test   %rdx,%rdx
    601e:	c5 f1 74 0d 8a 62 01 	vpcmpeqb 0x1628a(%rip),%xmm1,%xmm1        # 1c2b0 <g_dyn_entry_table+0x60>
    6025:	00 
    6026:	0f 94 c2             	sete   %dl
    6029:	0f b6 d2             	movzbl %dl,%edx
    602c:	48 83 fa 00          	cmp    $0x0,%rdx
    6030:	41 0f 45 cc          	cmovne %r12d,%ecx
    6034:	c4 e1 f9 7e d2       	vmovq  %xmm2,%rdx
    6039:	89 4c 24 30          	mov    %ecx,0x30(%rsp)
    603d:	31 c9                	xor    %ecx,%ecx
    603f:	c4 63 7d 39 f2 01    	vextracti128 $0x1,%ymm14,%xmm2
    6045:	48 85 d2             	test   %rdx,%rdx
    6048:	44 89 ea             	mov    %r13d,%edx
    604b:	0f 94 c1             	sete   %cl
    604e:	48 83 f9 00          	cmp    $0x0,%rcx
    6052:	41 0f 45 d4          	cmovne %r12d,%edx
    6056:	89 d2                	mov    %edx,%edx
    6058:	31 c9                	xor    %ecx,%ecx
    605a:	48 83 fa 00          	cmp    $0x0,%rdx
    605e:	41 0f 45 c0          	cmovne %r8d,%eax
    6062:	c4 e1 f9 7e ca       	vmovq  %xmm1,%rdx
    6067:	c4 e3 7d 39 e1 01    	vextracti128 $0x1,%ymm4,%xmm1
    606d:	41 89 c0             	mov    %eax,%r8d
    6070:	c5 fd 6f a4 24 80 00 	vmovdqa 0x80(%rsp),%ymm4
    6077:	00 00 
    6079:	c5 f9 eb c1          	vpor   %xmm1,%xmm0,%xmm0
    607d:	48 85 d2             	test   %rdx,%rdx
    6080:	44 89 ea             	mov    %r13d,%edx
    6083:	c4 e3 7d 39 e1 01    	vextracti128 $0x1,%ymm4,%xmm1
    6089:	0f 94 c1             	sete   %cl
    608c:	c5 f9 eb c1          	vpor   %xmm1,%xmm0,%xmm0
    6090:	c4 e3 7d 39 f9 01    	vextracti128 $0x1,%ymm7,%xmm1
    6096:	c4 c1 79 eb c7       	vpor   %xmm15,%xmm0,%xmm0
    609b:	c5 f1 eb ca          	vpor   %xmm2,%xmm1,%xmm1
    609f:	c5 f9 eb c3          	vpor   %xmm3,%xmm0,%xmm0
    60a3:	c5 f9 eb c1          	vpor   %xmm1,%xmm0,%xmm0
    60a7:	48 83 f9 00          	cmp    $0x0,%rcx
    60ab:	41 0f 45 d4          	cmovne %r12d,%edx
    60af:	c4 e1 f9 7e c0       	vmovq  %xmm0,%rax
    60b4:	8d 0c f5 08 00 00 00 	lea    0x8(,%rsi,8),%ecx
    60bb:	89 d2                	mov    %edx,%edx
    60bd:	44 01 fe             	add    %r15d,%esi
    60c0:	48 d3 f8             	sar    %cl,%rax
    60c3:	44 89 f9             	mov    %r15d,%ecx
    60c6:	48 83 fa 00          	cmp    $0x0,%rdx
    60ca:	45 0f 45 c6          	cmovne %r14d,%r8d
    60ce:	89 c2                	mov    %eax,%edx
    60d0:	44 89 44 24 5c       	mov    %r8d,0x5c(%rsp)
    60d5:	41 89 f0             	mov    %esi,%r8d
    60d8:	45 89 e6             	mov    %r12d,%r14d
    60db:	c0 ea 04             	shr    $0x4,%dl
    60de:	41 89 d2             	mov    %edx,%r10d
    60e1:	8b 94 24 a0 00 00 00 	mov    0xa0(%rsp),%edx
    60e8:	89 b4 24 e0 00 00 00 	mov    %esi,0xe0(%rsp)
    60ef:	41 83 e2 03          	and    $0x3,%r10d
    60f3:	48 89 5c 24 40       	mov    %rbx,0x40(%rsp)
    60f8:	83 e2 03             	and    $0x3,%edx
    60fb:	48 83 f9 00          	cmp    $0x0,%rcx
    60ff:	41 0f 45 d2          	cmovne %r10d,%edx
    6103:	41 8d 48 01          	lea    0x1(%r8),%ecx
    6107:	0f b6 c9             	movzbl %cl,%ecx
    610a:	4c 09 c9             	or     %r9,%rcx
    610d:	c4 e1 f9 6e f9       	vmovq  %rcx,%xmm7
    6112:	c4 c3 c1 22 c3 01    	vpinsrq $0x1,%r11,%xmm7,%xmm0
    6118:	c4 e2 51 00 c0       	vpshufb %xmm0,%xmm5,%xmm0
    611d:	c4 e1 f9 7e c1       	vmovq  %xmm0,%rcx
    6122:	89 ce                	mov    %ecx,%esi
    6124:	41 89 c8             	mov    %ecx,%r8d
    6127:	40 c0 ee 03          	shr    $0x3,%sil
    612b:	41 c0 e8 06          	shr    $0x6,%r8b
    612f:	89 f7                	mov    %esi,%edi
    6131:	44 88 44 24 64       	mov    %r8b,0x64(%rsp)
    6136:	83 e7 07             	and    $0x7,%edi
    6139:	40 88 7c 24 60       	mov    %dil,0x60(%rsp)
    613e:	89 cf                	mov    %ecx,%edi
    6140:	83 e1 c7             	and    $0xffffffc7,%ecx
    6143:	88 8c 24 c0 00 00 00 	mov    %cl,0xc0(%rsp)
    614a:	83 e7 07             	and    $0x7,%edi
    614d:	31 c9                	xor    %ecx,%ecx
    614f:	41 80 f8 03          	cmp    $0x3,%r8b
    6153:	41 89 d8             	mov    %ebx,%r8d
    6156:	0f 95 c1             	setne  %cl
    6159:	40 88 bc 24 80 00 00 	mov    %dil,0x80(%rsp)
    6160:	00 
    6161:	83 e6 07             	and    $0x7,%esi
    6164:	41 83 e0 30          	and    $0x30,%r8d
    6168:	01 f6                	add    %esi,%esi
    616a:	48 83 f9 00          	cmp    $0x0,%rcx
    616e:	45 0f 45 f5          	cmovne %r13d,%r14d
    6172:	44 89 c1             	mov    %r8d,%ecx
    6175:	41 89 d8             	mov    %ebx,%r8d
    6178:	31 db                	xor    %ebx,%ebx
    617a:	41 c0 e8 06          	shr    $0x6,%r8b
    617e:	41 0f b6 f8          	movzbl %r8b,%edi
    6182:	49 b8 aa 6a aa aa a5 	movabs $0x155a55a5aaaa6aaa,%r8
    6189:	55 5a 15 
    618c:	40 80 ff 03          	cmp    $0x3,%dil
    6190:	0f 94 c3             	sete   %bl
    6193:	01 f1                	add    %esi,%ecx
    6195:	49 d3 e8             	shr    %cl,%r8
    6198:	0f b6 4c 24 60       	movzbl 0x60(%rsp),%ecx
    619d:	41 83 e0 03          	and    $0x3,%r8d
    61a1:	48 83 fb 00          	cmp    $0x0,%rbx
    61a5:	41 0f 45 d0          	cmovne %r8d,%edx
    61a9:	41 b8 4c 00 00 00    	mov    $0x4c,%r8d
    61af:	44 89 e3             	mov    %r12d,%ebx
    61b2:	49 d3 e8             	shr    %cl,%r8
    61b5:	0f b6 4c 24 70       	movzbl 0x70(%rsp),%ecx
    61ba:	41 83 e0 01          	and    $0x1,%r8d
    61be:	c1 e1 04             	shl    $0x4,%ecx
    61c1:	49 83 f8 00          	cmp    $0x0,%r8
    61c5:	41 0f 45 dd          	cmovne %r13d,%ebx
    61c9:	01 df                	add    %ebx,%edi
    61cb:	45 89 e0             	mov    %r12d,%r8d
    61ce:	09 f9                	or     %edi,%ecx
    61d0:	89 c7                	mov    %eax,%edi
    61d2:	81 f9 f4 0f 00 00    	cmp    $0xff4,%ecx
    61d8:	0f 94 c1             	sete   %cl
    61db:	40 c0 ef 06          	shr    $0x6,%dil
    61df:	31 db                	xor    %ebx,%ebx
    61e1:	0f b6 c9             	movzbl %cl,%ecx
    61e4:	40 0f b6 ff          	movzbl %dil,%edi
    61e8:	48 83 f9 00          	cmp    $0x0,%rcx
    61ec:	45 0f 45 c5          	cmovne %r13d,%r8d
    61f0:	44 89 44 24 2c       	mov    %r8d,0x2c(%rsp)
    61f5:	45 89 f8             	mov    %r15d,%r8d
    61f8:	0f b6 4c 24 5c       	movzbl 0x5c(%rsp),%ecx
    61fd:	41 c1 e0 04          	shl    $0x4,%r8d
    6201:	c5 fb f0 0d f7 cd 01 	vlddqu 0x1cdf7(%rip),%xmm1        # 23000 <extension_2op_table>
    6208:	00 
    6209:	41 09 f8             	or     %edi,%r8d
    620c:	41 83 f8 11          	cmp    $0x11,%r8d
    6210:	0f 94 c3             	sete   %bl
    6213:	01 c9                	add    %ecx,%ecx
    6215:	c0 e8 03             	shr    $0x3,%al
    6218:	42 8d 0c d1          	lea    (%rcx,%r10,8),%ecx
    621c:	41 ba 1a 05 0a 00    	mov    $0xa051a,%r10d
    6222:	83 e0 07             	and    $0x7,%eax
    6225:	41 d3 ea             	shr    %cl,%r10d
    6228:	41 83 e2 03          	and    $0x3,%r10d
    622c:	48 83 fb 00          	cmp    $0x0,%rbx
    6230:	41 0f 45 d2          	cmovne %r10d,%edx
    6234:	44 8d 14 00          	lea    (%rax,%rax,1),%r10d
    6238:	41 8d 4a 01          	lea    0x1(%r10),%ecx
    623c:	c1 e1 08             	shl    $0x8,%ecx
    623f:	44 09 d1             	or     %r10d,%ecx
    6242:	41 83 f8 13          	cmp    $0x13,%r8d
    6246:	c5 f9 6e f9          	vmovd  %ecx,%xmm7
    624a:	89 f1                	mov    %esi,%ecx
    624c:	0f b6 74 24 64       	movzbl 0x64(%rsp),%esi
    6251:	41 0f 94 c0          	sete   %r8b
    6255:	41 c1 e7 0c          	shl    $0xc,%r15d
    6259:	c5 f9 70 c7 00       	vpshufd $0x0,%xmm7,%xmm0
    625e:	45 0f b6 c0          	movzbl %r8b,%r8d
    6262:	c1 e7 08             	shl    $0x8,%edi
    6265:	c4 e2 71 00 c0       	vpshufb %xmm0,%xmm1,%xmm0
    626a:	89 74 24 64          	mov    %esi,0x64(%rsp)
    626e:	c4 c1 f9 7e c2       	vmovq  %xmm0,%r10
    6273:	41 d3 ea             	shr    %cl,%r10d
    6276:	41 83 e2 03          	and    $0x3,%r10d
    627a:	49 83 f8 00          	cmp    $0x0,%r8
    627e:	41 0f 45 d2          	cmovne %r10d,%edx
    6282:	41 89 f0             	mov    %esi,%r8d
    6285:	c1 e6 04             	shl    $0x4,%esi
    6288:	44 8b 94 24 e0 00 00 	mov    0xe0(%rsp),%r10d
    628f:	00 
    6290:	41 09 f7             	or     %esi,%r15d
    6293:	89 74 24 60          	mov    %esi,0x60(%rsp)
    6297:	41 09 c7             	or     %eax,%r15d
    629a:	31 c0                	xor    %eax,%eax
    629c:	41 09 ff             	or     %edi,%r15d
    629f:	41 81 ff 32 13 00 00 	cmp    $0x1332,%r15d
    62a6:	44 0f b6 bc 24 c0 00 	movzbl 0xc0(%rsp),%r15d
    62ad:	00 00 
    62af:	0f 97 c0             	seta   %al
    62b2:	48 83 f8 00          	cmp    $0x0,%rax
    62b6:	41 0f 45 d4          	cmovne %r12d,%edx
    62ba:	31 c0                	xor    %eax,%eax
    62bc:	41 80 f8 03          	cmp    $0x3,%r8b
    62c0:	0f 94 c0             	sete   %al
    62c3:	48 83 f8 00          	cmp    $0x0,%rax
    62c7:	41 0f 45 d4          	cmovne %r12d,%edx
    62cb:	89 54 24 28          	mov    %edx,0x28(%rsp)
    62cf:	44 89 d2             	mov    %r10d,%edx
    62d2:	8d 42 02             	lea    0x2(%rdx),%eax
    62d5:	0f b6 c0             	movzbl %al,%eax
    62d8:	48 89 c2             	mov    %rax,%rdx
    62db:	48 8d 48 01          	lea    0x1(%rax),%rcx
    62df:	4c 09 ca             	or     %r9,%rdx
    62e2:	48 c1 e1 08          	shl    $0x8,%rcx
    62e6:	c4 e1 f9 6e c2       	vmovq  %rdx,%xmm0
    62eb:	48 8d 50 03          	lea    0x3(%rax),%rdx
    62ef:	48 c1 e2 18          	shl    $0x18,%rdx
    62f3:	c4 c3 f9 22 c3 01    	vpinsrq $0x1,%r11,%xmm0,%xmm0
    62f9:	48 09 ca             	or     %rcx,%rdx
    62fc:	c4 e2 51 00 c0       	vpshufb %xmm0,%xmm5,%xmm0
    6301:	48 b9 00 00 00 00 80 	movabs $0x8080808000000000,%rcx
    6308:	80 80 80 
    630b:	48 09 c2             	or     %rax,%rdx
    630e:	48 83 c0 02          	add    $0x2,%rax
    6312:	c4 c1 f9 7e c0       	vmovq  %xmm0,%r8
    6317:	48 c1 e0 10          	shl    $0x10,%rax
    631b:	48 09 d0             	or     %rdx,%rax
    631e:	44 89 d2             	mov    %r10d,%edx
    6321:	83 c2 03             	add    $0x3,%edx
    6324:	48 09 c8             	or     %rcx,%rax
    6327:	0f b6 d2             	movzbl %dl,%edx
    632a:	c4 e1 f9 6e e0       	vmovq  %rax,%xmm4
    632f:	48 8d 72 01          	lea    0x1(%rdx),%rsi
    6333:	48 8d 42 03          	lea    0x3(%rdx),%rax
    6337:	c4 c3 d9 22 c3 01    	vpinsrq $0x1,%r11,%xmm4,%xmm0
    633d:	48 c1 e6 08          	shl    $0x8,%rsi
    6341:	48 c1 e0 18          	shl    $0x18,%rax
    6345:	c4 e2 51 00 c0       	vpshufb %xmm0,%xmm5,%xmm0
    634a:	48 09 f0             	or     %rsi,%rax
    634d:	48 8d 72 02          	lea    0x2(%rdx),%rsi
    6351:	c4 e1 f9 7e c3       	vmovq  %xmm0,%rbx
    6356:	48 09 d0             	or     %rdx,%rax
    6359:	48 c1 e6 10          	shl    $0x10,%rsi
    635d:	4c 09 ca             	or     %r9,%rdx
    6360:	48 89 5c 24 70       	mov    %rbx,0x70(%rsp)
    6365:	48 09 f0             	or     %rsi,%rax
    6368:	c4 e1 f9 6e e2       	vmovq  %rdx,%xmm4
    636d:	bb 04 00 00 00       	mov    $0x4,%ebx
    6372:	44 89 e2             	mov    %r12d,%edx
    6375:	48 09 c8             	or     %rcx,%rax
    6378:	31 c9                	xor    %ecx,%ecx
    637a:	41 80 ff 05          	cmp    $0x5,%r15b
    637e:	44 89 e6             	mov    %r12d,%esi
    6381:	c4 e1 f9 6e f8       	vmovq  %rax,%xmm7
    6386:	0f 94 c1             	sete   %cl
    6389:	45 89 c1             	mov    %r8d,%r9d
    638c:	45 31 d2             	xor    %r10d,%r10d
    638f:	c4 c3 c1 22 c3 01    	vpinsrq $0x1,%r11,%xmm7,%xmm0
    6395:	c4 e2 51 00 c0       	vpshufb %xmm0,%xmm5,%xmm0
    639a:	c4 e1 f9 7e c0       	vmovq  %xmm0,%rax
    639f:	c4 c3 d9 22 c3 01    	vpinsrq $0x1,%r11,%xmm4,%xmm0
    63a5:	45 89 f3             	mov    %r14d,%r11d
    63a8:	48 83 f9 00          	cmp    $0x0,%rcx
    63ac:	0f 45 54 24 70       	cmovne 0x70(%rsp),%edx
    63b1:	48 83 f9 00          	cmp    $0x0,%rcx
    63b5:	0f 45 f3             	cmovne %ebx,%esi
    63b8:	0f b6 8c 24 80 00 00 	movzbl 0x80(%rsp),%ecx
    63bf:	00 
    63c0:	41 c1 e3 08          	shl    $0x8,%r11d
    63c4:	c4 e2 51 00 e8       	vpshufb %xmm0,%xmm5,%xmm5
    63c9:	89 4c 24 5c          	mov    %ecx,0x5c(%rsp)
    63cd:	44 09 d9             	or     %r11d,%ecx
    63d0:	81 f9 04 01 00 00    	cmp    $0x104,%ecx
    63d6:	41 0f 94 c2          	sete   %r10b
    63da:	41 c0 e9 06          	shr    $0x6,%r9b
    63de:	41 0f b6 c9          	movzbl %r9b,%ecx
    63e2:	41 b9 ff 00 00 00    	mov    $0xff,%r9d
    63e8:	41 c1 e6 10          	shl    $0x10,%r14d
    63ec:	44 89 cf             	mov    %r9d,%edi
    63ef:	49 83 fa 00          	cmp    $0x0,%r10
    63f3:	0f 45 f9             	cmovne %ecx,%edi
    63f6:	44 89 e1             	mov    %r12d,%ecx
    63f9:	89 7c 24 24          	mov    %edi,0x24(%rsp)
    63fd:	8b 7c 24 38          	mov    0x38(%rsp),%edi
    6401:	49 83 fa 00          	cmp    $0x0,%r10
    6405:	41 0f 45 cd          	cmovne %r13d,%ecx
    6409:	8d 74 0e 01          	lea    0x1(%rsi,%rcx,1),%esi
    640d:	89 74 24 58          	mov    %esi,0x58(%rsp)
    6411:	44 89 c6             	mov    %r8d,%esi
    6414:	40 c0 ee 03          	shr    $0x3,%sil
    6418:	89 f1                	mov    %esi,%ecx
    641a:	8d 34 bd 00 00 00 00 	lea    0x0(,%rdi,4),%esi
    6421:	83 e6 08             	and    $0x8,%esi
    6424:	83 e1 07             	and    $0x7,%ecx
    6427:	09 f1                	or     %esi,%ecx
    6429:	44 89 ce             	mov    %r9d,%esi
    642c:	49 83 fa 00          	cmp    $0x0,%r10
    6430:	0f 45 f1             	cmovne %ecx,%esi
    6433:	8d 0c fd 00 00 00 00 	lea    0x0(,%rdi,8),%ecx
    643a:	44 89 c7             	mov    %r8d,%edi
    643d:	89 74 24 38          	mov    %esi,0x38(%rsp)
    6441:	45 0f b6 c0          	movzbl %r8b,%r8d
    6445:	83 e7 07             	and    $0x7,%edi
    6448:	83 e1 08             	and    $0x8,%ecx
    644b:	89 fe                	mov    %edi,%esi
    644d:	44 89 e7             	mov    %r12d,%edi
    6450:	09 ce                	or     %ecx,%esi
    6452:	49 83 fa 00          	cmp    $0x0,%r10
    6456:	0f 45 fe             	cmovne %esi,%edi
    6459:	89 fe                	mov    %edi,%esi
    645b:	41 0f b6 ff          	movzbl %r15b,%edi
    645f:	41 89 f7             	mov    %esi,%r15d
    6462:	89 74 24 20          	mov    %esi,0x20(%rsp)
    6466:	41 c1 e7 08          	shl    $0x8,%r15d
    646a:	44 89 fe             	mov    %r15d,%esi
    646d:	45 31 ff             	xor    %r15d,%r15d
    6470:	81 e6 00 07 00 00    	and    $0x700,%esi
    6476:	44 09 f6             	or     %r14d,%esi
    6479:	09 fe                	or     %edi,%esi
    647b:	81 fe 04 05 01 00    	cmp    $0x10504,%esi
    6481:	44 89 e6             	mov    %r12d,%esi
    6484:	41 0f 94 c7          	sete   %r15b
    6488:	41 09 fb             	or     %edi,%r11d
    648b:	44 89 e7             	mov    %r12d,%edi
    648e:	49 83 ff 00          	cmp    $0x0,%r15
    6492:	0f 45 f3             	cmovne %ebx,%esi
    6495:	49 83 ff 00          	cmp    $0x0,%r15
    6499:	0f 45 d0             	cmovne %eax,%edx
    649c:	44 8b 7c 24 58       	mov    0x58(%rsp),%r15d
    64a1:	41 01 f7             	add    %esi,%r15d
    64a4:	c4 e1 f9 7e ee       	vmovq  %xmm5,%rsi
    64a9:	44 89 fb             	mov    %r15d,%ebx
    64ac:	45 31 ff             	xor    %r15d,%r15d
    64af:	41 81 fb 44 01 00 00 	cmp    $0x144,%r11d
    64b6:	40 0f b6 f6          	movzbl %sil,%esi
    64ba:	41 0f 94 c7          	sete   %r15b
    64be:	49 83 ff 00          	cmp    $0x0,%r15
    64c2:	0f 45 fe             	cmovne %esi,%edi
    64c5:	44 89 e6             	mov    %r12d,%esi
    64c8:	49 83 ff 00          	cmp    $0x0,%r15
    64cc:	41 0f 45 f5          	cmovne %r13d,%esi
    64d0:	01 de                	add    %ebx,%esi
    64d2:	41 81 fb 84 01 00 00 	cmp    $0x184,%r11d
    64d9:	41 bf 04 00 00 00    	mov    $0x4,%r15d
    64df:	8b 5c 24 5c          	mov    0x5c(%rsp),%ebx
    64e3:	41 0f 94 c3          	sete   %r11b
    64e7:	45 0f b6 db          	movzbl %r11b,%r11d
    64eb:	49 83 fb 00          	cmp    $0x0,%r11
    64ef:	0f 45 d0             	cmovne %eax,%edx
    64f2:	44 89 e0             	mov    %r12d,%eax
    64f5:	49 83 fb 00          	cmp    $0x0,%r11
    64f9:	41 0f 45 c7          	cmovne %r15d,%eax
    64fd:	45 31 db             	xor    %r11d,%r11d
    6500:	01 c6                	add    %eax,%esi
    6502:	80 bc 24 80 00 00 00 	cmpb   $0x4,0x80(%rsp)
    6509:	04 
    650a:	44 89 e0             	mov    %r12d,%eax
    650d:	41 0f 95 c3          	setne  %r11b
    6511:	49 83 fb 00          	cmp    $0x0,%r11
    6515:	41 0f 45 c5          	cmovne %r13d,%eax
    6519:	44 8b 5c 24 64       	mov    0x64(%rsp),%r11d
    651e:	c1 e0 08             	shl    $0x8,%eax
    6521:	44 09 f0             	or     %r14d,%eax
    6524:	44 09 d8             	or     %r11d,%eax
    6527:	45 31 db             	xor    %r11d,%r11d
    652a:	3d 01 01 01 00       	cmp    $0x10101,%eax
    652f:	41 0f 94 c3          	sete   %r11b
    6533:	49 83 fb 00          	cmp    $0x0,%r11
    6537:	41 0f 45 f8          	cmovne %r8d,%edi
    653b:	45 89 e0             	mov    %r12d,%r8d
    653e:	49 83 fb 00          	cmp    $0x0,%r11
    6542:	45 0f 45 c5          	cmovne %r13d,%r8d
    6546:	41 01 f0             	add    %esi,%r8d
    6549:	3d 02 01 01 00       	cmp    $0x10102,%eax
    654e:	4c 0f be df          	movsbq %dil,%r11
    6552:	44 89 e6             	mov    %r12d,%esi
    6555:	0f 94 c0             	sete   %al
    6558:	09 d9                	or     %ebx,%ecx
    655a:	0f b6 c0             	movzbl %al,%eax
    655d:	49 83 fa 00          	cmp    $0x0,%r10
    6561:	41 0f 45 cf          	cmovne %r15d,%ecx
    6565:	48 83 f8 00          	cmp    $0x0,%rax
    6569:	41 0f 45 f7          	cmovne %r15d,%esi
    656d:	48 83 f8 00          	cmp    $0x0,%rax
    6571:	0f 45 54 24 70       	cmovne 0x70(%rsp),%edx
    6576:	41 01 f0             	add    %esi,%r8d
    6579:	31 c0                	xor    %eax,%eax
    657b:	8b 74 24 20          	mov    0x20(%rsp),%esi
    657f:	4d 85 db             	test   %r11,%r11
    6582:	0f 94 c0             	sete   %al
    6585:	89 d2                	mov    %edx,%edx
    6587:	41 89 da             	mov    %ebx,%r10d
    658a:	48 83 f8 00          	cmp    $0x0,%rax
    658e:	4c 0f 45 da          	cmovne %rdx,%r11
    6592:	31 d2                	xor    %edx,%edx
    6594:	80 bc 24 c0 00 00 00 	cmpb   $0x4,0xc0(%rsp)
    659b:	04 
    659c:	0f b6 c1             	movzbl %cl,%eax
    659f:	44 8b 7c 24 60       	mov    0x60(%rsp),%r15d
    65a4:	0f 94 c2             	sete   %dl
    65a7:	48 8b 7c 24 78       	mov    0x78(%rsp),%rdi
    65ac:	48 83 fa 00          	cmp    $0x0,%rdx
    65b0:	41 0f 45 c1          	cmovne %r9d,%eax
    65b4:	89 f2                	mov    %esi,%edx
    65b6:	83 e2 07             	and    $0x7,%edx
    65b9:	44 09 fa             	or     %r15d,%edx
    65bc:	83 fa 05             	cmp    $0x5,%edx
    65bf:	0f 94 c2             	sete   %dl
    65c2:	0f b6 d2             	movzbl %dl,%edx
    65c5:	48 83 fa 00          	cmp    $0x0,%rdx
    65c9:	41 0f 45 f1          	cmovne %r9d,%esi
    65cd:	31 d2                	xor    %edx,%edx
    65cf:	80 f9 04             	cmp    $0x4,%cl
    65d2:	0f 94 c2             	sete   %dl
    65d5:	45 09 fa             	or     %r15d,%r10d
    65d8:	48 83 fa 00          	cmp    $0x0,%rdx
    65dc:	0f 45 c6             	cmovne %esi,%eax
    65df:	31 d2                	xor    %edx,%edx
    65e1:	41 83 fa 05          	cmp    $0x5,%r10d
    65e5:	89 c6                	mov    %eax,%esi
    65e7:	b8 10 00 00 00       	mov    $0x10,%eax
    65ec:	0f 94 c2             	sete   %dl
    65ef:	31 db                	xor    %ebx,%ebx
    65f1:	48 83 fa 00          	cmp    $0x0,%rdx
    65f5:	0f 45 f0             	cmovne %eax,%esi
    65f8:	e8 23 f1 ff ff       	call   5720 <register_value_select>
    65fd:	89 f1                	mov    %esi,%ecx
    65ff:	8b 74 24 38          	mov    0x38(%rsp),%esi
    6603:	4c 8b 74 24 68       	mov    0x68(%rsp),%r14
    6608:	44 8b 54 24 34       	mov    0x34(%rsp),%r10d
    660d:	48 89 c2             	mov    %rax,%rdx
    6610:	31 c0                	xor    %eax,%eax
    6612:	48 83 f9 10          	cmp    $0x10,%rcx
    6616:	49 0f 44 d6          	cmove  %r14,%rdx
    661a:	48 81 f9 ff 00 00 00 	cmp    $0xff,%rcx
    6621:	48 0f 44 d3          	cmove  %rbx,%rdx
    6625:	89 d1                	mov    %edx,%ecx
    6627:	49 83 fa 01          	cmp    $0x1,%r10
    662b:	48 0f 44 d1          	cmove  %rcx,%rdx
    662f:	83 fe 04             	cmp    $0x4,%esi
    6632:	0f 94 c0             	sete   %al
    6635:	48 83 f8 00          	cmp    $0x0,%rax
    6639:	41 0f 45 f1          	cmovne %r9d,%esi
    663d:	e8 de f0 ff ff       	call   5720 <register_value_select>
    6642:	44 8b 4c 24 28       	mov    0x28(%rsp),%r9d
    6647:	89 f6                	mov    %esi,%esi
    6649:	48 83 fe 10          	cmp    $0x10,%rsi
    664d:	49 0f 44 c6          	cmove  %r14,%rax
    6651:	48 81 fe ff 00 00 00 	cmp    $0xff,%rsi
    6658:	48 0f 44 c3          	cmove  %rbx,%rax
    665c:	89 c1                	mov    %eax,%ecx
    665e:	41 be 02 00 00 00    	mov    $0x2,%r14d
    6664:	49 83 fa 01          	cmp    $0x1,%r10
    6668:	48 0f 44 c1          	cmove  %rcx,%rax
    666c:	45 85 c9             	test   %r9d,%r9d
    666f:	44 89 e9             	mov    %r13d,%ecx
    6672:	40 0f 94 c6          	sete   %sil
    6676:	40 0f b6 f6          	movzbl %sil,%esi
    667a:	48 83 fe 00          	cmp    $0x0,%rsi
    667e:	41 0f 45 cc          	cmovne %r12d,%ecx
    6682:	41 01 c8             	add    %ecx,%r8d
    6685:	0f b6 4c 24 24       	movzbl 0x24(%rsp),%ecx
    668a:	44 89 ee             	mov    %r13d,%esi
    668d:	d3 e6                	shl    %cl,%esi
    668f:	48 63 ce             	movslq %esi,%rcx
    6692:	48 0f af c1          	imul   %rcx,%rax
    6696:	48 01 c2             	add    %rax,%rdx
    6699:	8b 84 24 a0 00 00 00 	mov    0xa0(%rsp),%eax
    66a0:	4c 01 da             	add    %r11,%rdx
    66a3:	83 e0 0f             	and    $0xf,%eax
    66a6:	8d 70 06             	lea    0x6(%rax),%esi
    66a9:	e8 72 f0 ff ff       	call   5720 <register_value_select>
    66ae:	8b 74 24 40          	mov    0x40(%rsp),%esi
    66b2:	44 8b 7c 24 3c       	mov    0x3c(%rsp),%r15d
    66b7:	48 89 c1             	mov    %rax,%rcx
    66ba:	8b 44 24 48          	mov    0x48(%rsp),%eax
    66be:	44 8b 64 24 2c       	mov    0x2c(%rsp),%r12d
    66c3:	83 e6 03             	and    $0x3,%esi
    66c6:	48 83 f8 01          	cmp    $0x1,%rax
    66ca:	48 0f 44 d1          	cmove  %rcx,%rdx
    66ce:	89 f1                	mov    %esi,%ecx
    66d0:	49 89 c3             	mov    %rax,%r11
    66d3:	be 04 00 00 00       	mov    $0x4,%esi
    66d8:	83 c1 01             	add    $0x1,%ecx
    66db:	48 83 f8 00          	cmp    $0x0,%rax
    66df:	44 0f 45 c9          	cmovne %ecx,%r9d
    66e3:	44 89 f8             	mov    %r15d,%eax
    66e6:	44 09 e0             	or     %r12d,%eax
    66e9:	49 89 c2             	mov    %rax,%r10
    66ec:	48 83 f8 00          	cmp    $0x0,%rax
    66f0:	45 0f 45 ce          	cmovne %r14d,%r9d
    66f4:	e8 27 f0 ff ff       	call   5720 <register_value_select>
    66f9:	8b 4c 24 30          	mov    0x30(%rsp),%ecx
    66fd:	8b 5c 24 4c          	mov    0x4c(%rsp),%ebx
    6701:	49 83 fa 01          	cmp    $0x1,%r10
    6705:	48 0f 44 d0          	cmove  %rax,%rdx
    6709:	42 8d 04 09          	lea    (%rcx,%r9,1),%eax
    670d:	31 c9                	xor    %ecx,%ecx
    670f:	44 8b 94 24 e0 00 00 	mov    0xe0(%rsp),%r10d
    6716:	00 
    6717:	83 f8 02             	cmp    $0x2,%eax
    671a:	44 89 c8             	mov    %r9d,%eax
    671d:	0f 97 c1             	seta   %cl
    6720:	48 83 f9 00          	cmp    $0x0,%rcx
    6724:	41 0f 45 c5          	cmovne %r13d,%eax
    6728:	44 89 f9             	mov    %r15d,%ecx
    672b:	44 09 d9             	or     %r11d,%ecx
    672e:	48 83 f9 00          	cmp    $0x0,%rcx
    6732:	45 0f 45 c5          	cmovne %r13d,%r8d
    6736:	44 89 e1             	mov    %r12d,%ecx
    6739:	48 83 f9 00          	cmp    $0x0,%rcx
    673d:	45 0f 45 c6          	cmovne %r14d,%r8d
    6741:	42 8d 0c 03          	lea    (%rbx,%r8,1),%ecx
    6745:	48 8b 5c 24 50       	mov    0x50(%rsp),%rbx
    674a:	44 01 d1             	add    %r10d,%ecx
    674d:	83 f9 10             	cmp    $0x10,%ecx
    6750:	48 89 13             	mov    %rdx,(%rbx)
    6753:	48 8b 5c 24 18       	mov    0x18(%rsp),%rbx
    6758:	0f 96 c1             	setbe  %cl
    675b:	0f b6 c9             	movzbl %cl,%ecx
    675e:	48 21 c1             	and    %rax,%rcx
    6761:	48 83 f9 00          	cmp    $0x0,%rcx
    6765:	0f 45 c0             	cmovne %eax,%eax
    6768:	f6 05 cc c6 01 00 08 	testb  $0x8,0x1c6cc(%rip)        # 22e3b <g_cpu_feature_indicator+0x3>
    676f:	0f 84 1b 01 00 00    	je     6890 <ct_decode+0x10d0>
    6775:	62 f1 7c 48 28 03    	vmovaps (%rbx),%zmm0
    677b:	62 f1 7c 48 28 4b 01 	vmovaps 0x40(%rbx),%zmm1
    6782:	62 f1 7c 48 28 53 02 	vmovaps 0x80(%rbx),%zmm2
    6789:	62 f1 7c 48 28 5b 03 	vmovaps 0xc0(%rbx),%zmm3
    6790:	62 f1 7c 48 28 63 04 	vmovaps 0x100(%rbx),%zmm4
    6797:	62 f1 7c 48 28 6b 05 	vmovaps 0x140(%rbx),%zmm5
    679e:	62 f1 7c 48 28 73 06 	vmovaps 0x180(%rbx),%zmm6
    67a5:	62 f1 7c 48 28 7b 07 	vmovaps 0x1c0(%rbx),%zmm7
    67ac:	62 71 7c 48 28 43 08 	vmovaps 0x200(%rbx),%zmm8
    67b3:	62 71 7c 48 28 4b 09 	vmovaps 0x240(%rbx),%zmm9
    67ba:	62 71 7c 48 28 53 0a 	vmovaps 0x280(%rbx),%zmm10
    67c1:	62 71 7c 48 28 5b 0b 	vmovaps 0x2c0(%rbx),%zmm11
    67c8:	62 71 7c 48 28 63 0c 	vmovaps 0x300(%rbx),%zmm12
    67cf:	62 71 7c 48 28 6b 0d 	vmovaps 0x340(%rbx),%zmm13
    67d6:	62 71 7c 48 28 73 0e 	vmovaps 0x380(%rbx),%zmm14
    67dd:	62 71 7c 48 28 7b 0f 	vmovaps 0x3c0(%rbx),%zmm15
    67e4:	48 8b 94 24 38 05 00 	mov    0x538(%rsp),%rdx
    67eb:	00 
    67ec:	64 48 2b 14 25 28 00 	sub    %fs:0x28,%rdx
    67f3:	00 00 
    67f5:	0f 85 0d 01 00 00    	jne    6908 <ct_decode+0x1148>
    67fb:	c5 f8 77             	vzeroupper 
    67fe:	48 8d 65 d8          	lea    -0x28(%rbp),%rsp
    6802:	5b                   	pop    %rbx
    6803:	41 5c                	pop    %r12
    6805:	41 5d                	pop    %r13
    6807:	41 5e                	pop    %r14
    6809:	41 5f                	pop    %r15
    680b:	5d                   	pop    %rbp
    680c:	c3                   	ret    
    680d:	0f 1f 00             	nopl   (%rax)
    6810:	c5 fc 29 00          	vmovaps %ymm0,(%rax)
    6814:	c5 fc 29 48 20       	vmovaps %ymm1,0x20(%rax)
    6819:	c5 fc 29 50 40       	vmovaps %ymm2,0x40(%rax)
    681e:	c5 fc 29 58 60       	vmovaps %ymm3,0x60(%rax)
    6823:	c5 fc 29 a0 80 00 00 	vmovaps %ymm4,0x80(%rax)
    682a:	00 
    682b:	c5 fc 29 a8 a0 00 00 	vmovaps %ymm5,0xa0(%rax)
    6832:	00 
    6833:	c5 fc 29 b0 c0 00 00 	vmovaps %ymm6,0xc0(%rax)
    683a:	00 
    683b:	c5 fc 29 b8 e0 00 00 	vmovaps %ymm7,0xe0(%rax)
    6842:	00 
    6843:	c5 7c 29 80 00 01 00 	vmovaps %ymm8,0x100(%rax)
    684a:	00 
    684b:	c5 7c 29 88 20 01 00 	vmovaps %ymm9,0x120(%rax)
    6852:	00 
    6853:	c5 7c 29 90 40 01 00 	vmovaps %ymm10,0x140(%rax)
    685a:	00 
    685b:	c5 7c 29 98 60 01 00 	vmovaps %ymm11,0x160(%rax)
    6862:	00 
    6863:	c5 7c 29 a0 80 01 00 	vmovaps %ymm12,0x180(%rax)
    686a:	00 
    686b:	c5 7c 29 a8 a0 01 00 	vmovaps %ymm13,0x1a0(%rax)
    6872:	00 
    6873:	c5 7c 29 b0 c0 01 00 	vmovaps %ymm14,0x1c0(%rax)
    687a:	00 
    687b:	c5 7c 29 b8 e0 01 00 	vmovaps %ymm15,0x1e0(%rax)
    6882:	00 
    6883:	e9 fa ef ff ff       	jmp    5882 <ct_decode+0xc2>
    6888:	0f 1f 84 00 00 00 00 	nopl   0x0(%rax,%rax,1)
    688f:	00 
    6890:	c5 fc 28 03          	vmovaps (%rbx),%ymm0
    6894:	c5 fc 28 4b 20       	vmovaps 0x20(%rbx),%ymm1
    6899:	c5 fc 28 53 40       	vmovaps 0x40(%rbx),%ymm2
    689e:	c5 fc 28 5b 60       	vmovaps 0x60(%rbx),%ymm3
    68a3:	c5 fc 28 a3 80 00 00 	vmovaps 0x80(%rbx),%ymm4
    68aa:	00 
    68ab:	c5 fc 28 ab a0 00 00 	vmovaps 0xa0(%rbx),%ymm5
    68b2:	00 
    68b3:	c5 fc 28 b3 c0 00 00 	vmovaps 0xc0(%rbx),%ymm6
    68ba:	00 
    68bb:	c5 fc 28 bb e0 00 00 	vmovaps 0xe0(%rbx),%ymm7
    68c2:	00 
    68c3:	c5 7c 28 83 00 01 00 	vmovaps 0x100(%rbx),%ymm8
    68ca:	00 
    68cb:	c5 7c 28 8b 20 01 00 	vmovaps 0x120(%rbx),%ymm9
    68d2:	00 
    68d3:	c5 7c 28 93 40 01 00 	vmovaps 0x140(%rbx),%ymm10
    68da:	00 
    68db:	c5 7c 28 9b 60 01 00 	vmovaps 0x160(%rbx),%ymm11
    68e2:	00 
    68e3:	c5 7c 28 a3 80 01 00 	vmovaps 0x180(%rbx),%ymm12
    68ea:	00 
    68eb:	c5 7c 28 ab a0 01 00 	vmovaps 0x1a0(%rbx),%ymm13
    68f2:	00 
    68f3:	c5 7c 28 b3 c0 01 00 	vmovaps 0x1c0(%rbx),%ymm14
    68fa:	00 
    68fb:	c5 7c 28 bb e0 01 00 	vmovaps 0x1e0(%rbx),%ymm15
    6902:	00 
    6903:	e9 dc fe ff ff       	jmp    67e4 <ct_decode+0x1024>
    6908:	c5 f8 77             	vzeroupper 
    690b:	e8 30 b5 00 00       	call   11e40 <__stack_chk_fail>

0000000000006910 <_ZL22init_rts_contexts_emasP9_layout_tS0_m>:
    6910:	48 39 f7             	cmp    %rsi,%rdi
    6913:	0f 83 f7 01 00 00    	jae    6b10 <_ZL22init_rts_contexts_emasP9_layout_tS0_m+0x200>
    6919:	41 57                	push   %r15
    691b:	41 56                	push   %r14
    691d:	49 89 d6             	mov    %rdx,%r14
    6920:	41 55                	push   %r13
    6922:	49 89 f5             	mov    %rsi,%r13
    6925:	41 54                	push   %r12
    6927:	55                   	push   %rbp
    6928:	53                   	push   %rbx
    6929:	48 89 fb             	mov    %rdi,%rbx
    692c:	48 83 ec 08          	sub    $0x8,%rsp
    6930:	66 f7 03 00 10       	testw  $0x1000,(%rbx)
    6935:	0f 85 d5 00 00 00    	jne    6a10 <_ZL22init_rts_contexts_emasP9_layout_tS0_m+0x100>
    693b:	48 8b 6b 08          	mov    0x8(%rbx),%rbp
    693f:	e8 b4 47 01 00       	call   1b0f8 <get_enclave_base>
    6944:	44 8b 63 04          	mov    0x4(%rbx),%r12d
    6948:	48 8b 4b 18          	mov    0x18(%rbx),%rcx
    694c:	4c 01 f5             	add    %r14,%rbp
    694f:	48 01 c5             	add    %rax,%rbp
    6952:	49 c1 e4 0c          	shl    $0xc,%r12
    6956:	48 85 c9             	test   %rcx,%rcx
    6959:	0f 84 81 00 00 00    	je     69e0 <_ZL22init_rts_contexts_emasP9_layout_tS0_m+0xd0>
    695f:	0f b7 43 02          	movzwl 0x2(%rbx),%eax
    6963:	a8 04                	test   $0x4,%al
    6965:	75 79                	jne    69e0 <_ZL22init_rts_contexts_emasP9_layout_tS0_m+0xd0>
    6967:	89 c2                	mov    %eax,%edx
    6969:	41 89 c7             	mov    %eax,%r15d
    696c:	83 e2 10             	and    $0x10,%edx
    696f:	41 83 e7 08          	and    $0x8,%r15d
    6973:	a8 01                	test   $0x1,%al
    6975:	0f 84 e5 00 00 00    	je     6a60 <_ZL22init_rts_contexts_emasP9_layout_tS0_m+0x150>
    697b:	66 85 d2             	test   %dx,%dx
    697e:	0f 85 3c 01 00 00    	jne    6ac0 <_ZL22init_rts_contexts_emasP9_layout_tS0_m+0x1b0>
    6984:	0f b7 03             	movzwl (%rbx),%eax
    6987:	66 45 85 ff          	test   %r15w,%r15w
    698b:	0f 85 e1 00 00 00    	jne    6a72 <_ZL22init_rts_contexts_emasP9_layout_tS0_m+0x162>
    6991:	66 83 f8 04          	cmp    $0x4,%ax
    6995:	0f 84 65 01 00 00    	je     6b00 <_ZL22init_rts_contexts_emasP9_layout_tS0_m+0x1f0>
    699b:	83 e1 07             	and    $0x7,%ecx
    699e:	ba 80 02 00 00       	mov    $0x280,%edx
    69a3:	45 31 c9             	xor    %r9d,%r9d
    69a6:	45 31 c0             	xor    %r8d,%r8d
    69a9:	4c 89 e6             	mov    %r12,%rsi
    69ac:	48 89 ef             	mov    %rbp,%rdi
    69af:	e8 4c 62 00 00       	call   cc00 <mm_init_ema>
    69b4:	85 c0                	test   %eax,%eax
    69b6:	75 44                	jne    69fc <_ZL22init_rts_contexts_emasP9_layout_tS0_m+0xec>
    69b8:	0f 1f 84 00 00 00 00 	nopl   0x0(%rax,%rax,1)
    69bf:	00 
    69c0:	48 83 c3 20          	add    $0x20,%rbx
    69c4:	4c 39 eb             	cmp    %r13,%rbx
    69c7:	0f 82 63 ff ff ff    	jb     6930 <_ZL22init_rts_contexts_emasP9_layout_tS0_m+0x20>
    69cd:	48 83 c4 08          	add    $0x8,%rsp
    69d1:	31 c0                	xor    %eax,%eax
    69d3:	5b                   	pop    %rbx
    69d4:	5d                   	pop    %rbp
    69d5:	41 5c                	pop    %r12
    69d7:	41 5d                	pop    %r13
    69d9:	41 5e                	pop    %r14
    69db:	41 5f                	pop    %r15
    69dd:	c3                   	ret    
    69de:	66 90                	xchg   %ax,%ax
    69e0:	45 31 c9             	xor    %r9d,%r9d
    69e3:	45 31 c0             	xor    %r8d,%r8d
    69e6:	31 c9                	xor    %ecx,%ecx
    69e8:	ba 81 00 00 00       	mov    $0x81,%edx
    69ed:	4c 89 e6             	mov    %r12,%rsi
    69f0:	48 89 ef             	mov    %rbp,%rdi
    69f3:	e8 08 62 00 00       	call   cc00 <mm_init_ema>
    69f8:	85 c0                	test   %eax,%eax
    69fa:	74 c4                	je     69c0 <_ZL22init_rts_contexts_emasP9_layout_tS0_m+0xb0>
    69fc:	b8 01 00 00 00       	mov    $0x1,%eax
    6a01:	48 83 c4 08          	add    $0x8,%rsp
    6a05:	5b                   	pop    %rbx
    6a06:	5d                   	pop    %rbp
    6a07:	41 5c                	pop    %r12
    6a09:	41 5d                	pop    %r13
    6a0b:	41 5e                	pop    %r14
    6a0d:	41 5f                	pop    %r15
    6a0f:	c3                   	ret    
    6a10:	8b 43 04             	mov    0x4(%rbx),%eax
    6a13:	31 ed                	xor    %ebp,%ebp
    6a15:	45 31 e4             	xor    %r12d,%r12d
    6a18:	85 c0                	test   %eax,%eax
    6a1a:	74 a4                	je     69c0 <_ZL22init_rts_contexts_emasP9_layout_tS0_m+0xb0>
    6a1c:	0f b7 7b 02          	movzwl 0x2(%rbx),%edi
    6a20:	4c 03 63 08          	add    0x8(%rbx),%r12
    6a24:	48 89 de             	mov    %rbx,%rsi
    6a27:	4c 89 e2             	mov    %r12,%rdx
    6a2a:	f7 df                	neg    %edi
    6a2c:	48 63 ff             	movslq %edi,%rdi
    6a2f:	48 c1 e7 05          	shl    $0x5,%rdi
    6a33:	48 01 df             	add    %rbx,%rdi
    6a36:	e8 d5 fe ff ff       	call   6910 <_ZL22init_rts_contexts_emasP9_layout_tS0_m>
    6a3b:	85 c0                	test   %eax,%eax
    6a3d:	75 c2                	jne    6a01 <_ZL22init_rts_contexts_emasP9_layout_tS0_m+0xf1>
    6a3f:	83 c5 01             	add    $0x1,%ebp
    6a42:	3b 6b 04             	cmp    0x4(%rbx),%ebp
    6a45:	72 d5                	jb     6a1c <_ZL22init_rts_contexts_emasP9_layout_tS0_m+0x10c>
    6a47:	48 83 c3 20          	add    $0x20,%rbx
    6a4b:	4c 39 eb             	cmp    %r13,%rbx
    6a4e:	0f 82 dc fe ff ff    	jb     6930 <_ZL22init_rts_contexts_emasP9_layout_tS0_m+0x20>
    6a54:	e9 74 ff ff ff       	jmp    69cd <_ZL22init_rts_contexts_emasP9_layout_tS0_m+0xbd>
    6a59:	0f 1f 80 00 00 00 00 	nopl   0x0(%rax)
    6a60:	66 85 d2             	test   %dx,%dx
    6a63:	75 5b                	jne    6ac0 <_ZL22init_rts_contexts_emasP9_layout_tS0_m+0x1b0>
    6a65:	66 45 85 ff          	test   %r15w,%r15w
    6a69:	0f 84 51 ff ff ff    	je     69c0 <_ZL22init_rts_contexts_emasP9_layout_tS0_m+0xb0>
    6a6f:	0f b7 03             	movzwl (%rbx),%eax
    6a72:	8d 50 ef             	lea    -0x11(%rax),%edx
    6a75:	66 83 fa 01          	cmp    $0x1,%dx
    6a79:	76 0b                	jbe    6a86 <_ZL22init_rts_contexts_emasP9_layout_tS0_m+0x176>
    6a7b:	ba e4 02 00 00       	mov    $0x2e4,%edx
    6a80:	66 83 f8 07          	cmp    $0x7,%ax
    6a84:	75 05                	jne    6a8b <_ZL22init_rts_contexts_emasP9_layout_tS0_m+0x17b>
    6a86:	ba d4 02 00 00       	mov    $0x2d4,%edx
    6a8b:	45 31 c9             	xor    %r9d,%r9d
    6a8e:	45 31 c0             	xor    %r8d,%r8d
    6a91:	31 c9                	xor    %ecx,%ecx
    6a93:	4c 89 e6             	mov    %r12,%rsi
    6a96:	48 89 ef             	mov    %rbp,%rdi
    6a99:	e8 62 62 00 00       	call   cd00 <mm_alloc>
    6a9e:	85 c0                	test   %eax,%eax
    6aa0:	0f 85 56 ff ff ff    	jne    69fc <_ZL22init_rts_contexts_emasP9_layout_tS0_m+0xec>
    6aa6:	48 83 c3 20          	add    $0x20,%rbx
    6aaa:	4c 39 eb             	cmp    %r13,%rbx
    6aad:	0f 82 7d fe ff ff    	jb     6930 <_ZL22init_rts_contexts_emasP9_layout_tS0_m+0x20>
    6ab3:	e9 15 ff ff ff       	jmp    69cd <_ZL22init_rts_contexts_emasP9_layout_tS0_m+0xbd>
    6ab8:	0f 1f 84 00 00 00 00 	nopl   0x0(%rax,%rax,1)
    6abf:	00 
    6ac0:	45 31 c9             	xor    %r9d,%r9d
    6ac3:	45 31 c0             	xor    %r8d,%r8d
    6ac6:	b9 03 00 00 00       	mov    $0x3,%ecx
    6acb:	ba 80 00 00 00       	mov    $0x80,%edx
    6ad0:	4c 89 e6             	mov    %r12,%rsi
    6ad3:	48 89 ef             	mov    %rbp,%rdi
    6ad6:	e8 25 61 00 00       	call   cc00 <mm_init_ema>
    6adb:	85 c0                	test   %eax,%eax
    6add:	0f 85 19 ff ff ff    	jne    69fc <_ZL22init_rts_contexts_emasP9_layout_tS0_m+0xec>
    6ae3:	4c 89 e6             	mov    %r12,%rsi
    6ae6:	48 89 ef             	mov    %rbp,%rdi
    6ae9:	e8 52 62 00 00       	call   cd40 <mm_dealloc>
    6aee:	85 c0                	test   %eax,%eax
    6af0:	0f 84 6f ff ff ff    	je     6a65 <_ZL22init_rts_contexts_emasP9_layout_tS0_m+0x155>
    6af6:	e9 01 ff ff ff       	jmp    69fc <_ZL22init_rts_contexts_emasP9_layout_tS0_m+0xec>
    6afb:	0f 1f 44 00 00       	nopl   0x0(%rax,%rax,1)
    6b00:	ba 80 01 00 00       	mov    $0x180,%edx
    6b05:	31 c9                	xor    %ecx,%ecx
    6b07:	e9 97 fe ff ff       	jmp    69a3 <_ZL22init_rts_contexts_emasP9_layout_tS0_m+0x93>
    6b0c:	0f 1f 40 00          	nopl   0x0(%rax)
    6b10:	31 c0                	xor    %eax,%eax
    6b12:	c3                   	ret    
    6b13:	66 2e 0f 1f 84 00 00 	cs nopw 0x0(%rax,%rax,1)
    6b1a:	00 00 00 
    6b1d:	0f 1f 00             	nopl   (%rax)

0000000000006b20 <init_rts_emas>:
    6b20:	f3 0f 1e fa          	endbr64 
    6b24:	55                   	push   %rbp
    6b25:	48 89 d5             	mov    %rdx,%rbp
    6b28:	53                   	push   %rbx
    6b29:	48 89 f3             	mov    %rsi,%rbx
    6b2c:	48 83 ec 08          	sub    $0x8,%rsp
    6b30:	e8 8b 32 00 00       	call   9dc0 <init_segment_emas>
    6b35:	85 c0                	test   %eax,%eax
    6b37:	74 07                	je     6b40 <init_rts_emas+0x20>
    6b39:	48 83 c4 08          	add    $0x8,%rsp
    6b3d:	5b                   	pop    %rbx
    6b3e:	5d                   	pop    %rbp
    6b3f:	c3                   	ret    
    6b40:	48 83 c4 08          	add    $0x8,%rsp
    6b44:	48 89 ee             	mov    %rbp,%rsi
    6b47:	48 89 df             	mov    %rbx,%rdi
    6b4a:	31 d2                	xor    %edx,%edx
    6b4c:	5b                   	pop    %rbx
    6b4d:	5d                   	pop    %rbp
    6b4e:	e9 bd fd ff ff       	jmp    6910 <_ZL22init_rts_contexts_emasP9_layout_tS0_m>
    6b53:	66 2e 0f 1f 84 00 00 	cs nopw 0x0(%rax,%rax,1)
    6b5a:	00 00 00 
    6b5d:	0f 1f 00             	nopl   (%rax)

0000000000006b60 <sgx_mm_alloc_ocall>:
    6b60:	f3 0f 1e fa          	endbr64 
    6b64:	41 56                	push   %r14
    6b66:	41 89 ce             	mov    %ecx,%r14d
    6b69:	41 55                	push   %r13
    6b6b:	49 89 fd             	mov    %rdi,%r13
    6b6e:	bf 20 00 00 00       	mov    $0x20,%edi
    6b73:	41 54                	push   %r12
    6b75:	49 89 f4             	mov    %rsi,%r12
    6b78:	55                   	push   %rbp
    6b79:	89 d5                	mov    %edx,%ebp
    6b7b:	53                   	push   %rbx
    6b7c:	e8 ff 03 00 00       	call   6f80 <sgx_ocalloc>
    6b81:	48 85 c0             	test   %rax,%rax
    6b84:	74 4a                	je     6bd0 <sgx_mm_alloc_ocall+0x70>
    6b86:	89 68 18             	mov    %ebp,0x18(%rax)
    6b89:	48 89 c6             	mov    %rax,%rsi
    6b8c:	bf fa ff ff ff       	mov    $0xfffffffa,%edi
    6b91:	48 89 c3             	mov    %rax,%rbx
    6b94:	4c 89 68 08          	mov    %r13,0x8(%rax)
    6b98:	bd 0e 00 00 00       	mov    $0xe,%ebp
    6b9d:	4c 89 60 10          	mov    %r12,0x10(%rax)
    6ba1:	44 89 70 1c          	mov    %r14d,0x1c(%rax)
    6ba5:	e8 c6 19 00 00       	call   8570 <sgx_ocall>
    6baa:	85 c0                	test   %eax,%eax
    6bac:	74 12                	je     6bc0 <sgx_mm_alloc_ocall+0x60>
    6bae:	e8 ad 04 00 00       	call   7060 <sgx_ocfree>
    6bb3:	5b                   	pop    %rbx
    6bb4:	89 e8                	mov    %ebp,%eax
    6bb6:	5d                   	pop    %rbp
    6bb7:	41 5c                	pop    %r12
    6bb9:	41 5d                	pop    %r13
    6bbb:	41 5e                	pop    %r14
    6bbd:	c3                   	ret    
    6bbe:	66 90                	xchg   %ax,%ax
    6bc0:	8b 03                	mov    (%rbx),%eax
    6bc2:	f7 d8                	neg    %eax
    6bc4:	19 ed                	sbb    %ebp,%ebp
    6bc6:	83 e5 0e             	and    $0xe,%ebp
    6bc9:	eb e3                	jmp    6bae <sgx_mm_alloc_ocall+0x4e>
    6bcb:	0f 1f 44 00 00       	nopl   0x0(%rax,%rax,1)
    6bd0:	e8 8b 04 00 00       	call   7060 <sgx_ocfree>
    6bd5:	bd 01 00 00 00       	mov    $0x1,%ebp
    6bda:	5b                   	pop    %rbx
    6bdb:	89 e8                	mov    %ebp,%eax
    6bdd:	5d                   	pop    %rbp
    6bde:	41 5c                	pop    %r12
    6be0:	41 5d                	pop    %r13
    6be2:	41 5e                	pop    %r14
    6be4:	c3                   	ret    
    6be5:	66 2e 0f 1f 84 00 00 	cs nopw 0x0(%rax,%rax,1)
    6bec:	00 00 00 
    6bef:	90                   	nop

0000000000006bf0 <sgx_mm_modify_ocall>:
    6bf0:	f3 0f 1e fa          	endbr64 
    6bf4:	41 56                	push   %r14
    6bf6:	41 89 ce             	mov    %ecx,%r14d
    6bf9:	41 55                	push   %r13
    6bfb:	49 89 fd             	mov    %rdi,%r13
    6bfe:	bf 20 00 00 00       	mov    $0x20,%edi
    6c03:	41 54                	push   %r12
    6c05:	49 89 f4             	mov    %rsi,%r12
    6c08:	55                   	push   %rbp
    6c09:	89 d5                	mov    %edx,%ebp
    6c0b:	53                   	push   %rbx
    6c0c:	e8 6f 03 00 00       	call   6f80 <sgx_ocalloc>
    6c11:	48 85 c0             	test   %rax,%rax
    6c14:	74 4a                	je     6c60 <sgx_mm_modify_ocall+0x70>
    6c16:	89 68 18             	mov    %ebp,0x18(%rax)
    6c19:	48 89 c6             	mov    %rax,%rsi
    6c1c:	bf f9 ff ff ff       	mov    $0xfffffff9,%edi
    6c21:	48 89 c3             	mov    %rax,%rbx
    6c24:	4c 89 68 08          	mov    %r13,0x8(%rax)
    6c28:	bd 0e 00 00 00       	mov    $0xe,%ebp
    6c2d:	4c 89 60 10          	mov    %r12,0x10(%rax)
    6c31:	44 89 70 1c          	mov    %r14d,0x1c(%rax)
    6c35:	e8 36 19 00 00       	call   8570 <sgx_ocall>
    6c3a:	85 c0                	test   %eax,%eax
    6c3c:	74 12                	je     6c50 <sgx_mm_modify_ocall+0x60>
    6c3e:	e8 1d 04 00 00       	call   7060 <sgx_ocfree>
    6c43:	5b                   	pop    %rbx
    6c44:	89 e8                	mov    %ebp,%eax
    6c46:	5d                   	pop    %rbp
    6c47:	41 5c                	pop    %r12
    6c49:	41 5d                	pop    %r13
    6c4b:	41 5e                	pop    %r14
    6c4d:	c3                   	ret    
    6c4e:	66 90                	xchg   %ax,%ax
    6c50:	8b 03                	mov    (%rbx),%eax
    6c52:	f7 d8                	neg    %eax
    6c54:	19 ed                	sbb    %ebp,%ebp
    6c56:	83 e5 0e             	and    $0xe,%ebp
    6c59:	eb e3                	jmp    6c3e <sgx_mm_modify_ocall+0x4e>
    6c5b:	0f 1f 44 00 00       	nopl   0x0(%rax,%rax,1)
    6c60:	e8 fb 03 00 00       	call   7060 <sgx_ocfree>
    6c65:	bd 01 00 00 00       	mov    $0x1,%ebp
    6c6a:	5b                   	pop    %rbx
    6c6b:	89 e8                	mov    %ebp,%eax
    6c6d:	5d                   	pop    %rbp
    6c6e:	41 5c                	pop    %r12
    6c70:	41 5d                	pop    %r13
    6c72:	41 5e                	pop    %r14
    6c74:	c3                   	ret    
    6c75:	66 2e 0f 1f 84 00 00 	cs nopw 0x0(%rax,%rax,1)
    6c7c:	00 00 00 
    6c7f:	90                   	nop

0000000000006c80 <sgx_mm_register_pfhandler>:
    6c80:	f3 0f 1e fa          	endbr64 
    6c84:	31 c0                	xor    %eax,%eax
    6c86:	48 83 3d 4a e7 01 00 	cmpq   $0x0,0x1e74a(%rip)        # 253d8 <g_mm_pfhandler>
    6c8d:	00 
    6c8e:	74 08                	je     6c98 <sgx_mm_register_pfhandler+0x18>
    6c90:	c3                   	ret    
    6c91:	0f 1f 80 00 00 00 00 	nopl   0x0(%rax)
    6c98:	48 89 3d 39 e7 01 00 	mov    %rdi,0x1e739(%rip)        # 253d8 <g_mm_pfhandler>
    6c9f:	b8 01 00 00 00       	mov    $0x1,%eax
    6ca4:	c3                   	ret    
    6ca5:	66 2e 0f 1f 84 00 00 	cs nopw 0x0(%rax,%rax,1)
    6cac:	00 00 00 
    6caf:	90                   	nop

0000000000006cb0 <sgx_mm_unregister_pfhandler>:
    6cb0:	f3 0f 1e fa          	endbr64 
    6cb4:	31 c0                	xor    %eax,%eax
    6cb6:	48 39 3d 1b e7 01 00 	cmp    %rdi,0x1e71b(%rip)        # 253d8 <g_mm_pfhandler>
    6cbd:	74 01                	je     6cc0 <sgx_mm_unregister_pfhandler+0x10>
    6cbf:	c3                   	ret    
    6cc0:	48 c7 05 0d e7 01 00 	movq   $0x0,0x1e70d(%rip)        # 253d8 <g_mm_pfhandler>
    6cc7:	00 00 00 00 
    6ccb:	b8 01 00 00 00       	mov    $0x1,%eax
    6cd0:	c3                   	ret    
    6cd1:	66 2e 0f 1f 84 00 00 	cs nopw 0x0(%rax,%rax,1)
    6cd8:	00 00 00 
    6cdb:	0f 1f 44 00 00       	nopl   0x0(%rax,%rax,1)

0000000000006ce0 <sgx_mm_mutex_create>:
    6ce0:	f3 0f 1e fa          	endbr64 
    6ce4:	48 83 ec 08          	sub    $0x8,%rsp
    6ce8:	bf 18 00 00 00       	mov    $0x18,%edi
    6ced:	e8 9e 77 00 00       	call   e490 <dlmalloc>
    6cf2:	48 85 c0             	test   %rax,%rax
    6cf5:	74 16                	je     6d0d <sgx_mm_mutex_create+0x2d>
    6cf7:	48 c7 00 00 00 00 00 	movq   $0x0,(%rax)
    6cfe:	c7 40 08 00 00 00 00 	movl   $0x0,0x8(%rax)
    6d05:	48 c7 40 10 00 00 00 	movq   $0x0,0x10(%rax)
    6d0c:	00 
    6d0d:	48 83 c4 08          	add    $0x8,%rsp
    6d11:	c3                   	ret    
    6d12:	66 2e 0f 1f 84 00 00 	cs nopw 0x0(%rax,%rax,1)
    6d19:	00 00 00 
    6d1c:	0f 1f 40 00          	nopl   0x0(%rax)

0000000000006d20 <sgx_mm_mutex_lock>:
    6d20:	f3 0f 1e fa          	endbr64 
    6d24:	53                   	push   %rbx
    6d25:	48 89 fb             	mov    %rdi,%rbx
    6d28:	0f 1f 84 00 00 00 00 	nopl   0x0(%rax,%rax,1)
    6d2f:	00 
    6d30:	48 89 df             	mov    %rbx,%rdi
    6d33:	e8 18 b2 00 00       	call   11f50 <sgx_thread_spin_trylock>
    6d38:	85 c0                	test   %eax,%eax
    6d3a:	75 f4                	jne    6d30 <sgx_mm_mutex_lock+0x10>
    6d3c:	5b                   	pop    %rbx
    6d3d:	c3                   	ret    
    6d3e:	66 90                	xchg   %ax,%ax

0000000000006d40 <sgx_mm_mutex_unlock>:
    6d40:	f3 0f 1e fa          	endbr64 
    6d44:	e9 97 b2 00 00       	jmp    11fe0 <sgx_thread_spin_unlock>
    6d49:	0f 1f 80 00 00 00 00 	nopl   0x0(%rax)

0000000000006d50 <sgx_mm_mutex_destroy>:
    6d50:	f3 0f 1e fa          	endbr64 
    6d54:	55                   	push   %rbp
    6d55:	53                   	push   %rbx
    6d56:	48 89 fb             	mov    %rdi,%rbx
    6d59:	48 83 ec 08          	sub    $0x8,%rsp
    6d5d:	e8 6e b1 00 00       	call   11ed0 <sgx_thread_spin_destroy>
    6d62:	48 89 df             	mov    %rbx,%rdi
    6d65:	89 c5                	mov    %eax,%ebp
    6d67:	e8 14 95 00 00       	call   10280 <dlfree>
    6d6c:	48 83 c4 08          	add    $0x8,%rsp
    6d70:	89 e8                	mov    %ebp,%eax
    6d72:	5b                   	pop    %rbx
    6d73:	5d                   	pop    %rbp
    6d74:	c3                   	ret    
    6d75:	66 2e 0f 1f 84 00 00 	cs nopw 0x0(%rax,%rax,1)
    6d7c:	00 00 00 
    6d7f:	90                   	nop

0000000000006d80 <sgx_mm_is_within_enclave>:
    6d80:	f3 0f 1e fa          	endbr64 
    6d84:	48 83 ec 08          	sub    $0x8,%rsp
    6d88:	e8 33 01 00 00       	call   6ec0 <sgx_is_within_enclave>
    6d8d:	85 c0                	test   %eax,%eax
    6d8f:	0f 95 c0             	setne  %al
    6d92:	48 83 c4 08          	add    $0x8,%rsp
    6d96:	c3                   	ret    
    6d97:	66 0f 1f 84 00 00 00 	nopw   0x0(%rax,%rax,1)
    6d9e:	00 00 

0000000000006da0 <init_optimized_libs>:
    6da0:	f3 0f 1e fa          	endbr64 
    6da4:	41 54                	push   %r12
    6da6:	49 89 d4             	mov    %rdx,%r12
    6da9:	55                   	push   %rbp
    6daa:	48 89 f5             	mov    %rsi,%rbp
    6dad:	53                   	push   %rbx
    6dae:	48 89 fb             	mov    %rdi,%rbx
    6db1:	e8 4e 43 01 00       	call   1b104 <get_enclave_state>
    6db6:	83 f8 01             	cmp    $0x1,%eax
    6db9:	0f 85 d6 00 00 00    	jne    6e95 <init_optimized_libs+0xf5>
    6dbf:	48 b8 ff ff ff ff ff 	movabs $0xffffffffffffff,%rax
    6dc6:	ff ff 00 
    6dc9:	48 89 da             	mov    %rbx,%rdx
    6dcc:	48 21 c2             	and    %rax,%rdx
    6dcf:	48 39 d8             	cmp    %rbx,%rax
    6dd2:	48 0f 42 da          	cmovb  %rdx,%rbx
    6dd6:	48 81 fb ff 01 00 00 	cmp    $0x1ff,%rbx
    6ddd:	0f 86 b2 00 00 00    	jbe    6e95 <init_optimized_libs+0xf5>
    6de3:	f6 c3 20             	test   $0x20,%bl
    6de6:	74 0e                	je     6df6 <init_optimized_libs+0x56>
    6de8:	48 89 d8             	mov    %rbx,%rax
    6deb:	48 f7 d0             	not    %rax
    6dee:	a8 1f                	test   $0x1f,%al
    6df0:	0f 85 9f 00 00 00    	jne    6e95 <init_optimized_libs+0xf5>
    6df6:	f6 c3 40             	test   $0x40,%bl
    6df9:	74 0e                	je     6e09 <init_optimized_libs+0x69>
    6dfb:	48 89 d8             	mov    %rbx,%rax
    6dfe:	48 f7 d0             	not    %rax
    6e01:	a8 3f                	test   $0x3f,%al
    6e03:	0f 85 8c 00 00 00    	jne    6e95 <init_optimized_libs+0xf5>
    6e09:	f6 c3 80             	test   $0x80,%bl
    6e0c:	74 0a                	je     6e18 <init_optimized_libs+0x78>
    6e0e:	48 89 d8             	mov    %rbx,%rax
    6e11:	48 f7 d0             	not    %rax
    6e14:	a8 7f                	test   $0x7f,%al
    6e16:	75 7d                	jne    6e95 <init_optimized_libs+0xf5>
    6e18:	f6 c7 01             	test   $0x1,%bh
    6e1b:	74 0b                	je     6e28 <init_optimized_libs+0x88>
    6e1d:	0f b6 c3             	movzbl %bl,%eax
    6e20:	48 3d ff 00 00 00    	cmp    $0xff,%rax
    6e26:	75 6d                	jne    6e95 <init_optimized_libs+0xf5>
    6e28:	f6 c7 02             	test   $0x2,%bh
    6e2b:	74 0d                	je     6e3a <init_optimized_libs+0x9a>
    6e2d:	48 89 d8             	mov    %rbx,%rax
    6e30:	48 f7 d0             	not    %rax
    6e33:	a9 ff 01 00 00       	test   $0x1ff,%eax
    6e38:	75 5b                	jne    6e95 <init_optimized_libs+0xf5>
    6e3a:	f6 c7 04             	test   $0x4,%bh
    6e3d:	75 49                	jne    6e88 <init_optimized_libs+0xe8>
    6e3f:	4c 89 e0             	mov    %r12,%rax
    6e42:	48 f7 d0             	not    %rax
    6e45:	a8 06                	test   $0x6,%al
    6e47:	74 57                	je     6ea0 <init_optimized_libs+0x100>
    6e49:	48 b8 ff 7f 12 86 08 	movabs $0xfffe200886127fff,%rax
    6e50:	20 fe ff 
    6e53:	48 21 c3             	and    %rax,%rbx
    6e56:	4c 8d 25 db bf 01 00 	lea    0x1bfdb(%rip),%r12        # 22e38 <g_cpu_feature_indicator>
    6e5d:	48 89 df             	mov    %rbx,%rdi
    6e60:	49 89 1c 24          	mov    %rbx,(%r12)
    6e64:	e8 37 af 00 00       	call   11da0 <sgx_init_string_lib>
    6e69:	85 c0                	test   %eax,%eax
    6e6b:	75 28                	jne    6e95 <init_optimized_libs+0xf5>
    6e6d:	49 8b 3c 24          	mov    (%r12),%rdi
    6e71:	48 89 ee             	mov    %rbp,%rsi
    6e74:	e8 a7 b5 00 00       	call   12420 <sgx_init_crypto_lib>
    6e79:	5b                   	pop    %rbx
    6e7a:	5d                   	pop    %rbp
    6e7b:	f7 d8                	neg    %eax
    6e7d:	41 5c                	pop    %r12
    6e7f:	19 c0                	sbb    %eax,%eax
    6e81:	c3                   	ret    
    6e82:	66 0f 1f 44 00 00    	nopw   0x0(%rax,%rax,1)
    6e88:	48 89 d8             	mov    %rbx,%rax
    6e8b:	48 f7 d0             	not    %rax
    6e8e:	a9 ff 03 00 00       	test   $0x3ff,%eax
    6e93:	74 aa                	je     6e3f <init_optimized_libs+0x9f>
    6e95:	5b                   	pop    %rbx
    6e96:	b8 ff ff ff ff       	mov    $0xffffffff,%eax
    6e9b:	5d                   	pop    %rbp
    6e9c:	41 5c                	pop    %r12
    6e9e:	c3                   	ret    
    6e9f:	90                   	nop
    6ea0:	4c 89 e0             	mov    %r12,%rax
    6ea3:	48 f7 d0             	not    %rax
    6ea6:	a8 e0                	test   $0xe0,%al
    6ea8:	74 ac                	je     6e56 <init_optimized_libs+0xb6>
    6eaa:	48 b8 ff ff ff b6 18 	movabs $0xfffee018b6ffffff,%rax
    6eb1:	e0 fe ff 
    6eb4:	48 21 c3             	and    %rax,%rbx
    6eb7:	eb 9d                	jmp    6e56 <init_optimized_libs+0xb6>
    6eb9:	0f 1f 80 00 00 00 00 	nopl   0x0(%rax)

0000000000006ec0 <sgx_is_within_enclave>:
    6ec0:	f3 0f 1e fa          	endbr64 
    6ec4:	48 8d 05 5d bf 01 00 	lea    0x1bf5d(%rip),%rax        # 22e28 <g_enclave_base>
    6ecb:	48 8b 10             	mov    (%rax),%rdx
    6ece:	48 8d 05 4b bf 01 00 	lea    0x1bf4b(%rip),%rax        # 22e20 <g_enclave_size>
    6ed5:	48 8b 08             	mov    (%rax),%rcx
    6ed8:	48 01 d1             	add    %rdx,%rcx
    6edb:	48 89 c8             	mov    %rcx,%rax
    6ede:	48 83 e8 01          	sub    $0x1,%rax
    6ee2:	48 85 f6             	test   %rsi,%rsi
    6ee5:	74 21                	je     6f08 <sgx_is_within_enclave+0x48>
    6ee7:	48 83 ee 01          	sub    $0x1,%rsi
    6eeb:	48 01 fe             	add    %rdi,%rsi
    6eee:	0f 93 c1             	setae  %cl
    6ef1:	48 39 d7             	cmp    %rdx,%rdi
    6ef4:	0f 93 c2             	setae  %dl
    6ef7:	21 ca                	and    %ecx,%edx
    6ef9:	48 39 f0             	cmp    %rsi,%rax
    6efc:	0f 93 c0             	setae  %al
    6eff:	0f b6 c0             	movzbl %al,%eax
    6f02:	21 d0                	and    %edx,%eax
    6f04:	c3                   	ret    
    6f05:	0f 1f 00             	nopl   (%rax)
    6f08:	48 89 fe             	mov    %rdi,%rsi
    6f0b:	b9 01 00 00 00       	mov    $0x1,%ecx
    6f10:	eb df                	jmp    6ef1 <sgx_is_within_enclave+0x31>
    6f12:	66 2e 0f 1f 84 00 00 	cs nopw 0x0(%rax,%rax,1)
    6f19:	00 00 00 
    6f1c:	0f 1f 40 00          	nopl   0x0(%rax)

0000000000006f20 <sgx_is_outside_enclave>:
    6f20:	f3 0f 1e fa          	endbr64 
    6f24:	48 85 f6             	test   %rsi,%rsi
    6f27:	74 17                	je     6f40 <sgx_is_outside_enclave+0x20>
    6f29:	48 83 ee 01          	sub    $0x1,%rsi
    6f2d:	b8 00 00 00 00       	mov    $0x0,%eax
    6f32:	48 01 fe             	add    %rdi,%rsi
    6f35:	73 0c                	jae    6f43 <sgx_is_outside_enclave+0x23>
    6f37:	c3                   	ret    
    6f38:	0f 1f 84 00 00 00 00 	nopl   0x0(%rax,%rax,1)
    6f3f:	00 
    6f40:	48 89 fe             	mov    %rdi,%rsi
    6f43:	48 8d 05 de be 01 00 	lea    0x1bede(%rip),%rax        # 22e28 <g_enclave_base>
    6f4a:	48 8b 10             	mov    (%rax),%rdx
    6f4d:	48 8d 05 cc be 01 00 	lea    0x1becc(%rip),%rax        # 22e20 <g_enclave_size>
    6f54:	48 8b 08             	mov    (%rax),%rcx
    6f57:	48 01 d1             	add    %rdx,%rcx
    6f5a:	48 89 c8             	mov    %rcx,%rax
    6f5d:	48 83 e8 01          	sub    $0x1,%rax
    6f61:	48 39 f8             	cmp    %rdi,%rax
    6f64:	0f 92 c0             	setb   %al
    6f67:	48 39 d6             	cmp    %rdx,%rsi
    6f6a:	0f 92 c2             	setb   %dl
    6f6d:	09 d0                	or     %edx,%eax
    6f6f:	0f b6 c0             	movzbl %al,%eax
    6f72:	c3                   	ret    
    6f73:	66 2e 0f 1f 84 00 00 	cs nopw 0x0(%rax,%rax,1)
    6f7a:	00 00 00 
    6f7d:	0f 1f 00             	nopl   (%rax)

0000000000006f80 <sgx_ocalloc>:
    6f80:	f3 0f 1e fa          	endbr64 
    6f84:	53                   	push   %rbx
    6f85:	48 89 fb             	mov    %rdi,%rbx
    6f88:	48 83 ec 10          	sub    $0x10,%rsp
    6f8c:	e8 b2 41 01 00       	call   1b143 <get_thread_data>
    6f91:	48 8d 15 90 be 01 00 	lea    0x1be90(%rip),%rdx        # 22e28 <g_enclave_base>
    6f98:	48 8b 70 20          	mov    0x20(%rax),%rsi
    6f9c:	48 8b 3a             	mov    (%rdx),%rdi
    6f9f:	48 8d 15 7a be 01 00 	lea    0x1be7a(%rip),%rdx        # 22e20 <g_enclave_size>
    6fa6:	48 8b 86 90 00 00 00 	mov    0x90(%rsi),%rax
    6fad:	48 8b 0a             	mov    (%rdx),%rcx
    6fb0:	48 89 c2             	mov    %rax,%rdx
    6fb3:	48 83 c2 07          	add    $0x7,%rdx
    6fb7:	72 33                	jb     6fec <sgx_ocalloc+0x6c>
    6fb9:	4c 8d 44 0f ff       	lea    -0x1(%rdi,%rcx,1),%r8
    6fbe:	48 39 fa             	cmp    %rdi,%rdx
    6fc1:	72 05                	jb     6fc8 <sgx_ocalloc+0x48>
    6fc3:	49 39 c0             	cmp    %rax,%r8
    6fc6:	73 24                	jae    6fec <sgx_ocalloc+0x6c>
    6fc8:	48 39 d8             	cmp    %rbx,%rax
    6fcb:	72 1f                	jb     6fec <sgx_ocalloc+0x6c>
    6fcd:	48 89 c2             	mov    %rax,%rdx
    6fd0:	48 29 da             	sub    %rbx,%rdx
    6fd3:	48 89 d1             	mov    %rdx,%rcx
    6fd6:	48 83 e1 f0          	and    $0xfffffffffffffff0,%rcx
    6fda:	48 85 db             	test   %rbx,%rbx
    6fdd:	75 19                	jne    6ff8 <sgx_ocalloc+0x78>
    6fdf:	48 89 cb             	mov    %rcx,%rbx
    6fe2:	48 39 fb             	cmp    %rdi,%rbx
    6fe5:	72 21                	jb     7008 <sgx_ocalloc+0x88>
    6fe7:	49 39 c8             	cmp    %rcx,%r8
    6fea:	72 1c                	jb     7008 <sgx_ocalloc+0x88>
    6fec:	e8 46 45 01 00       	call   1b537 <abort>
    6ff1:	0f 1f 80 00 00 00 00 	nopl   0x0(%rax)
    6ff8:	48 83 eb 01          	sub    $0x1,%rbx
    6ffc:	48 01 cb             	add    %rcx,%rbx
    6fff:	72 eb                	jb     6fec <sgx_ocalloc+0x6c>
    7001:	eb df                	jmp    6fe2 <sgx_ocalloc+0x62>
    7003:	0f 1f 44 00 00       	nopl   0x0(%rax,%rax,1)
    7008:	48 83 e8 01          	sub    $0x1,%rax
    700c:	48 25 00 f0 ff ff    	and    $0xfffffffffffff000,%rax
    7012:	48 81 e2 00 f0 ff ff 	and    $0xfffffffffffff000,%rdx
    7019:	75 1d                	jne    7038 <sgx_ocalloc+0xb8>
    701b:	eb cf                	jmp    6fec <sgx_ocalloc+0x6c>
    701d:	0f 1f 00             	nopl   (%rax)
    7020:	48 8b 44 24 08       	mov    0x8(%rsp),%rax
    7025:	48 8b 44 24 08       	mov    0x8(%rsp),%rax
    702a:	c6 00 00             	movb   $0x0,(%rax)
    702d:	48 8b 44 24 08       	mov    0x8(%rsp),%rax
    7032:	48 2d 00 10 00 00    	sub    $0x1000,%rax
    7038:	48 89 44 24 08       	mov    %rax,0x8(%rsp)
    703d:	48 8b 44 24 08       	mov    0x8(%rsp),%rax
    7042:	48 39 d0             	cmp    %rdx,%rax
    7045:	73 d9                	jae    7020 <sgx_ocalloc+0xa0>
    7047:	48 89 8e 90 00 00 00 	mov    %rcx,0x90(%rsi)
    704e:	48 83 c4 10          	add    $0x10,%rsp
    7052:	48 89 c8             	mov    %rcx,%rax
    7055:	5b                   	pop    %rbx
    7056:	c3                   	ret    
    7057:	66 0f 1f 84 00 00 00 	nopw   0x0(%rax,%rax,1)
    705e:	00 00 

0000000000007060 <sgx_ocfree>:
    7060:	f3 0f 1e fa          	endbr64 
    7064:	48 83 ec 08          	sub    $0x8,%rsp
    7068:	e8 d6 40 01 00       	call   1b143 <get_thread_data>
    706d:	48 8d 15 b4 bd 01 00 	lea    0x1bdb4(%rip),%rdx        # 22e28 <g_enclave_base>
    7074:	48 8d 0d a5 bd 01 00 	lea    0x1bda5(%rip),%rcx        # 22e20 <g_enclave_size>
    707b:	48 8b 70 20          	mov    0x20(%rax),%rsi
    707f:	48 8b 40 08          	mov    0x8(%rax),%rax
    7083:	48 8b 12             	mov    (%rdx),%rdx
    7086:	48 8b 09             	mov    (%rcx),%rcx
    7089:	48 8b 40 e8          	mov    -0x18(%rax),%rax
    708d:	48 89 c7             	mov    %rax,%rdi
    7090:	48 83 c7 07          	add    $0x7,%rdi
    7094:	72 0f                	jb     70a5 <sgx_ocfree+0x45>
    7096:	48 8d 4c 0a ff       	lea    -0x1(%rdx,%rcx,1),%rcx
    709b:	48 39 c1             	cmp    %rax,%rcx
    709e:	72 10                	jb     70b0 <sgx_ocfree+0x50>
    70a0:	48 39 d7             	cmp    %rdx,%rdi
    70a3:	72 0b                	jb     70b0 <sgx_ocfree+0x50>
    70a5:	e8 8d 44 01 00       	call   1b537 <abort>
    70aa:	66 0f 1f 44 00 00    	nopw   0x0(%rax,%rax,1)
    70b0:	48 89 86 90 00 00 00 	mov    %rax,0x90(%rsi)
    70b7:	48 83 c4 08          	add    $0x8,%rsp
    70bb:	c3                   	ret    
    70bc:	0f 1f 40 00          	nopl   0x0(%rax)

00000000000070c0 <sgx_read_rand>:
    70c0:	f3 0f 1e fa          	endbr64 
    70c4:	41 55                	push   %r13
    70c6:	41 54                	push   %r12
    70c8:	55                   	push   %rbp
    70c9:	53                   	push   %rbx
    70ca:	48 83 ec 18          	sub    $0x18,%rsp
    70ce:	64 48 8b 04 25 28 00 	mov    %fs:0x28,%rax
    70d5:	00 00 
    70d7:	48 89 44 24 08       	mov    %rax,0x8(%rsp)
    70dc:	31 c0                	xor    %eax,%eax
    70de:	48 85 ff             	test   %rdi,%rdi
    70e1:	0f 84 f9 00 00 00    	je     71e0 <sgx_read_rand+0x120>
    70e7:	48 89 f3             	mov    %rsi,%rbx
    70ea:	48 85 f6             	test   %rsi,%rsi
    70ed:	0f 84 ed 00 00 00    	je     71e0 <sgx_read_rand+0x120>
    70f3:	48 8d 05 2e bd 01 00 	lea    0x1bd2e(%rip),%rax        # 22e28 <g_enclave_base>
    70fa:	48 89 fd             	mov    %rdi,%rbp
    70fd:	31 ff                	xor    %edi,%edi
    70ff:	48 8b 08             	mov    (%rax),%rcx
    7102:	48 8d 05 17 bd 01 00 	lea    0x1bd17(%rip),%rax        # 22e20 <g_enclave_size>
    7109:	48 8b 10             	mov    (%rax),%rdx
    710c:	48 8d 46 ff          	lea    -0x1(%rsi),%rax
    7110:	48 01 ca             	add    %rcx,%rdx
    7113:	48 83 ea 01          	sub    $0x1,%rdx
    7117:	48 01 e8             	add    %rbp,%rax
    711a:	40 0f 92 c7          	setb   %dil
    711e:	48 39 c2             	cmp    %rax,%rdx
    7121:	41 0f 93 c0          	setae  %r8b
    7125:	48 85 ff             	test   %rdi,%rdi
    7128:	40 0f 94 c6          	sete   %sil
    712c:	41 84 f0             	test   %sil,%r8b
    712f:	74 05                	je     7136 <sgx_read_rand+0x76>
    7131:	48 39 cd             	cmp    %rcx,%rbp
    7134:	73 42                	jae    7178 <sgx_read_rand+0xb8>
    7136:	be 02 00 00 00       	mov    $0x2,%esi
    713b:	48 85 ff             	test   %rdi,%rdi
    713e:	74 28                	je     7168 <sgx_read_rand+0xa8>
    7140:	48 8b 44 24 08       	mov    0x8(%rsp),%rax
    7145:	64 48 2b 04 25 28 00 	sub    %fs:0x28,%rax
    714c:	00 00 
    714e:	0f 85 96 00 00 00    	jne    71ea <sgx_read_rand+0x12a>
    7154:	48 83 c4 18          	add    $0x18,%rsp
    7158:	89 f0                	mov    %esi,%eax
    715a:	5b                   	pop    %rbx
    715b:	5d                   	pop    %rbp
    715c:	41 5c                	pop    %r12
    715e:	41 5d                	pop    %r13
    7160:	c3                   	ret    
    7161:	0f 1f 80 00 00 00 00 	nopl   0x0(%rax)
    7168:	48 39 c8             	cmp    %rcx,%rax
    716b:	72 0b                	jb     7178 <sgx_read_rand+0xb8>
    716d:	48 39 d5             	cmp    %rdx,%rbp
    7170:	76 ce                	jbe    7140 <sgx_read_rand+0x80>
    7172:	66 0f 1f 44 00 00    	nopw   0x0(%rax,%rax,1)
    7178:	c7 44 24 04 00 00 00 	movl   $0x0,0x4(%rsp)
    717f:	00 
    7180:	4c 8d 6c 24 04       	lea    0x4(%rsp),%r13
    7185:	4c 89 ef             	mov    %r13,%rdi
    7188:	e8 87 43 01 00       	call   1b514 <do_rdrand>
    718d:	85 c0                	test   %eax,%eax
    718f:	74 3f                	je     71d0 <sgx_read_rand+0x110>
    7191:	41 bc 04 00 00 00    	mov    $0x4,%r12d
    7197:	48 89 ef             	mov    %rbp,%rdi
    719a:	4c 89 ee             	mov    %r13,%rsi
    719d:	4c 39 e3             	cmp    %r12,%rbx
    71a0:	4c 0f 46 e3          	cmovbe %rbx,%r12
    71a4:	4c 89 e2             	mov    %r12,%rdx
    71a7:	4c 01 e5             	add    %r12,%rbp
    71aa:	e8 01 a9 00 00       	call   11ab0 <memcpy>
    71af:	4c 29 e3             	sub    %r12,%rbx
    71b2:	75 d1                	jne    7185 <sgx_read_rand+0xc5>
    71b4:	be 04 00 00 00       	mov    $0x4,%esi
    71b9:	b9 04 00 00 00       	mov    $0x4,%ecx
    71be:	31 d2                	xor    %edx,%edx
    71c0:	4c 89 ef             	mov    %r13,%rdi
    71c3:	e8 38 ab 00 00       	call   11d00 <memset_s>
    71c8:	31 f6                	xor    %esi,%esi
    71ca:	e9 71 ff ff ff       	jmp    7140 <sgx_read_rand+0x80>
    71cf:	90                   	nop
    71d0:	be 01 00 00 00       	mov    $0x1,%esi
    71d5:	e9 66 ff ff ff       	jmp    7140 <sgx_read_rand+0x80>
    71da:	66 0f 1f 44 00 00    	nopw   0x0(%rax,%rax,1)
    71e0:	be 02 00 00 00       	mov    $0x2,%esi
    71e5:	e9 56 ff ff ff       	jmp    7140 <sgx_read_rand+0x80>
    71ea:	e8 51 ac 00 00       	call   11e40 <__stack_chk_fail>
    71ef:	90                   	nop

00000000000071f0 <check_static_stack_canary>:
    71f0:	f3 0f 1e fa          	endbr64 
    71f4:	48 8d 05 15 bc 01 00 	lea    0x1bc15(%rip),%rax        # 22e10 <__intel_security_cookie>
    71fb:	48 8b 00             	mov    (%rax),%rax
    71fe:	48 39 87 08 fc fe ff 	cmp    %rax,-0x103f8(%rdi)
    7205:	0f 95 c0             	setne  %al
    7208:	0f b6 c0             	movzbl %al,%eax
    720b:	f7 d8                	neg    %eax
    720d:	c3                   	ret    
    720e:	66 90                	xchg   %ax,%ax

0000000000007210 <sgx_rdpkru>:
    7210:	f3 0f 1e fa          	endbr64 
    7214:	53                   	push   %rbx
    7215:	48 89 fb             	mov    %rdi,%rbx
    7218:	e8 63 18 00 00       	call   8a80 <is_pkru_enabled>
    721d:	89 c2                	mov    %eax,%edx
    721f:	31 c0                	xor    %eax,%eax
    7221:	84 d2                	test   %dl,%dl
    7223:	74 0c                	je     7231 <sgx_rdpkru+0x21>
    7225:	89 c1                	mov    %eax,%ecx
    7227:	0f 01 ee             	rdpkru 
    722a:	89 03                	mov    %eax,(%rbx)
    722c:	b8 01 00 00 00       	mov    $0x1,%eax
    7231:	5b                   	pop    %rbx
    7232:	c3                   	ret    
    7233:	66 2e 0f 1f 84 00 00 	cs nopw 0x0(%rax,%rax,1)
    723a:	00 00 00 
    723d:	0f 1f 00             	nopl   (%rax)

0000000000007240 <sgx_wrpkru>:
    7240:	f3 0f 1e fa          	endbr64 
    7244:	53                   	push   %rbx
    7245:	89 fb                	mov    %edi,%ebx
    7247:	e8 34 18 00 00       	call   8a80 <is_pkru_enabled>
    724c:	31 d2                	xor    %edx,%edx
    724e:	84 c0                	test   %al,%al
    7250:	74 0c                	je     725e <sgx_wrpkru+0x1e>
    7252:	89 d8                	mov    %ebx,%eax
    7254:	89 d1                	mov    %edx,%ecx
    7256:	0f 01 ef             	wrpkru 
    7259:	ba 01 00 00 00       	mov    $0x1,%edx
    725e:	89 d0                	mov    %edx,%eax
    7260:	5b                   	pop    %rbx
    7261:	c3                   	ret    
    7262:	66 2e 0f 1f 84 00 00 	cs nopw 0x0(%rax,%rax,1)
    7269:	00 00 00 
    726c:	0f 1f 40 00          	nopl   0x0(%rax)

0000000000007270 <_ZL25check_dynamic_entry_rangePvmtmP24dynamic_flags_attributes.constprop.0>:
    7270:	41 55                	push   %r13
    7272:	49 89 cd             	mov    %rcx,%r13
    7275:	41 54                	push   %r12
    7277:	55                   	push   %rbp
    7278:	53                   	push   %rbx
    7279:	48 83 ec 08          	sub    $0x8,%rsp
    727d:	48 8d 0d fc 5d 01 00 	lea    0x15dfc(%rip),%rcx        # 1d080 <g_global_data>
    7284:	8b 81 58 01 00 00    	mov    0x158(%rcx),%eax
    728a:	85 c0                	test   %eax,%eax
    728c:	0f 84 8e 00 00 00    	je     7320 <_ZL25check_dynamic_entry_rangePvmtmP24dynamic_flags_attributes.constprop.0+0xb0>
    7292:	48 89 d3             	mov    %rdx,%rbx
    7295:	49 89 fc             	mov    %rdi,%r12
    7298:	31 d2                	xor    %edx,%edx
    729a:	eb 11                	jmp    72ad <_ZL25check_dynamic_entry_rangePvmtmP24dynamic_flags_attributes.constprop.0+0x3d>
    729c:	0f 1f 40 00          	nopl   0x0(%rax)
    72a0:	8b 81 58 01 00 00    	mov    0x158(%rcx),%eax
    72a6:	83 c2 01             	add    $0x1,%edx
    72a9:	39 c2                	cmp    %eax,%edx
    72ab:	73 73                	jae    7320 <_ZL25check_dynamic_entry_rangePvmtmP24dynamic_flags_attributes.constprop.0+0xb0>
    72ad:	89 d0                	mov    %edx,%eax
    72af:	48 83 c0 0b          	add    $0xb,%rax
    72b3:	48 c1 e0 05          	shl    $0x5,%rax
    72b7:	48 01 c8             	add    %rcx,%rax
    72ba:	0f b7 00             	movzwl (%rax),%eax
    72bd:	66 39 c6             	cmp    %ax,%si
    72c0:	75 de                	jne    72a0 <_ZL25check_dynamic_entry_rangePvmtmP24dynamic_flags_attributes.constprop.0+0x30>
    72c2:	8d 42 0b             	lea    0xb(%rdx),%eax
    72c5:	48 c1 e0 05          	shl    $0x5,%rax
    72c9:	48 01 c1             	add    %rax,%rcx
    72cc:	48 89 cd             	mov    %rcx,%rbp
    72cf:	74 4f                	je     7320 <_ZL25check_dynamic_entry_rangePvmtmP24dynamic_flags_attributes.constprop.0+0xb0>
    72d1:	e8 22 3e 01 00       	call   1b0f8 <get_enclave_base>
    72d6:	48 8b 55 08          	mov    0x8(%rbp),%rdx
    72da:	48 01 da             	add    %rbx,%rdx
    72dd:	48 01 d0             	add    %rdx,%rax
    72e0:	8b 55 04             	mov    0x4(%rbp),%edx
    72e3:	49 39 c4             	cmp    %rax,%r12
    72e6:	72 38                	jb     7320 <_ZL25check_dynamic_entry_rangePvmtmP24dynamic_flags_attributes.constprop.0+0xb0>
    72e8:	48 c1 e2 0c          	shl    $0xc,%rdx
    72ec:	49 81 c4 00 10 00 00 	add    $0x1000,%r12
    72f3:	48 01 c2             	add    %rax,%rdx
    72f6:	4c 39 e2             	cmp    %r12,%rdx
    72f9:	72 25                	jb     7320 <_ZL25check_dynamic_entry_rangePvmtmP24dynamic_flags_attributes.constprop.0+0xb0>
    72fb:	4d 85 ed             	test   %r13,%r13
    72fe:	74 11                	je     7311 <_ZL25check_dynamic_entry_rangePvmtmP24dynamic_flags_attributes.constprop.0+0xa1>
    7300:	48 8b 45 18          	mov    0x18(%rbp),%rax
    7304:	49 89 45 00          	mov    %rax,0x0(%r13)
    7308:	0f b7 45 02          	movzwl 0x2(%rbp),%eax
    730c:	66 41 89 45 08       	mov    %ax,0x8(%r13)
    7311:	31 c0                	xor    %eax,%eax
    7313:	48 83 c4 08          	add    $0x8,%rsp
    7317:	5b                   	pop    %rbx
    7318:	5d                   	pop    %rbp
    7319:	41 5c                	pop    %r12
    731b:	41 5d                	pop    %r13
    731d:	c3                   	ret    
    731e:	66 90                	xchg   %ax,%ax
    7320:	b8 ff ff ff ff       	mov    $0xffffffff,%eax
    7325:	eb ec                	jmp    7313 <_ZL25check_dynamic_entry_rangePvmtmP24dynamic_flags_attributes.constprop.0+0xa3>
    7327:	66 0f 1f 84 00 00 00 	nopw   0x0(%rax,%rax,1)
    732e:	00 00 

0000000000007330 <_ZL19check_dynamic_rangePvmPmP24dynamic_flags_attributes.constprop.0>:
    7330:	48 81 ff ff ef ff ff 	cmp    $0xffffffffffffefff,%rdi
    7337:	0f 87 c3 01 00 00    	ja     7500 <_ZL19check_dynamic_rangePvmPmP24dynamic_flags_attributes.constprop.0+0x1d0>
    733d:	41 57                	push   %r15
    733f:	41 56                	push   %r14
    7341:	41 55                	push   %r13
    7343:	41 54                	push   %r12
    7345:	49 89 f4             	mov    %rsi,%r12
    7348:	55                   	push   %rbp
    7349:	48 89 d5             	mov    %rdx,%rbp
    734c:	53                   	push   %rbx
    734d:	48 89 fb             	mov    %rdi,%rbx
    7350:	48 83 ec 08          	sub    $0x8,%rsp
    7354:	e8 87 13 00 00       	call   86e0 <get_heap_base>
    7359:	49 89 c5             	mov    %rax,%r13
    735c:	e8 0f 14 00 00       	call   8770 <get_heap_min_size>
    7361:	49 01 c5             	add    %rax,%r13
    7364:	e8 97 13 00 00       	call   8700 <get_heap_size>
    7369:	49 89 c6             	mov    %rax,%r14
    736c:	e8 ff 13 00 00       	call   8770 <get_heap_min_size>
    7371:	49 29 c6             	sub    %rax,%r14
    7374:	4c 39 eb             	cmp    %r13,%rbx
    7377:	72 37                	jb     73b0 <_ZL19check_dynamic_rangePvmPmP24dynamic_flags_attributes.constprop.0+0x80>
    7379:	48 8d 83 00 10 00 00 	lea    0x1000(%rbx),%rax
    7380:	4d 01 f5             	add    %r14,%r13
    7383:	49 39 c5             	cmp    %rax,%r13
    7386:	72 28                	jb     73b0 <_ZL19check_dynamic_rangePvmPmP24dynamic_flags_attributes.constprop.0+0x80>
    7388:	48 85 ed             	test   %rbp,%rbp
    738b:	74 11                	je     739e <_ZL19check_dynamic_rangePvmPmP24dynamic_flags_attributes.constprop.0+0x6e>
    738d:	b8 08 00 00 00       	mov    $0x8,%eax
    7392:	48 c7 45 00 03 02 00 	movq   $0x203,0x0(%rbp)
    7399:	00 
    739a:	66 89 45 08          	mov    %ax,0x8(%rbp)
    739e:	31 c0                	xor    %eax,%eax
    73a0:	48 83 c4 08          	add    $0x8,%rsp
    73a4:	5b                   	pop    %rbx
    73a5:	5d                   	pop    %rbp
    73a6:	41 5c                	pop    %r12
    73a8:	41 5d                	pop    %r13
    73aa:	41 5e                	pop    %r14
    73ac:	41 5f                	pop    %r15
    73ae:	c3                   	ret    
    73af:	90                   	nop
    73b0:	31 d2                	xor    %edx,%edx
    73b2:	48 89 e9             	mov    %rbp,%rcx
    73b5:	be 07 00 00 00       	mov    $0x7,%esi
    73ba:	48 89 df             	mov    %rbx,%rdi
    73bd:	e8 ae fe ff ff       	call   7270 <_ZL25check_dynamic_entry_rangePvmtmP24dynamic_flags_attributes.constprop.0>
    73c2:	85 c0                	test   %eax,%eax
    73c4:	74 d8                	je     739e <_ZL19check_dynamic_rangePvmPmP24dynamic_flags_attributes.constprop.0+0x6e>
    73c6:	48 8d 15 a3 ba 01 00 	lea    0x1baa3(%rip),%rdx        # 22e70 <rsrv_mem_size>
    73cd:	48 8d 05 a4 ba 01 00 	lea    0x1baa4(%rip),%rax        # 22e78 <rsrv_mem_base>
    73d4:	48 8b 0a             	mov    (%rdx),%rcx
    73d7:	48 8d 15 8a ba 01 00 	lea    0x1ba8a(%rip),%rdx        # 22e68 <rsrv_mem_min_size>
    73de:	48 8b 00             	mov    (%rax),%rax
    73e1:	48 8b 32             	mov    (%rdx),%rsi
    73e4:	48 01 c6             	add    %rax,%rsi
    73e7:	48 39 f3             	cmp    %rsi,%rbx
    73ea:	72 0f                	jb     73fb <_ZL19check_dynamic_rangePvmPmP24dynamic_flags_attributes.constprop.0+0xcb>
    73ec:	48 8d 93 00 10 00 00 	lea    0x1000(%rbx),%rdx
    73f3:	48 01 c8             	add    %rcx,%rax
    73f6:	48 39 d0             	cmp    %rdx,%rax
    73f9:	73 8d                	jae    7388 <_ZL19check_dynamic_rangePvmPmP24dynamic_flags_attributes.constprop.0+0x58>
    73fb:	48 8d 0d 7e 5c 01 00 	lea    0x15c7e(%rip),%rcx        # 1d080 <g_global_data>
    7402:	31 d2                	xor    %edx,%edx
    7404:	8b 81 58 01 00 00    	mov    0x158(%rcx),%eax
    740a:	85 c0                	test   %eax,%eax
    740c:	74 25                	je     7433 <_ZL19check_dynamic_rangePvmPmP24dynamic_flags_attributes.constprop.0+0x103>
    740e:	66 90                	xchg   %ax,%ax
    7410:	89 d0                	mov    %edx,%eax
    7412:	48 83 c0 0b          	add    $0xb,%rax
    7416:	48 c1 e0 05          	shl    $0x5,%rax
    741a:	48 01 c8             	add    %rcx,%rax
    741d:	0f b7 00             	movzwl (%rax),%eax
    7420:	66 3d 13 10          	cmp    $0x1013,%ax
    7424:	74 42                	je     7468 <_ZL19check_dynamic_rangePvmPmP24dynamic_flags_attributes.constprop.0+0x138>
    7426:	8b 81 58 01 00 00    	mov    0x158(%rcx),%eax
    742c:	83 c2 01             	add    $0x1,%edx
    742f:	39 c2                	cmp    %eax,%edx
    7431:	72 dd                	jb     7410 <_ZL19check_dynamic_rangePvmPmP24dynamic_flags_attributes.constprop.0+0xe0>
    7433:	41 bd 0e 00 00 00    	mov    $0xe,%r13d
    7439:	31 d2                	xor    %edx,%edx
    743b:	48 89 e9             	mov    %rbp,%rcx
    743e:	44 89 ee             	mov    %r13d,%esi
    7441:	48 89 df             	mov    %rbx,%rdi
    7444:	e8 27 fe ff ff       	call   7270 <_ZL25check_dynamic_entry_rangePvmtmP24dynamic_flags_attributes.constprop.0>
    7449:	85 c0                	test   %eax,%eax
    744b:	0f 84 96 00 00 00    	je     74e7 <_ZL19check_dynamic_rangePvmPmP24dynamic_flags_attributes.constprop.0+0x1b7>
    7451:	41 83 c5 01          	add    $0x1,%r13d
    7455:	41 83 fd 13          	cmp    $0x13,%r13d
    7459:	75 de                	jne    7439 <_ZL19check_dynamic_rangePvmPmP24dynamic_flags_attributes.constprop.0+0x109>
    745b:	b8 ff ff ff ff       	mov    $0xffffffff,%eax
    7460:	e9 3b ff ff ff       	jmp    73a0 <_ZL19check_dynamic_rangePvmPmP24dynamic_flags_attributes.constprop.0+0x70>
    7465:	0f 1f 00             	nopl   (%rax)
    7468:	8d 42 0b             	lea    0xb(%rdx),%eax
    746b:	41 bd 0e 00 00 00    	mov    $0xe,%r13d
    7471:	48 c1 e0 05          	shl    $0x5,%rax
    7475:	48 01 c1             	add    %rax,%rcx
    7478:	49 89 ce             	mov    %rcx,%r14
    747b:	74 bc                	je     7439 <_ZL19check_dynamic_rangePvmPmP24dynamic_flags_attributes.constprop.0+0x109>
    747d:	41 8b 46 04          	mov    0x4(%r14),%eax
    7481:	45 31 ff             	xor    %r15d,%r15d
    7484:	83 f8 ff             	cmp    $0xffffffff,%eax
    7487:	75 17                	jne    74a0 <_ZL19check_dynamic_rangePvmPmP24dynamic_flags_attributes.constprop.0+0x170>
    7489:	eb 4d                	jmp    74d8 <_ZL19check_dynamic_rangePvmPmP24dynamic_flags_attributes.constprop.0+0x1a8>
    748b:	0f 1f 44 00 00       	nopl   0x0(%rax,%rax,1)
    7490:	41 8b 46 04          	mov    0x4(%r14),%eax
    7494:	49 83 c7 01          	add    $0x1,%r15
    7498:	83 c0 01             	add    $0x1,%eax
    749b:	41 39 c7             	cmp    %eax,%r15d
    749e:	73 38                	jae    74d8 <_ZL19check_dynamic_rangePvmPmP24dynamic_flags_attributes.constprop.0+0x1a8>
    74a0:	49 8b 56 08          	mov    0x8(%r14),%rdx
    74a4:	48 89 e9             	mov    %rbp,%rcx
    74a7:	44 89 ee             	mov    %r13d,%esi
    74aa:	48 89 df             	mov    %rbx,%rdi
    74ad:	49 0f af d7          	imul   %r15,%rdx
    74b1:	e8 ba fd ff ff       	call   7270 <_ZL25check_dynamic_entry_rangePvmtmP24dynamic_flags_attributes.constprop.0>
    74b6:	85 c0                	test   %eax,%eax
    74b8:	75 d6                	jne    7490 <_ZL19check_dynamic_rangePvmPmP24dynamic_flags_attributes.constprop.0+0x160>
    74ba:	4d 85 e4             	test   %r12,%r12
    74bd:	0f 84 db fe ff ff    	je     739e <_ZL19check_dynamic_rangePvmPmP24dynamic_flags_attributes.constprop.0+0x6e>
    74c3:	49 8b 46 08          	mov    0x8(%r14),%rax
    74c7:	49 0f af c7          	imul   %r15,%rax
    74cb:	49 89 04 24          	mov    %rax,(%r12)
    74cf:	e9 ca fe ff ff       	jmp    739e <_ZL19check_dynamic_rangePvmPmP24dynamic_flags_attributes.constprop.0+0x6e>
    74d4:	0f 1f 40 00          	nopl   0x0(%rax)
    74d8:	41 83 c5 01          	add    $0x1,%r13d
    74dc:	41 83 fd 13          	cmp    $0x13,%r13d
    74e0:	75 9b                	jne    747d <_ZL19check_dynamic_rangePvmPmP24dynamic_flags_attributes.constprop.0+0x14d>
    74e2:	e9 74 ff ff ff       	jmp    745b <_ZL19check_dynamic_rangePvmPmP24dynamic_flags_attributes.constprop.0+0x12b>
    74e7:	4d 85 e4             	test   %r12,%r12
    74ea:	0f 84 ae fe ff ff    	je     739e <_ZL19check_dynamic_rangePvmPmP24dynamic_flags_attributes.constprop.0+0x6e>
    74f0:	49 c7 04 24 00 00 00 	movq   $0x0,(%r12)
    74f7:	00 
    74f8:	e9 a1 fe ff ff       	jmp    739e <_ZL19check_dynamic_rangePvmPmP24dynamic_flags_attributes.constprop.0+0x6e>
    74fd:	0f 1f 00             	nopl   (%rax)
    7500:	b8 ff ff ff ff       	mov    $0xffffffff,%eax
    7505:	c3                   	ret    
    7506:	66 2e 0f 1f 84 00 00 	cs nopw 0x0(%rax,%rax,1)
    750d:	00 00 00 

0000000000007510 <_Z24get_dynamic_layout_by_idt>:
    7510:	f3 0f 1e fa          	endbr64 
    7514:	48 8d 05 65 5b 01 00 	lea    0x15b65(%rip),%rax        # 1d080 <g_global_data>
    751b:	8b 90 58 01 00 00    	mov    0x158(%rax),%edx
    7521:	85 d2                	test   %edx,%edx
    7523:	74 3b                	je     7560 <_Z24get_dynamic_layout_by_idt+0x50>
    7525:	31 c9                	xor    %ecx,%ecx
    7527:	eb 14                	jmp    753d <_Z24get_dynamic_layout_by_idt+0x2d>
    7529:	0f 1f 80 00 00 00 00 	nopl   0x0(%rax)
    7530:	8b 90 58 01 00 00    	mov    0x158(%rax),%edx
    7536:	83 c1 01             	add    $0x1,%ecx
    7539:	39 d1                	cmp    %edx,%ecx
    753b:	73 23                	jae    7560 <_Z24get_dynamic_layout_by_idt+0x50>
    753d:	89 ca                	mov    %ecx,%edx
    753f:	48 83 c2 0b          	add    $0xb,%rdx
    7543:	48 c1 e2 05          	shl    $0x5,%rdx
    7547:	48 01 c2             	add    %rax,%rdx
    754a:	0f b7 12             	movzwl (%rdx),%edx
    754d:	66 39 fa             	cmp    %di,%dx
    7550:	75 de                	jne    7530 <_Z24get_dynamic_layout_by_idt+0x20>
    7552:	8d 51 0b             	lea    0xb(%rcx),%edx
    7555:	48 c1 e2 05          	shl    $0x5,%rdx
    7559:	48 01 d0             	add    %rdx,%rax
    755c:	c3                   	ret    
    755d:	0f 1f 00             	nopl   (%rax)
    7560:	31 c0                	xor    %eax,%eax
    7562:	c3                   	ret    
    7563:	66 2e 0f 1f 84 00 00 	cs nopw 0x0(%rax,%rax,1)
    756a:	00 00 00 
    756d:	0f 1f 00             	nopl   (%rax)

0000000000007570 <is_dynamic_thread>:
    7570:	f3 0f 1e fa          	endbr64 
    7574:	48 83 ec 28          	sub    $0x28,%rsp
    7578:	64 48 8b 04 25 28 00 	mov    %fs:0x28,%rax
    757f:	00 00 
    7581:	48 89 44 24 18       	mov    %rax,0x18(%rsp)
    7586:	31 c0                	xor    %eax,%eax
    7588:	48 85 ff             	test   %rdi,%rdi
    758b:	74 0e                	je     759b <is_dynamic_thread+0x2b>
    758d:	31 f6                	xor    %esi,%esi
    758f:	48 89 e2             	mov    %rsp,%rdx
    7592:	e8 99 fd ff ff       	call   7330 <_ZL19check_dynamic_rangePvmPmP24dynamic_flags_attributes.constprop.0>
    7597:	85 c0                	test   %eax,%eax
    7599:	74 1d                	je     75b8 <is_dynamic_thread+0x48>
    759b:	31 c0                	xor    %eax,%eax
    759d:	48 8b 54 24 18       	mov    0x18(%rsp),%rdx
    75a2:	64 48 2b 14 25 28 00 	sub    %fs:0x28,%rdx
    75a9:	00 00 
    75ab:	75 1a                	jne    75c7 <is_dynamic_thread+0x57>
    75ad:	48 83 c4 28          	add    $0x28,%rsp
    75b1:	c3                   	ret    
    75b2:	66 0f 1f 44 00 00    	nopw   0x0(%rax,%rax,1)
    75b8:	31 c0                	xor    %eax,%eax
    75ba:	48 81 3c 24 00 01 00 	cmpq   $0x100,(%rsp)
    75c1:	00 
    75c2:	0f 94 c0             	sete   %al
    75c5:	eb d6                	jmp    759d <is_dynamic_thread+0x2d>
    75c7:	e8 74 a8 00 00       	call   11e40 <__stack_chk_fail>
    75cc:	0f 1f 40 00          	nopl   0x0(%rax)

00000000000075d0 <is_dynamic_thread_exist>:
    75d0:	f3 0f 1e fa          	endbr64 
    75d4:	48 8d 05 59 b8 01 00 	lea    0x1b859(%rip),%rax        # 22e34 <EDMM_supported>
    75db:	8b 00                	mov    (%rax),%eax
    75dd:	85 c0                	test   %eax,%eax
    75df:	74 59                	je     763a <is_dynamic_thread_exist+0x6a>
    75e1:	48 8d 0d 98 5a 01 00 	lea    0x15a98(%rip),%rcx        # 1d080 <g_global_data>
    75e8:	8b 81 58 01 00 00    	mov    0x158(%rcx),%eax
    75ee:	85 c0                	test   %eax,%eax
    75f0:	74 46                	je     7638 <is_dynamic_thread_exist+0x68>
    75f2:	31 d2                	xor    %edx,%edx
    75f4:	eb 17                	jmp    760d <is_dynamic_thread_exist+0x3d>
    75f6:	66 2e 0f 1f 84 00 00 	cs nopw 0x0(%rax,%rax,1)
    75fd:	00 00 00 
    7600:	8b 81 58 01 00 00    	mov    0x158(%rcx),%eax
    7606:	83 c2 01             	add    $0x1,%edx
    7609:	39 c2                	cmp    %eax,%edx
    760b:	73 2b                	jae    7638 <is_dynamic_thread_exist+0x68>
    760d:	89 d0                	mov    %edx,%eax
    760f:	48 83 c0 0b          	add    $0xb,%rax
    7613:	48 c1 e0 05          	shl    $0x5,%rax
    7617:	48 01 c8             	add    %rcx,%rax
    761a:	0f b7 00             	movzwl (%rax),%eax
    761d:	66 83 f8 12          	cmp    $0x12,%ax
    7621:	75 dd                	jne    7600 <is_dynamic_thread_exist+0x30>
    7623:	8d 42 0b             	lea    0xb(%rdx),%eax
    7626:	48 c1 e0 05          	shl    $0x5,%rax
    762a:	48 01 c1             	add    %rax,%rcx
    762d:	0f 95 c0             	setne  %al
    7630:	0f b6 c0             	movzbl %al,%eax
    7633:	c3                   	ret    
    7634:	0f 1f 40 00          	nopl   0x0(%rax)
    7638:	31 c0                	xor    %eax,%eax
    763a:	c3                   	ret    
    763b:	0f 1f 44 00 00       	nopl   0x0(%rax,%rax,1)

0000000000007640 <get_dynamic_stack_max_page>:
    7640:	f3 0f 1e fa          	endbr64 
    7644:	48 8d 0d 35 5a 01 00 	lea    0x15a35(%rip),%rcx        # 1d080 <g_global_data>
    764b:	8b 81 58 01 00 00    	mov    0x158(%rcx),%eax
    7651:	85 c0                	test   %eax,%eax
    7653:	74 45                	je     769a <get_dynamic_stack_max_page+0x5a>
    7655:	31 d2                	xor    %edx,%edx
    7657:	eb 14                	jmp    766d <get_dynamic_stack_max_page+0x2d>
    7659:	0f 1f 80 00 00 00 00 	nopl   0x0(%rax)
    7660:	8b 81 58 01 00 00    	mov    0x158(%rcx),%eax
    7666:	83 c2 01             	add    $0x1,%edx
    7669:	39 c2                	cmp    %eax,%edx
    766b:	73 2b                	jae    7698 <get_dynamic_stack_max_page+0x58>
    766d:	89 d0                	mov    %edx,%eax
    766f:	48 83 c0 0b          	add    $0xb,%rax
    7673:	48 c1 e0 05          	shl    $0x5,%rax
    7677:	48 01 c8             	add    %rcx,%rax
    767a:	0f b7 00             	movzwl (%rax),%eax
    767d:	66 83 f8 07          	cmp    $0x7,%ax
    7681:	75 dd                	jne    7660 <get_dynamic_stack_max_page+0x20>
    7683:	8d 42 0b             	lea    0xb(%rdx),%eax
    7686:	48 c1 e0 05          	shl    $0x5,%rax
    768a:	48 01 c1             	add    %rax,%rcx
    768d:	74 09                	je     7698 <get_dynamic_stack_max_page+0x58>
    768f:	8b 41 04             	mov    0x4(%rcx),%eax
    7692:	c3                   	ret    
    7693:	0f 1f 44 00 00       	nopl   0x0(%rax,%rax,1)
    7698:	31 c0                	xor    %eax,%eax
    769a:	c3                   	ret    
    769b:	0f 1f 44 00 00       	nopl   0x0(%rax,%rax,1)

00000000000076a0 <do_add_thread>:
    76a0:	f3 0f 1e fa          	endbr64 
    76a4:	41 56                	push   %r14
    76a6:	41 55                	push   %r13
    76a8:	41 54                	push   %r12
    76aa:	55                   	push   %rbp
    76ab:	53                   	push   %rbx
    76ac:	48 89 fb             	mov    %rdi,%rbx
    76af:	48 83 ec 10          	sub    $0x10,%rsp
    76b3:	64 48 8b 04 25 28 00 	mov    %fs:0x28,%rax
    76ba:	00 00 
    76bc:	48 89 44 24 08       	mov    %rax,0x8(%rsp)
    76c1:	31 c0                	xor    %eax,%eax
    76c3:	48 c7 04 24 00 00 00 	movq   $0x0,(%rsp)
    76ca:	00 
    76cb:	e8 28 3a 01 00       	call   1b0f8 <get_enclave_base>
    76d0:	31 d2                	xor    %edx,%edx
    76d2:	48 89 e6             	mov    %rsp,%rsi
    76d5:	48 89 df             	mov    %rbx,%rdi
    76d8:	48 89 c5             	mov    %rax,%rbp
    76db:	e8 50 fc ff ff       	call   7330 <_ZL19check_dynamic_rangePvmPmP24dynamic_flags_attributes.constprop.0>
    76e0:	85 c0                	test   %eax,%eax
    76e2:	75 62                	jne    7746 <do_add_thread+0xa6>
    76e4:	4c 8d 25 95 59 01 00 	lea    0x15995(%rip),%r12        # 1d080 <g_global_data>
    76eb:	41 8b 84 24 58 01 00 	mov    0x158(%r12),%eax
    76f2:	00 
    76f3:	85 c0                	test   %eax,%eax
    76f5:	74 4f                	je     7746 <do_add_thread+0xa6>
    76f7:	31 d2                	xor    %edx,%edx
    76f9:	eb 14                	jmp    770f <do_add_thread+0x6f>
    76fb:	0f 1f 44 00 00       	nopl   0x0(%rax,%rax,1)
    7700:	41 8b 84 24 58 01 00 	mov    0x158(%r12),%eax
    7707:	00 
    7708:	83 c2 01             	add    $0x1,%edx
    770b:	39 c2                	cmp    %eax,%edx
    770d:	73 37                	jae    7746 <do_add_thread+0xa6>
    770f:	89 d0                	mov    %edx,%eax
    7711:	48 83 c0 0b          	add    $0xb,%rax
    7715:	48 c1 e0 05          	shl    $0x5,%rax
    7719:	4c 01 e0             	add    %r12,%rax
    771c:	44 0f b7 28          	movzwl (%rax),%r13d
    7720:	66 41 83 fd 0e       	cmp    $0xe,%r13w
    7725:	75 d9                	jne    7700 <do_add_thread+0x60>
    7727:	8d 42 0b             	lea    0xb(%rdx),%eax
    772a:	48 c1 e0 05          	shl    $0x5,%rax
    772e:	4c 01 e0             	add    %r12,%rax
    7731:	74 13                	je     7746 <do_add_thread+0xa6>
    7733:	4c 8b 34 24          	mov    (%rsp),%r14
    7737:	48 8b 40 08          	mov    0x8(%rax),%rax
    773b:	49 01 ee             	add    %rbp,%r14
    773e:	4c 01 f0             	add    %r14,%rax
    7741:	48 39 d8             	cmp    %rbx,%rax
    7744:	74 4e                	je     7794 <do_add_thread+0xf4>
    7746:	b8 01 00 00 00       	mov    $0x1,%eax
    774b:	48 8b 54 24 08       	mov    0x8(%rsp),%rdx
    7750:	64 48 2b 14 25 28 00 	sub    %fs:0x28,%rdx
    7757:	00 00 
    7759:	0f 85 f9 00 00 00    	jne    7858 <do_add_thread+0x1b8>
    775f:	48 83 c4 10          	add    $0x10,%rsp
    7763:	5b                   	pop    %rbx
    7764:	5d                   	pop    %rbp
    7765:	41 5c                	pop    %r12
    7767:	41 5d                	pop    %r13
    7769:	41 5e                	pop    %r14
    776b:	c3                   	ret    
    776c:	0f 1f 40 00          	nopl   0x0(%rax)
    7770:	8d 42 0b             	lea    0xb(%rdx),%eax
    7773:	48 c1 e0 05          	shl    $0x5,%rax
    7777:	4c 01 e0             	add    %r12,%rax
    777a:	74 0d                	je     7789 <do_add_thread+0xe9>
    777c:	0f b7 50 02          	movzwl 0x2(%rax),%edx
    7780:	83 e2 20             	and    $0x20,%edx
    7783:	0f 85 af 00 00 00    	jne    7838 <do_add_thread+0x198>
    7789:	41 83 c5 01          	add    $0x1,%r13d
    778d:	66 41 83 fd 13       	cmp    $0x13,%r13w
    7792:	74 3c                	je     77d0 <do_add_thread+0x130>
    7794:	41 8b 84 24 58 01 00 	mov    0x158(%r12),%eax
    779b:	00 
    779c:	31 d2                	xor    %edx,%edx
    779e:	85 c0                	test   %eax,%eax
    77a0:	75 15                	jne    77b7 <do_add_thread+0x117>
    77a2:	eb e5                	jmp    7789 <do_add_thread+0xe9>
    77a4:	0f 1f 40 00          	nopl   0x0(%rax)
    77a8:	41 8b 84 24 58 01 00 	mov    0x158(%r12),%eax
    77af:	00 
    77b0:	83 c2 01             	add    $0x1,%edx
    77b3:	39 c2                	cmp    %eax,%edx
    77b5:	73 d2                	jae    7789 <do_add_thread+0xe9>
    77b7:	89 d0                	mov    %edx,%eax
    77b9:	48 83 c0 0b          	add    $0xb,%rax
    77bd:	48 c1 e0 05          	shl    $0x5,%rax
    77c1:	4c 01 e0             	add    %r12,%rax
    77c4:	0f b7 00             	movzwl (%rax),%eax
    77c7:	66 44 39 e8          	cmp    %r13w,%ax
    77cb:	75 db                	jne    77a8 <do_add_thread+0x108>
    77cd:	eb a1                	jmp    7770 <do_add_thread+0xd0>
    77cf:	90                   	nop
    77d0:	ba 48 00 00 00       	mov    $0x48,%edx
    77d5:	49 8d b4 24 10 01 00 	lea    0x110(%r12),%rsi
    77dc:	00 
    77dd:	48 89 df             	mov    %rbx,%rdi
    77e0:	e8 cb a2 00 00       	call   11ab0 <memcpy>
    77e5:	f3 0f 6f 4b 30       	movdqu 0x30(%rbx),%xmm1
    77ea:	48 89 d8             	mov    %rbx,%rax
    77ed:	48 89 df             	mov    %rbx,%rdi
    77f0:	66 48 0f 6e c3       	movq   %rbx,%xmm0
    77f5:	48 29 e8             	sub    %rbp,%rax
    77f8:	48 01 43 10          	add    %rax,0x10(%rbx)
    77fc:	ba 00 01 00 00       	mov    $0x100,%edx
    7801:	66 0f 6c c0          	punpcklqdq %xmm0,%xmm0
    7805:	be 00 10 00 00       	mov    $0x1000,%esi
    780a:	66 0f d4 c8          	paddq  %xmm0,%xmm1
    780e:	66 48 0f 6e c5       	movq   %rbp,%xmm0
    7813:	66 0f 6c c0          	punpcklqdq %xmm0,%xmm0
    7817:	66 0f fb c8          	psubq  %xmm0,%xmm1
    781b:	0f 11 4b 30          	movups %xmm1,0x30(%rbx)
    781f:	e8 3c 55 00 00       	call   cd60 <mm_modify_type>
    7824:	85 c0                	test   %eax,%eax
    7826:	0f 95 c0             	setne  %al
    7829:	0f b6 c0             	movzbl %al,%eax
    782c:	e9 1a ff ff ff       	jmp    774b <do_add_thread+0xab>
    7831:	0f 1f 80 00 00 00 00 	nopl   0x0(%rax)
    7838:	8b 70 04             	mov    0x4(%rax),%esi
    783b:	48 8b 78 08          	mov    0x8(%rax),%rdi
    783f:	48 c1 e6 0c          	shl    $0xc,%rsi
    7843:	4c 01 f7             	add    %r14,%rdi
    7846:	e8 d5 54 00 00       	call   cd20 <mm_commit>
    784b:	85 c0                	test   %eax,%eax
    784d:	0f 84 36 ff ff ff    	je     7789 <do_add_thread+0xe9>
    7853:	e9 ee fe ff ff       	jmp    7746 <do_add_thread+0xa6>
    7858:	e8 e3 a5 00 00       	call   11e40 <__stack_chk_fail>
    785d:	0f 1f 00             	nopl   (%rax)

0000000000007860 <sgx_set_ssa_aexnotify>:
    7860:	f3 0f 1e fa          	endbr64 
    7864:	55                   	push   %rbp
    7865:	89 fd                	mov    %edi,%ebp
    7867:	53                   	push   %rbx
    7868:	48 83 ec 08          	sub    $0x8,%rsp
    786c:	e8 d2 38 01 00       	call   1b143 <get_thread_data>
    7871:	48 85 c0             	test   %rax,%rax
    7874:	74 3a                	je     78b0 <sgx_set_ssa_aexnotify+0x50>
    7876:	48 89 c3             	mov    %rax,%rbx
    7879:	e8 72 2b 01 00       	call   1a3f0 <sgx_self_report>
    787e:	f6 40 31 04          	testb  $0x4,0x31(%rax)
    7882:	74 2c                	je     78b0 <sgx_set_ssa_aexnotify+0x50>
    7884:	48 8b 53 20          	mov    0x20(%rbx),%rdx
    7888:	0f b6 82 a7 00 00 00 	movzbl 0xa7(%rdx),%eax
    788f:	89 c1                	mov    %eax,%ecx
    7891:	83 c8 01             	or     $0x1,%eax
    7894:	83 e1 fe             	and    $0xfffffffe,%ecx
    7897:	85 ed                	test   %ebp,%ebp
    7899:	0f 44 c1             	cmove  %ecx,%eax
    789c:	88 82 a7 00 00 00    	mov    %al,0xa7(%rdx)
    78a2:	48 83 c4 08          	add    $0x8,%rsp
    78a6:	31 c0                	xor    %eax,%eax
    78a8:	5b                   	pop    %rbx
    78a9:	5d                   	pop    %rbp
    78aa:	c3                   	ret    
    78ab:	0f 1f 44 00 00       	nopl   0x0(%rax,%rax,1)
    78b0:	48 83 c4 08          	add    $0x8,%rsp
    78b4:	b8 01 00 00 00       	mov    $0x1,%eax
    78b9:	5b                   	pop    %rbx
    78ba:	5d                   	pop    %rbp
    78bb:	c3                   	ret    
    78bc:	0f 1f 40 00          	nopl   0x0(%rax)

00000000000078c0 <sgx_register_aex_handler>:
    78c0:	f3 0f 1e fa          	endbr64 
    78c4:	48 85 ff             	test   %rdi,%rdi
    78c7:	0f 84 bb 00 00 00    	je     7988 <sgx_register_aex_handler+0xc8>
    78cd:	41 55                	push   %r13
    78cf:	b8 02 00 00 00       	mov    $0x2,%eax
    78d4:	41 54                	push   %r12
    78d6:	49 89 f4             	mov    %rsi,%r12
    78d9:	55                   	push   %rbp
    78da:	53                   	push   %rbx
    78db:	48 83 ec 08          	sub    $0x8,%rsp
    78df:	48 85 f6             	test   %rsi,%rsi
    78e2:	74 2a                	je     790e <sgx_register_aex_handler+0x4e>
    78e4:	48 89 fb             	mov    %rdi,%rbx
    78e7:	48 89 d5             	mov    %rdx,%rbp
    78ea:	e8 f1 11 00 00       	call   8ae0 <get_ssa_aexnotify>
    78ef:	85 c0                	test   %eax,%eax
    78f1:	75 2d                	jne    7920 <sgx_register_aex_handler+0x60>
    78f3:	e8 4b 38 01 00       	call   1b143 <get_thread_data>
    78f8:	66 48 0f 6e c5       	movq   %rbp,%xmm0
    78fd:	0f 16 40 48          	movhps 0x48(%rax),%xmm0
    7901:	4c 89 23             	mov    %r12,(%rbx)
    7904:	0f 11 43 08          	movups %xmm0,0x8(%rbx)
    7908:	48 89 58 48          	mov    %rbx,0x48(%rax)
    790c:	31 c0                	xor    %eax,%eax
    790e:	48 83 c4 08          	add    $0x8,%rsp
    7912:	5b                   	pop    %rbx
    7913:	5d                   	pop    %rbp
    7914:	41 5c                	pop    %r12
    7916:	41 5d                	pop    %r13
    7918:	c3                   	ret    
    7919:	0f 1f 80 00 00 00 00 	nopl   0x0(%rax)
    7920:	e8 1e 38 01 00       	call   1b143 <get_thread_data>
    7925:	49 89 c5             	mov    %rax,%r13
    7928:	48 85 c0             	test   %rax,%rax
    792b:	74 16                	je     7943 <sgx_register_aex_handler+0x83>
    792d:	e8 be 2a 01 00       	call   1a3f0 <sgx_self_report>
    7932:	f6 40 31 04          	testb  $0x4,0x31(%rax)
    7936:	74 0b                	je     7943 <sgx_register_aex_handler+0x83>
    7938:	49 8b 45 20          	mov    0x20(%r13),%rax
    793c:	80 a0 a7 00 00 00 fe 	andb   $0xfe,0xa7(%rax)
    7943:	e8 fb 37 01 00       	call   1b143 <get_thread_data>
    7948:	66 48 0f 6e c5       	movq   %rbp,%xmm0
    794d:	0f 16 40 48          	movhps 0x48(%rax),%xmm0
    7951:	4c 89 23             	mov    %r12,(%rbx)
    7954:	0f 11 43 08          	movups %xmm0,0x8(%rbx)
    7958:	48 89 58 48          	mov    %rbx,0x48(%rax)
    795c:	e8 e2 37 01 00       	call   1b143 <get_thread_data>
    7961:	48 89 c3             	mov    %rax,%rbx
    7964:	48 85 c0             	test   %rax,%rax
    7967:	74 a3                	je     790c <sgx_register_aex_handler+0x4c>
    7969:	e8 82 2a 01 00       	call   1a3f0 <sgx_self_report>
    796e:	f6 40 31 04          	testb  $0x4,0x31(%rax)
    7972:	74 98                	je     790c <sgx_register_aex_handler+0x4c>
    7974:	48 8b 43 20          	mov    0x20(%rbx),%rax
    7978:	80 88 a7 00 00 00 01 	orb    $0x1,0xa7(%rax)
    797f:	31 c0                	xor    %eax,%eax
    7981:	eb 8b                	jmp    790e <sgx_register_aex_handler+0x4e>
    7983:	0f 1f 44 00 00       	nopl   0x0(%rax,%rax,1)
    7988:	b8 02 00 00 00       	mov    $0x2,%eax
    798d:	c3                   	ret    
    798e:	66 90                	xchg   %ax,%ax

0000000000007990 <sgx_unregister_aex_handler>:
    7990:	f3 0f 1e fa          	endbr64 
    7994:	41 54                	push   %r12
    7996:	55                   	push   %rbp
    7997:	53                   	push   %rbx
    7998:	48 85 ff             	test   %rdi,%rdi
    799b:	0f 84 e7 00 00 00    	je     7a88 <sgx_unregister_aex_handler+0xf8>
    79a1:	48 89 fd             	mov    %rdi,%rbp
    79a4:	e8 37 11 00 00       	call   8ae0 <get_ssa_aexnotify>
    79a9:	89 c3                	mov    %eax,%ebx
    79ab:	85 c0                	test   %eax,%eax
    79ad:	75 61                	jne    7a10 <sgx_unregister_aex_handler+0x80>
    79af:	e8 8f 37 01 00       	call   1b143 <get_thread_data>
    79b4:	41 bc 01 00 00 00    	mov    $0x1,%r12d
    79ba:	48 8b 50 48          	mov    0x48(%rax),%rdx
    79be:	48 85 d2             	test   %rdx,%rdx
    79c1:	74 3d                	je     7a00 <sgx_unregister_aex_handler+0x70>
    79c3:	31 f6                	xor    %esi,%esi
    79c5:	eb 1c                	jmp    79e3 <sgx_unregister_aex_handler+0x53>
    79c7:	66 0f 1f 84 00 00 00 	nopw   0x0(%rax,%rax,1)
    79ce:	00 00 
    79d0:	48 8b 4a 10          	mov    0x10(%rdx),%rcx
    79d4:	48 89 d6             	mov    %rdx,%rsi
    79d7:	48 85 c9             	test   %rcx,%rcx
    79da:	0f 84 98 00 00 00    	je     7a78 <sgx_unregister_aex_handler+0xe8>
    79e0:	48 89 ca             	mov    %rcx,%rdx
    79e3:	48 39 2a             	cmp    %rbp,(%rdx)
    79e6:	75 e8                	jne    79d0 <sgx_unregister_aex_handler+0x40>
    79e8:	48 8b 52 10          	mov    0x10(%rdx),%rdx
    79ec:	48 85 f6             	test   %rsi,%rsi
    79ef:	0f 84 ab 00 00 00    	je     7aa0 <sgx_unregister_aex_handler+0x110>
    79f5:	48 89 56 10          	mov    %rdx,0x10(%rsi)
    79f9:	45 31 e4             	xor    %r12d,%r12d
    79fc:	85 db                	test   %ebx,%ebx
    79fe:	75 48                	jne    7a48 <sgx_unregister_aex_handler+0xb8>
    7a00:	44 89 e0             	mov    %r12d,%eax
    7a03:	5b                   	pop    %rbx
    7a04:	5d                   	pop    %rbp
    7a05:	41 5c                	pop    %r12
    7a07:	c3                   	ret    
    7a08:	0f 1f 84 00 00 00 00 	nopl   0x0(%rax,%rax,1)
    7a0f:	00 
    7a10:	e8 2e 37 01 00       	call   1b143 <get_thread_data>
    7a15:	49 89 c4             	mov    %rax,%r12
    7a18:	48 85 c0             	test   %rax,%rax
    7a1b:	74 17                	je     7a34 <sgx_unregister_aex_handler+0xa4>
    7a1d:	e8 ce 29 01 00       	call   1a3f0 <sgx_self_report>
    7a22:	f6 40 31 04          	testb  $0x4,0x31(%rax)
    7a26:	74 0c                	je     7a34 <sgx_unregister_aex_handler+0xa4>
    7a28:	49 8b 44 24 20       	mov    0x20(%r12),%rax
    7a2d:	80 a0 a7 00 00 00 fe 	andb   $0xfe,0xa7(%rax)
    7a34:	e8 0a 37 01 00       	call   1b143 <get_thread_data>
    7a39:	48 8b 50 48          	mov    0x48(%rax),%rdx
    7a3d:	48 85 d2             	test   %rdx,%rdx
    7a40:	75 81                	jne    79c3 <sgx_unregister_aex_handler+0x33>
    7a42:	41 bc 01 00 00 00    	mov    $0x1,%r12d
    7a48:	e8 f6 36 01 00       	call   1b143 <get_thread_data>
    7a4d:	48 89 c3             	mov    %rax,%rbx
    7a50:	48 85 c0             	test   %rax,%rax
    7a53:	74 ab                	je     7a00 <sgx_unregister_aex_handler+0x70>
    7a55:	e8 96 29 01 00       	call   1a3f0 <sgx_self_report>
    7a5a:	f6 40 31 04          	testb  $0x4,0x31(%rax)
    7a5e:	74 a0                	je     7a00 <sgx_unregister_aex_handler+0x70>
    7a60:	48 8b 43 20          	mov    0x20(%rbx),%rax
    7a64:	80 88 a7 00 00 00 01 	orb    $0x1,0xa7(%rax)
    7a6b:	44 89 e0             	mov    %r12d,%eax
    7a6e:	5b                   	pop    %rbx
    7a6f:	5d                   	pop    %rbp
    7a70:	41 5c                	pop    %r12
    7a72:	c3                   	ret    
    7a73:	0f 1f 44 00 00       	nopl   0x0(%rax,%rax,1)
    7a78:	41 bc 02 00 00 00    	mov    $0x2,%r12d
    7a7e:	e9 79 ff ff ff       	jmp    79fc <sgx_unregister_aex_handler+0x6c>
    7a83:	0f 1f 44 00 00       	nopl   0x0(%rax,%rax,1)
    7a88:	41 bc 02 00 00 00    	mov    $0x2,%r12d
    7a8e:	5b                   	pop    %rbx
    7a8f:	5d                   	pop    %rbp
    7a90:	44 89 e0             	mov    %r12d,%eax
    7a93:	41 5c                	pop    %r12
    7a95:	c3                   	ret    
    7a96:	66 2e 0f 1f 84 00 00 	cs nopw 0x0(%rax,%rax,1)
    7a9d:	00 00 00 
    7aa0:	48 89 50 48          	mov    %rdx,0x48(%rax)
    7aa4:	e9 50 ff ff ff       	jmp    79f9 <sgx_unregister_aex_handler+0x69>
    7aa9:	0f 1f 80 00 00 00 00 	nopl   0x0(%rax)

0000000000007ab0 <sgx_apply_mitigations>:
    7ab0:	f3 0f 1e fa          	endbr64 
    7ab4:	55                   	push   %rbp
    7ab5:	48 89 fd             	mov    %rdi,%rbp
    7ab8:	53                   	push   %rbx
    7ab9:	48 83 ec 08          	sub    $0x8,%rsp
    7abd:	e8 81 36 01 00       	call   1b143 <get_thread_data>
    7ac2:	48 8b 58 48          	mov    0x48(%rax),%rbx
    7ac6:	48 85 db             	test   %rbx,%rbx
    7ac9:	74 17                	je     7ae2 <sgx_apply_mitigations+0x32>
    7acb:	0f 1f 44 00 00       	nopl   0x0(%rax,%rax,1)
    7ad0:	48 8b 73 08          	mov    0x8(%rbx),%rsi
    7ad4:	48 89 ef             	mov    %rbp,%rdi
    7ad7:	ff 13                	call   *(%rbx)
    7ad9:	48 8b 5b 10          	mov    0x10(%rbx),%rbx
    7add:	48 85 db             	test   %rbx,%rbx
    7ae0:	75 ee                	jne    7ad0 <sgx_apply_mitigations+0x20>
    7ae2:	48 83 c4 08          	add    $0x8,%rsp
    7ae6:	31 c0                	xor    %eax,%eax
    7ae8:	5b                   	pop    %rbx
    7ae9:	5d                   	pop    %rbp
    7aea:	c3                   	ret    
    7aeb:	0f 1f 44 00 00       	nopl   0x0(%rax,%rax,1)

0000000000007af0 <_pthread_thread_run>:
    7af0:	f3 0f 1e fa          	endbr64 
    7af4:	31 c0                	xor    %eax,%eax
    7af6:	c3                   	ret    
    7af7:	66 0f 1f 84 00 00 00 	nopw   0x0(%rax,%rax,1)
    7afe:	00 00 

0000000000007b00 <_ZL11do_save_tcsPv>:
    7b00:	55                   	push   %rbp
    7b01:	53                   	push   %rbx
    7b02:	48 89 fb             	mov    %rdi,%rbx
    7b05:	48 83 ec 18          	sub    $0x18,%rsp
    7b09:	64 48 8b 04 25 28 00 	mov    %fs:0x28,%rax
    7b10:	00 00 
    7b12:	48 89 44 24 08       	mov    %rax,0x8(%rsp)
    7b17:	31 c0                	xor    %eax,%eax
    7b19:	48 83 3d a7 d8 01 00 	cmpq   $0x0,0x1d8a7(%rip)        # 253c8 <_ZL12g_tcs_cookie>
    7b20:	00 
    7b21:	74 4d                	je     7b70 <_ZL11do_save_tcsPv+0x70>
    7b23:	bf 10 00 00 00       	mov    $0x10,%edi
    7b28:	e8 63 69 00 00       	call   e490 <dlmalloc>
    7b2d:	48 85 c0             	test   %rax,%rax
    7b30:	74 68                	je     7b9a <_ZL11do_save_tcsPv+0x9a>
    7b32:	48 8b 15 97 d8 01 00 	mov    0x1d897(%rip),%rdx        # 253d0 <_ZL10g_tcs_node>
    7b39:	48 33 1d 88 d8 01 00 	xor    0x1d888(%rip),%rbx        # 253c8 <_ZL12g_tcs_cookie>
    7b40:	48 89 05 89 d8 01 00 	mov    %rax,0x1d889(%rip)        # 253d0 <_ZL10g_tcs_node>
    7b47:	48 89 18             	mov    %rbx,(%rax)
    7b4a:	48 89 50 08          	mov    %rdx,0x8(%rax)
    7b4e:	31 c0                	xor    %eax,%eax
    7b50:	48 8b 54 24 08       	mov    0x8(%rsp),%rdx
    7b55:	64 48 2b 14 25 28 00 	sub    %fs:0x28,%rdx
    7b5c:	00 00 
    7b5e:	75 62                	jne    7bc2 <_ZL11do_save_tcsPv+0xc2>
    7b60:	48 83 c4 18          	add    $0x18,%rsp
    7b64:	5b                   	pop    %rbx
    7b65:	5d                   	pop    %rbp
    7b66:	c3                   	ret    
    7b67:	66 0f 1f 84 00 00 00 	nopw   0x0(%rax,%rax,1)
    7b6e:	00 00 
    7b70:	48 c7 04 24 00 00 00 	movq   $0x0,(%rsp)
    7b77:	00 
    7b78:	48 89 e5             	mov    %rsp,%rbp
    7b7b:	eb 0c                	jmp    7b89 <_ZL11do_save_tcsPv+0x89>
    7b7d:	0f 1f 00             	nopl   (%rax)
    7b80:	48 8b 04 24          	mov    (%rsp),%rax
    7b84:	48 85 c0             	test   %rax,%rax
    7b87:	75 1f                	jne    7ba8 <_ZL11do_save_tcsPv+0xa8>
    7b89:	be 08 00 00 00       	mov    $0x8,%esi
    7b8e:	48 89 ef             	mov    %rbp,%rdi
    7b91:	e8 2a f5 ff ff       	call   70c0 <sgx_read_rand>
    7b96:	85 c0                	test   %eax,%eax
    7b98:	74 e6                	je     7b80 <_ZL11do_save_tcsPv+0x80>
    7b9a:	b8 01 00 00 00       	mov    $0x1,%eax
    7b9f:	eb af                	jmp    7b50 <_ZL11do_save_tcsPv+0x50>
    7ba1:	0f 1f 80 00 00 00 00 	nopl   0x0(%rax)
    7ba8:	48 83 3d 18 d8 01 00 	cmpq   $0x0,0x1d818(%rip)        # 253c8 <_ZL12g_tcs_cookie>
    7baf:	00 
    7bb0:	0f 85 6d ff ff ff    	jne    7b23 <_ZL11do_save_tcsPv+0x23>
    7bb6:	48 89 05 0b d8 01 00 	mov    %rax,0x1d80b(%rip)        # 253c8 <_ZL12g_tcs_cookie>
    7bbd:	e9 61 ff ff ff       	jmp    7b23 <_ZL11do_save_tcsPv+0x23>
    7bc2:	e8 79 a2 00 00       	call   11e40 <__stack_chk_fail>
    7bc7:	66 0f 1f 84 00 00 00 	nopw   0x0(%rax,%rax,1)
    7bce:	00 00 

0000000000007bd0 <_ZL18add_static_threadsPVK9_layout_tS1_m>:
    7bd0:	48 39 f7             	cmp    %rsi,%rdi
    7bd3:	0f 83 cf 00 00 00    	jae    7ca8 <_ZL18add_static_threadsPVK9_layout_tS1_m+0xd8>
    7bd9:	41 56                	push   %r14
    7bdb:	41 55                	push   %r13
    7bdd:	49 89 f5             	mov    %rsi,%r13
    7be0:	41 54                	push   %r12
    7be2:	49 89 d4             	mov    %rdx,%r12
    7be5:	55                   	push   %rbp
    7be6:	53                   	push   %rbx
    7be7:	48 89 fb             	mov    %rdi,%rbx
    7bea:	eb 0d                	jmp    7bf9 <_ZL18add_static_threadsPVK9_layout_tS1_m+0x29>
    7bec:	0f 1f 40 00          	nopl   0x0(%rax)
    7bf0:	48 83 c3 20          	add    $0x20,%rbx
    7bf4:	4c 39 eb             	cmp    %r13,%rbx
    7bf7:	73 77                	jae    7c70 <_ZL18add_static_threadsPVK9_layout_tS1_m+0xa0>
    7bf9:	0f b7 03             	movzwl (%rbx),%eax
    7bfc:	f6 c4 10             	test   $0x10,%ah
    7bff:	75 13                	jne    7c14 <_ZL18add_static_threadsPVK9_layout_tS1_m+0x44>
    7c01:	48 8b 43 18          	mov    0x18(%rbx),%rax
    7c05:	f6 c4 01             	test   $0x1,%ah
    7c08:	74 0a                	je     7c14 <_ZL18add_static_threadsPVK9_layout_tS1_m+0x44>
    7c0a:	0f b7 43 02          	movzwl 0x2(%rbx),%eax
    7c0e:	66 83 f8 03          	cmp    $0x3,%ax
    7c12:	74 6c                	je     7c80 <_ZL18add_static_threadsPVK9_layout_tS1_m+0xb0>
    7c14:	0f b7 03             	movzwl (%rbx),%eax
    7c17:	f6 c4 10             	test   $0x10,%ah
    7c1a:	74 d4                	je     7bf0 <_ZL18add_static_threadsPVK9_layout_tS1_m+0x20>
    7c1c:	8b 43 04             	mov    0x4(%rbx),%eax
    7c1f:	85 c0                	test   %eax,%eax
    7c21:	74 cd                	je     7bf0 <_ZL18add_static_threadsPVK9_layout_tS1_m+0x20>
    7c23:	31 ed                	xor    %ebp,%ebp
    7c25:	45 31 f6             	xor    %r14d,%r14d
    7c28:	eb 10                	jmp    7c3a <_ZL18add_static_threadsPVK9_layout_tS1_m+0x6a>
    7c2a:	66 0f 1f 44 00 00    	nopw   0x0(%rax,%rax,1)
    7c30:	8b 43 04             	mov    0x4(%rbx),%eax
    7c33:	83 c5 01             	add    $0x1,%ebp
    7c36:	39 c5                	cmp    %eax,%ebp
    7c38:	73 b6                	jae    7bf0 <_ZL18add_static_threadsPVK9_layout_tS1_m+0x20>
    7c3a:	48 8b 43 08          	mov    0x8(%rbx),%rax
    7c3e:	0f b7 7b 02          	movzwl 0x2(%rbx),%edi
    7c42:	48 89 de             	mov    %rbx,%rsi
    7c45:	f7 df                	neg    %edi
    7c47:	49 01 c6             	add    %rax,%r14
    7c4a:	48 63 ff             	movslq %edi,%rdi
    7c4d:	4c 89 f2             	mov    %r14,%rdx
    7c50:	48 c1 e7 05          	shl    $0x5,%rdi
    7c54:	48 01 df             	add    %rbx,%rdi
    7c57:	e8 74 ff ff ff       	call   7bd0 <_ZL18add_static_threadsPVK9_layout_tS1_m>
    7c5c:	85 c0                	test   %eax,%eax
    7c5e:	74 d0                	je     7c30 <_ZL18add_static_threadsPVK9_layout_tS1_m+0x60>
    7c60:	5b                   	pop    %rbx
    7c61:	5d                   	pop    %rbp
    7c62:	41 5c                	pop    %r12
    7c64:	41 5d                	pop    %r13
    7c66:	41 5e                	pop    %r14
    7c68:	c3                   	ret    
    7c69:	0f 1f 80 00 00 00 00 	nopl   0x0(%rax)
    7c70:	5b                   	pop    %rbx
    7c71:	31 c0                	xor    %eax,%eax
    7c73:	5d                   	pop    %rbp
    7c74:	41 5c                	pop    %r12
    7c76:	41 5d                	pop    %r13
    7c78:	41 5e                	pop    %r14
    7c7a:	c3                   	ret    
    7c7b:	0f 1f 44 00 00       	nopl   0x0(%rax,%rax,1)
    7c80:	48 8b 6b 08          	mov    0x8(%rbx),%rbp
    7c84:	e8 6f 34 01 00       	call   1b0f8 <get_enclave_base>
    7c89:	4c 01 e5             	add    %r12,%rbp
    7c8c:	48 8d 3c 28          	lea    (%rax,%rbp,1),%rdi
    7c90:	e8 6b fe ff ff       	call   7b00 <_ZL11do_save_tcsPv>
    7c95:	85 c0                	test   %eax,%eax
    7c97:	0f 84 53 ff ff ff    	je     7bf0 <_ZL18add_static_threadsPVK9_layout_tS1_m+0x20>
    7c9d:	b8 ff ff ff ff       	mov    $0xffffffff,%eax
    7ca2:	eb bc                	jmp    7c60 <_ZL18add_static_threadsPVK9_layout_tS1_m+0x90>
    7ca4:	0f 1f 40 00          	nopl   0x0(%rax)
    7ca8:	31 c0                	xor    %eax,%eax
    7caa:	c3                   	ret    
    7cab:	0f 1f 44 00 00       	nopl   0x0(%rax,%rax,1)

0000000000007cb0 <_ZL10trts_ecalljPv>:
    7cb0:	f3 0f 1e fa          	endbr64 
    7cb4:	41 55                	push   %r13
    7cb6:	41 54                	push   %r12
    7cb8:	55                   	push   %rbp
    7cb9:	48 89 f5             	mov    %rsi,%rbp
    7cbc:	53                   	push   %rbx
    7cbd:	89 fb                	mov    %edi,%ebx
    7cbf:	48 83 ec 08          	sub    $0x8,%rsp
    7cc3:	0f b6 05 56 b5 01 00 	movzbl 0x1b556(%rip),%eax        # 23220 <_ZL16g_is_first_ecall>
    7cca:	84 c0                	test   %al,%al
    7ccc:	0f 85 b6 00 00 00    	jne    7d88 <_ZL10trts_ecalljPv+0xd8>
    7cd2:	83 fb fa             	cmp    $0xfffffffa,%ebx
    7cd5:	0f 84 8d 00 00 00    	je     7d68 <_ZL10trts_ecalljPv+0xb8>
    7cdb:	4c 8d 25 fe ad 01 00 	lea    0x1adfe(%rip),%r12        # 22ae0 <g_ecall_table>
    7ce2:	49 3b 1c 24          	cmp    (%r12),%rbx
    7ce6:	73 68                	jae    7d50 <_ZL10trts_ecalljPv+0xa0>
    7ce8:	e8 56 34 01 00       	call   1b143 <get_thread_data>
    7ced:	0f ae e8             	lfence 
    7cf0:	48 8b 50 08          	mov    0x8(%rax),%rdx
    7cf4:	48 3b 50 10          	cmp    0x10(%rax),%rdx
    7cf8:	0f 84 b2 00 00 00    	je     7db0 <_ZL10trts_ecalljPv+0x100>
    7cfe:	48 81 7a 20 44 49 43 	cmpq   $0x4f434944,0x20(%rdx)
    7d05:	4f 
    7d06:	0f 85 5b 01 00 00    	jne    7e67 <_ZL10trts_ecalljPv+0x1b7>
    7d0c:	48 8d 05 3d 45 01 00 	lea    0x1453d(%rip),%rax        # 1c250 <g_dyn_entry_table>
    7d13:	48 8b 52 28          	mov    0x28(%rdx),%rdx
    7d17:	48 3b 10             	cmp    (%rax),%rdx
    7d1a:	73 34                	jae    7d50 <_ZL10trts_ecalljPv+0xa0>
    7d1c:	49 0f af 14 24       	imul   (%r12),%rdx
    7d21:	48 01 d8             	add    %rbx,%rax
    7d24:	80 7c 02 08 00       	cmpb   $0x0,0x8(%rdx,%rax,1)
    7d29:	74 6c                	je     7d97 <_ZL10trts_ecalljPv+0xe7>
    7d2b:	48 c1 e3 04          	shl    $0x4,%rbx
    7d2f:	31 f6                	xor    %esi,%esi
    7d31:	49 8b 5c 1c 08       	mov    0x8(%r12,%rbx,1),%rbx
    7d36:	48 89 df             	mov    %rbx,%rdi
    7d39:	e8 82 f1 ff ff       	call   6ec0 <sgx_is_within_enclave>
    7d3e:	85 c0                	test   %eax,%eax
    7d40:	0f 84 8a 00 00 00    	je     7dd0 <_ZL10trts_ecalljPv+0x120>
    7d46:	48 89 d8             	mov    %rbx,%rax
    7d49:	eb 24                	jmp    7d6f <_ZL10trts_ecalljPv+0xbf>
    7d4b:	0f 1f 44 00 00       	nopl   0x0(%rax,%rax,1)
    7d50:	41 bc 01 10 00 00    	mov    $0x1001,%r12d
    7d56:	48 83 c4 08          	add    $0x8,%rsp
    7d5a:	44 89 e0             	mov    %r12d,%eax
    7d5d:	5b                   	pop    %rbx
    7d5e:	5d                   	pop    %rbp
    7d5f:	41 5c                	pop    %r12
    7d61:	41 5d                	pop    %r13
    7d63:	c3                   	ret    
    7d64:	0f 1f 40 00          	nopl   0x0(%rax)
    7d68:	48 8d 05 81 fd ff ff 	lea    -0x27f(%rip),%rax        # 7af0 <_pthread_thread_run>
    7d6f:	0f ae e8             	lfence 
    7d72:	48 83 c4 08          	add    $0x8,%rsp
    7d76:	48 89 ef             	mov    %rbp,%rdi
    7d79:	5b                   	pop    %rbx
    7d7a:	5d                   	pop    %rbp
    7d7b:	41 5c                	pop    %r12
    7d7d:	41 5d                	pop    %r13
    7d7f:	ff e0                	jmp    *%rax
    7d81:	0f 1f 80 00 00 00 00 	nopl   0x0(%rax)
    7d88:	e8 b6 33 01 00       	call   1b143 <get_thread_data>
    7d8d:	48 8b 48 10          	mov    0x10(%rax),%rcx
    7d91:	48 39 48 08          	cmp    %rcx,0x8(%rax)
    7d95:	74 49                	je     7de0 <_ZL10trts_ecalljPv+0x130>
    7d97:	48 83 c4 08          	add    $0x8,%rsp
    7d9b:	41 bc 07 10 00 00    	mov    $0x1007,%r12d
    7da1:	5b                   	pop    %rbx
    7da2:	44 89 e0             	mov    %r12d,%eax
    7da5:	5d                   	pop    %rbp
    7da6:	41 5c                	pop    %r12
    7da8:	41 5d                	pop    %r13
    7daa:	c3                   	ret    
    7dab:	0f 1f 44 00 00       	nopl   0x0(%rax,%rax,1)
    7db0:	48 89 d8             	mov    %rbx,%rax
    7db3:	48 c1 e0 04          	shl    $0x4,%rax
    7db7:	41 80 7c 04 10 00    	cmpb   $0x0,0x10(%r12,%rax,1)
    7dbd:	0f 84 68 ff ff ff    	je     7d2b <_ZL10trts_ecalljPv+0x7b>
    7dc3:	eb d2                	jmp    7d97 <_ZL10trts_ecalljPv+0xe7>
    7dc5:	4c 89 ef             	mov    %r13,%rdi
    7dc8:	e8 93 5d 00 00       	call   db60 <sgx_spin_unlock>
    7dcd:	0f 1f 00             	nopl   (%rax)
    7dd0:	41 bc 01 00 00 00    	mov    $0x1,%r12d
    7dd6:	e9 7b ff ff ff       	jmp    7d56 <_ZL10trts_ecalljPv+0xa6>
    7ddb:	0f 1f 44 00 00       	nopl   0x0(%rax,%rax,1)
    7de0:	4c 8d 2d dd d5 01 00 	lea    0x1d5dd(%rip),%r13        # 253c4 <_ZL10g_ife_lock>
    7de7:	4c 89 ef             	mov    %r13,%rdi
    7dea:	e8 e1 5c 00 00       	call   dad0 <sgx_spin_lock>
    7def:	0f b6 05 2a b4 01 00 	movzbl 0x1b42a(%rip),%eax        # 23220 <_ZL16g_is_first_ecall>
    7df6:	84 c0                	test   %al,%al
    7df8:	74 53                	je     7e4d <_ZL10trts_ecalljPv+0x19d>
    7dfa:	48 8d 05 33 b0 01 00 	lea    0x1b033(%rip),%rax        # 22e34 <EDMM_supported>
    7e01:	8b 00                	mov    (%rax),%eax
    7e03:	85 c0                	test   %eax,%eax
    7e05:	74 3a                	je     7e41 <_ZL10trts_ecalljPv+0x191>
    7e07:	48 8d 05 72 52 01 00 	lea    0x15272(%rip),%rax        # 1d080 <g_global_data>
    7e0e:	31 d2                	xor    %edx,%edx
    7e10:	8b b0 58 01 00 00    	mov    0x158(%rax),%esi
    7e16:	48 8d b8 60 01 00 00 	lea    0x160(%rax),%rdi
    7e1d:	48 c1 e6 05          	shl    $0x5,%rsi
    7e21:	48 01 fe             	add    %rdi,%rsi
    7e24:	e8 a7 fd ff ff       	call   7bd0 <_ZL18add_static_threadsPVK9_layout_tS1_m>
    7e29:	85 c0                	test   %eax,%eax
    7e2b:	75 98                	jne    7dc5 <_ZL10trts_ecalljPv+0x115>
    7e2d:	e8 c6 32 01 00       	call   1b0f8 <get_enclave_base>
    7e32:	48 89 c7             	mov    %rax,%rdi
    7e35:	e8 a6 1d 00 00       	call   9be0 <change_protection>
    7e3a:	41 89 c4             	mov    %eax,%r12d
    7e3d:	85 c0                	test   %eax,%eax
    7e3f:	75 19                	jne    7e5a <_ZL10trts_ecalljPv+0x1aa>
    7e41:	e8 ca 21 00 00       	call   a010 <init_global_object>
    7e46:	c6 05 d3 b3 01 00 00 	movb   $0x0,0x1b3d3(%rip)        # 23220 <_ZL16g_is_first_ecall>
    7e4d:	4c 89 ef             	mov    %r13,%rdi
    7e50:	e8 0b 5d 00 00       	call   db60 <sgx_spin_unlock>
    7e55:	e9 78 fe ff ff       	jmp    7cd2 <_ZL10trts_ecalljPv+0x22>
    7e5a:	4c 89 ef             	mov    %r13,%rdi
    7e5d:	e8 fe 5c 00 00       	call   db60 <sgx_spin_unlock>
    7e62:	e9 ef fe ff ff       	jmp    7d56 <_ZL10trts_ecalljPv+0xa6>
    7e67:	e8 cb 36 01 00       	call   1b537 <abort>
    7e6c:	0f 1f 40 00          	nopl   0x0(%rax)

0000000000007e70 <_Z30_random_stack_noinline_wrapperI9_status_tJjPvEJRiRS1_EET_PFS4_DpT0_EDpOT1_.constprop.0.isra.0>:
    7e70:	e9 3b fe ff ff       	jmp    7cb0 <_ZL10trts_ecalljPv>
    7e75:	66 2e 0f 1f 84 00 00 	cs nopw 0x0(%rax,%rax,1)
    7e7c:	00 00 00 
    7e7f:	90                   	nop

0000000000007e80 <_Z16_pthread_enabledv>:
    7e80:	f3 0f 1e fa          	endbr64 
    7e84:	31 c0                	xor    %eax,%eax
    7e86:	c3                   	ret    
    7e87:	66 0f 1f 84 00 00 00 	nopw   0x0(%rax,%rax,1)
    7e8e:	00 00 

0000000000007e90 <_Z24_pthread_tls_store_state9_status_t>:
    7e90:	f3 0f 1e fa          	endbr64 
    7e94:	c3                   	ret    
    7e95:	66 2e 0f 1f 84 00 00 	cs nopw 0x0(%rax,%rax,1)
    7e9c:	00 00 00 
    7e9f:	90                   	nop

0000000000007ea0 <_Z22_pthread_tls_get_statev>:
    7ea0:	f3 0f 1e fa          	endbr64 
    7ea4:	31 c0                	xor    %eax,%eax
    7ea6:	c3                   	ret    
    7ea7:	66 0f 1f 84 00 00 00 	nopw   0x0(%rax,%rax,1)
    7eae:	00 00 

0000000000007eb0 <_Z26_pthread_tls_store_contextPv>:
    7eb0:	f3 0f 1e fa          	endbr64 
    7eb4:	c3                   	ret    
    7eb5:	66 2e 0f 1f 84 00 00 	cs nopw 0x0(%rax,%rax,1)
    7ebc:	00 00 00 
    7ebf:	90                   	nop

0000000000007ec0 <_Z20_pthread_wakeup_joinPv>:
    7ec0:	f3 0f 1e fa          	endbr64 
    7ec4:	c3                   	ret    
    7ec5:	66 2e 0f 1f 84 00 00 	cs nopw 0x0(%rax,%rax,1)
    7ecc:	00 00 00 
    7ecf:	90                   	nop

0000000000007ed0 <_Z24_pthread_tls_destructorsv>:
    7ed0:	f3 0f 1e fa          	endbr64 
    7ed4:	c3                   	ret    
    7ed5:	66 2e 0f 1f 84 00 00 	cs nopw 0x0(%rax,%rax,1)
    7edc:	00 00 00 
    7edf:	90                   	nop

0000000000007ee0 <tc_set_idle>:
    7ee0:	f3 0f 1e fa          	endbr64 
    7ee4:	c3                   	ret    
    7ee5:	66 2e 0f 1f 84 00 00 	cs nopw 0x0(%rax,%rax,1)
    7eec:	00 00 00 
    7eef:	90                   	nop

0000000000007ef0 <do_init_thread>:
    7ef0:	f3 0f 1e fa          	endbr64 
    7ef4:	41 57                	push   %r15
    7ef6:	66 48 0f 6e d7       	movq   %rdi,%xmm2
    7efb:	ba c0 00 00 00       	mov    $0xc0,%edx
    7f00:	41 56                	push   %r14
    7f02:	66 0f 6c d2          	punpcklqdq %xmm2,%xmm2
    7f06:	41 55                	push   %r13
    7f08:	41 54                	push   %r12
    7f0a:	41 89 f4             	mov    %esi,%r12d
    7f0d:	55                   	push   %rbp
    7f0e:	48 89 fd             	mov    %rdi,%rbp
    7f11:	53                   	push   %rbx
    7f12:	48 83 ec 38          	sub    $0x38,%rsp
    7f16:	64 48 8b 04 25 28 00 	mov    %fs:0x28,%rax
    7f1d:	00 00 
    7f1f:	48 89 44 24 28       	mov    %rax,0x28(%rsp)
    7f24:	48 8d 05 55 51 01 00 	lea    0x15155(%rip),%rax        # 1d080 <g_global_data>
    7f2b:	0f 29 14 24          	movaps %xmm2,(%rsp)
    7f2f:	48 8b 58 50          	mov    0x50(%rax),%rbx
    7f33:	48 8d 70 50          	lea    0x50(%rax),%rsi
    7f37:	48 01 fb             	add    %rdi,%rbx
    7f3a:	48 89 df             	mov    %rbx,%rdi
    7f3d:	4c 8b 7b 28          	mov    0x28(%rbx),%r15
    7f41:	4c 8b 73 30          	mov    0x30(%rbx),%r14
    7f45:	4c 8b ab b0 00 00 00 	mov    0xb0(%rbx),%r13
    7f4c:	e8 5f 9b 00 00       	call   11ab0 <memcpy>
    7f51:	48 8d 85 00 fc ff ff 	lea    -0x400(%rbp),%rax
    7f58:	f3 0f 6f 1b          	movdqu (%rbx),%xmm3
    7f5c:	f3 0f 6f 6b 10       	movdqu 0x10(%rbx),%xmm5
    7f61:	66 48 0f 6e c0       	movq   %rax,%xmm0
    7f66:	48 8b 43 18          	mov    0x18(%rbx),%rax
    7f6a:	f3 0f 6f 73 68       	movdqu 0x68(%rbx),%xmm6
    7f6f:	66 48 0f 6e cd       	movq   %rbp,%xmm1
    7f74:	66 0f 6f 14 24       	movdqa (%rsp),%xmm2
    7f79:	66 48 0f 6e e5       	movq   %rbp,%xmm4
    7f7e:	66 0f 6c c8          	punpcklqdq %xmm0,%xmm1
    7f82:	48 01 6b 20          	add    %rbp,0x20(%rbx)
    7f86:	48 01 e8             	add    %rbp,%rax
    7f89:	66 0f 6c c4          	punpcklqdq %xmm4,%xmm0
    7f8d:	66 0f d4 cb          	paddq  %xmm3,%xmm1
    7f91:	48 01 6b 58          	add    %rbp,0x58(%rbx)
    7f95:	48 89 83 b0 00 00 00 	mov    %rax,0xb0(%rbx)
    7f9c:	48 8d 05 6d ae 01 00 	lea    0x1ae6d(%rip),%rax        # 22e10 <__intel_security_cookie>
    7fa3:	66 0f d4 c5          	paddq  %xmm5,%xmm0
    7fa7:	66 0f d4 d6          	paddq  %xmm6,%xmm2
    7fab:	4c 89 7b 28          	mov    %r15,0x28(%rbx)
    7faf:	48 8b 00             	mov    (%rax),%rax
    7fb2:	4c 89 73 30          	mov    %r14,0x30(%rbx)
    7fb6:	0f 11 53 68          	movups %xmm2,0x68(%rbx)
    7fba:	0f 11 0b             	movups %xmm1,(%rbx)
    7fbd:	0f 11 43 10          	movups %xmm0,0x10(%rbx)
    7fc1:	48 89 85 08 fc fe ff 	mov    %rax,-0x103f8(%rbp)
    7fc8:	48 8d 05 65 ae 01 00 	lea    0x1ae65(%rip),%rax        # 22e34 <EDMM_supported>
    7fcf:	8b 00                	mov    (%rax),%eax
    7fd1:	85 c0                	test   %eax,%eax
    7fd3:	48 8d 05 42 ae 01 00 	lea    0x1ae42(%rip),%rax        # 22e1c <g_aexnotify_supported>
    7fda:	0f 85 f0 00 00 00    	jne    80d0 <do_init_thread+0x1e0>
    7fe0:	83 38 01             	cmpl   $0x1,(%rax)
    7fe3:	0f 84 17 01 00 00    	je     8100 <do_init_thread+0x210>
    7fe9:	4d 85 ed             	test   %r13,%r13
    7fec:	0f 85 c8 00 00 00    	jne    80ba <do_init_thread+0x1ca>
    7ff2:	66 0f 1f 44 00 00    	nopw   0x0(%rax,%rax,1)
    7ff8:	48 c7 44 24 18 00 00 	movq   $0x0,0x18(%rsp)
    7fff:	00 00 
    8001:	48 c7 44 24 20 00 00 	movq   $0x0,0x20(%rsp)
    8008:	00 00 
    800a:	e8 e9 30 01 00       	call   1b0f8 <get_enclave_base>
    800f:	48 8d 54 24 20       	lea    0x20(%rsp),%rdx
    8014:	48 8d 74 24 18       	lea    0x18(%rsp),%rsi
    8019:	48 89 c7             	mov    %rax,%rdi
    801c:	e8 3f 19 00 00       	call   9960 <elf_tls_info>
    8021:	89 c2                	mov    %eax,%edx
    8023:	b8 01 00 00 00       	mov    $0x1,%eax
    8028:	85 d2                	test   %edx,%edx
    802a:	75 0a                	jne    8036 <do_init_thread+0x146>
    802c:	48 83 7c 24 18 00    	cmpq   $0x0,0x18(%rsp)
    8032:	75 2c                	jne    8060 <do_init_thread+0x170>
    8034:	31 c0                	xor    %eax,%eax
    8036:	48 8b 54 24 28       	mov    0x28(%rsp),%rdx
    803b:	64 48 2b 14 25 28 00 	sub    %fs:0x28,%rdx
    8042:	00 00 
    8044:	0f 85 00 01 00 00    	jne    814a <do_init_thread+0x25a>
    804a:	48 83 c4 38          	add    $0x38,%rsp
    804e:	5b                   	pop    %rbx
    804f:	5d                   	pop    %rbp
    8050:	41 5c                	pop    %r12
    8052:	41 5d                	pop    %r13
    8054:	41 5e                	pop    %r14
    8056:	41 5f                	pop    %r15
    8058:	c3                   	ret    
    8059:	0f 1f 80 00 00 00 00 	nopl   0x0(%rax)
    8060:	48 8b 03             	mov    (%rbx),%rax
    8063:	48 8b 7b 68          	mov    0x68(%rbx),%rdi
    8067:	31 f6                	xor    %esi,%esi
    8069:	48 8d 90 ff 0f 00 00 	lea    0xfff(%rax),%rdx
    8070:	48 29 fa             	sub    %rdi,%rdx
    8073:	48 81 e7 00 f0 ff ff 	and    $0xfffffffffffff000,%rdi
    807a:	48 81 e2 00 f0 ff ff 	and    $0xfffffffffffff000,%rdx
    8081:	e8 6a 9c 00 00       	call   11cf0 <memset>
    8086:	48 8b 7b 68          	mov    0x68(%rbx),%rdi
    808a:	48 8b 03             	mov    (%rbx),%rax
    808d:	48 8b 54 24 20       	mov    0x20(%rsp),%rdx
    8092:	48 8b 74 24 18       	mov    0x18(%rsp),%rsi
    8097:	48 29 f8             	sub    %rdi,%rax
    809a:	48 39 d0             	cmp    %rdx,%rax
    809d:	72 95                	jb     8034 <do_init_thread+0x144>
    809f:	e8 0c 9a 00 00       	call   11ab0 <memcpy>
    80a4:	eb 8e                	jmp    8034 <do_init_thread+0x144>
    80a6:	66 2e 0f 1f 84 00 00 	cs nopw 0x0(%rax,%rax,1)
    80ad:	00 00 00 
    80b0:	83 f8 01             	cmp    $0x1,%eax
    80b3:	74 7b                	je     8130 <do_init_thread+0x240>
    80b5:	4d 85 ed             	test   %r13,%r13
    80b8:	74 5e                	je     8118 <do_init_thread+0x228>
    80ba:	4c 89 ab b0 00 00 00 	mov    %r13,0xb0(%rbx)
    80c1:	e9 32 ff ff ff       	jmp    7ff8 <do_init_thread+0x108>
    80c6:	66 2e 0f 1f 84 00 00 	cs nopw 0x0(%rax,%rax,1)
    80cd:	00 00 00 
    80d0:	8b 00                	mov    (%rax),%eax
    80d2:	45 84 e4             	test   %r12b,%r12b
    80d5:	74 d9                	je     80b0 <do_init_thread+0x1c0>
    80d7:	48 c7 43 30 01 00 00 	movq   $0x1,0x30(%rbx)
    80de:	00 
    80df:	83 f8 01             	cmp    $0x1,%eax
    80e2:	74 5c                	je     8140 <do_init_thread+0x250>
    80e4:	4d 85 ed             	test   %r13,%r13
    80e7:	75 d1                	jne    80ba <do_init_thread+0x1ca>
    80e9:	e8 52 f5 ff ff       	call   7640 <get_dynamic_stack_max_page>
    80ee:	89 c0                	mov    %eax,%eax
    80f0:	48 c1 e0 0c          	shl    $0xc,%rax
    80f4:	48 01 83 b0 00 00 00 	add    %rax,0xb0(%rbx)
    80fb:	e9 f8 fe ff ff       	jmp    7ff8 <do_init_thread+0x108>
    8100:	48 c7 43 50 01 00 00 	movq   $0x1,0x50(%rbx)
    8107:	00 
    8108:	4d 85 ed             	test   %r13,%r13
    810b:	75 ad                	jne    80ba <do_init_thread+0x1ca>
    810d:	e9 e6 fe ff ff       	jmp    7ff8 <do_init_thread+0x108>
    8112:	66 0f 1f 44 00 00    	nopw   0x0(%rax,%rax,1)
    8118:	48 89 ef             	mov    %rbp,%rdi
    811b:	e8 50 f4 ff ff       	call   7570 <is_dynamic_thread>
    8120:	85 c0                	test   %eax,%eax
    8122:	75 c5                	jne    80e9 <do_init_thread+0x1f9>
    8124:	e9 cf fe ff ff       	jmp    7ff8 <do_init_thread+0x108>
    8129:	0f 1f 80 00 00 00 00 	nopl   0x0(%rax)
    8130:	48 c7 43 50 01 00 00 	movq   $0x1,0x50(%rbx)
    8137:	00 
    8138:	e9 78 ff ff ff       	jmp    80b5 <do_init_thread+0x1c5>
    813d:	0f 1f 00             	nopl   (%rax)
    8140:	48 c7 43 50 01 00 00 	movq   $0x1,0x50(%rbx)
    8147:	00 
    8148:	eb 9a                	jmp    80e4 <do_init_thread+0x1f4>
    814a:	e8 f1 9c 00 00       	call   11e40 <__stack_chk_fail>
    814f:	90                   	nop

0000000000008150 <do_ecall>:
    8150:	f3 0f 1e fa          	endbr64 
    8154:	53                   	push   %rbx
    8155:	48 89 d3             	mov    %rdx,%rbx
    8158:	48 83 c4 80          	add    $0xffffffffffffff80,%rsp
    815c:	89 7c 24 20          	mov    %edi,0x20(%rsp)
    8160:	48 89 74 24 08       	mov    %rsi,0x8(%rsp)
    8165:	64 48 8b 04 25 28 00 	mov    %fs:0x28,%rax
    816c:	00 00 
    816e:	48 89 44 24 78       	mov    %rax,0x78(%rsp)
    8173:	31 c0                	xor    %eax,%eax
    8175:	e8 8a 2f 01 00       	call   1b104 <get_enclave_state>
    817a:	89 c2                	mov    %eax,%edx
    817c:	b8 01 00 00 00       	mov    $0x1,%eax
    8181:	83 fa 02             	cmp    $0x2,%edx
    8184:	74 1a                	je     81a0 <do_ecall+0x50>
    8186:	48 8b 54 24 78       	mov    0x78(%rsp),%rdx
    818b:	64 48 2b 14 25 28 00 	sub    %fs:0x28,%rdx
    8192:	00 00 
    8194:	0f 85 0c 02 00 00    	jne    83a6 <do_ecall+0x256>
    819a:	48 83 ec 80          	sub    $0xffffffffffffff80,%rsp
    819e:	5b                   	pop    %rbx
    819f:	c3                   	ret    
    81a0:	e8 9e 2f 01 00       	call   1b143 <get_thread_data>
    81a5:	48 89 44 24 10       	mov    %rax,0x10(%rsp)
    81aa:	48 85 c0             	test   %rax,%rax
    81ad:	0f 84 31 01 00 00    	je     82e4 <do_ecall+0x194>
    81b3:	48 8b 44 24 10       	mov    0x10(%rsp),%rax
    81b8:	48 8b 48 08          	mov    0x8(%rax),%rcx
    81bc:	48 39 48 10          	cmp    %rcx,0x10(%rax)
    81c0:	0f 84 0a 01 00 00    	je     82d0 <do_ecall+0x180>
    81c6:	e8 78 2f 01 00       	call   1b143 <get_thread_data>
    81cb:	48 83 78 50 01       	cmpq   $0x1,0x50(%rax)
    81d0:	48 89 44 24 18       	mov    %rax,0x18(%rsp)
    81d5:	0f 84 25 01 00 00    	je     8300 <do_ecall+0x1b0>
    81db:	48 8b 44 24 18       	mov    0x18(%rsp),%rax
    81e0:	48 8b 48 08          	mov    0x8(%rax),%rcx
    81e4:	48 39 48 10          	cmp    %rcx,0x10(%rax)
    81e8:	74 56                	je     8240 <do_ecall+0xf0>
    81ea:	48 8b 74 24 08       	mov    0x8(%rsp),%rsi
    81ef:	8b 7c 24 20          	mov    0x20(%rsp),%edi
    81f3:	e8 b8 fa ff ff       	call   7cb0 <_ZL10trts_ecalljPv>
    81f8:	48 8b 5c 24 18       	mov    0x18(%rsp),%rbx
    81fd:	48 89 5c 24 10       	mov    %rbx,0x10(%rsp)
    8202:	48 8d 15 77 4e 01 00 	lea    0x14e77(%rip),%rdx        # 1d080 <g_global_data>
    8209:	48 8b 52 38          	mov    0x38(%rdx),%rdx
    820d:	48 85 d2             	test   %rdx,%rdx
    8210:	0f 84 70 ff ff ff    	je     8186 <do_ecall+0x36>
    8216:	48 8b 4c 24 10       	mov    0x10(%rsp),%rcx
    821b:	48 8b 59 08          	mov    0x8(%rcx),%rbx
    821f:	48 39 59 10          	cmp    %rbx,0x10(%rcx)
    8223:	0f 85 5d ff ff ff    	jne    8186 <do_ecall+0x36>
    8229:	89 44 24 2c          	mov    %eax,0x2c(%rsp)
    822d:	e8 ae fc ff ff       	call   7ee0 <tc_set_idle>
    8232:	8b 44 24 2c          	mov    0x2c(%rsp),%eax
    8236:	e9 4b ff ff ff       	jmp    8186 <do_ecall+0x36>
    823b:	0f 1f 44 00 00       	nopl   0x0(%rax,%rax,1)
    8240:	31 ff                	xor    %edi,%edi
    8242:	e8 f9 ef ff ff       	call   7240 <sgx_wrpkru>
    8247:	e8 34 fc ff ff       	call   7e80 <_Z16_pthread_enabledv>
    824c:	84 c0                	test   %al,%al
    824e:	0f 84 0c 01 00 00    	je     8360 <do_ecall+0x210>
    8254:	48 8b 44 24 18       	mov    0x18(%rsp),%rax
    8259:	66 0f ef c0          	pxor   %xmm0,%xmm0
    825d:	48 8d 7c 24 30       	lea    0x30(%rsp),%rdi
    8262:	0f 29 44 24 30       	movaps %xmm0,0x30(%rsp)
    8267:	48 89 44 24 10       	mov    %rax,0x10(%rsp)
    826c:	0f 29 44 24 40       	movaps %xmm0,0x40(%rsp)
    8271:	0f 29 44 24 50       	movaps %xmm0,0x50(%rsp)
    8276:	0f 29 44 24 60       	movaps %xmm0,0x60(%rsp)
    827b:	e8 f2 9e 00 00       	call   12172 <setjmp>
    8280:	f3 0f 1e fa          	endbr64 
    8284:	85 c0                	test   %eax,%eax
    8286:	0f 84 94 00 00 00    	je     8320 <do_ecall+0x1d0>
    828c:	48 8b 4c 24 18       	mov    0x18(%rsp),%rcx
    8291:	48 8b 41 10          	mov    0x10(%rcx),%rax
    8295:	48 89 41 08          	mov    %rax,0x8(%rcx)
    8299:	b8 09 00 00 00       	mov    $0x9,%eax
    829e:	bf 09 00 00 00       	mov    $0x9,%edi
    82a3:	89 44 24 28          	mov    %eax,0x28(%rsp)
    82a7:	e8 e4 fb ff ff       	call   7e90 <_Z24_pthread_tls_store_state9_status_t>
    82ac:	8b 44 24 28          	mov    0x28(%rsp),%eax
    82b0:	89 44 24 24          	mov    %eax,0x24(%rsp)
    82b4:	e8 17 fc ff ff       	call   7ed0 <_Z24_pthread_tls_destructorsv>
    82b9:	48 8b 7c 24 08       	mov    0x8(%rsp),%rdi
    82be:	e8 fd fb ff ff       	call   7ec0 <_Z20_pthread_wakeup_joinPv>
    82c3:	8b 44 24 24          	mov    0x24(%rsp),%eax
    82c7:	e9 36 ff ff ff       	jmp    8202 <do_ecall+0xb2>
    82cc:	0f 1f 40 00          	nopl   0x0(%rax)
    82d0:	48 8d 05 a9 4d 01 00 	lea    0x14da9(%rip),%rax        # 1d080 <g_global_data>
    82d7:	48 8b 40 38          	mov    0x38(%rax),%rax
    82db:	48 85 c0             	test   %rax,%rax
    82de:	0f 84 a4 00 00 00    	je     8388 <do_ecall+0x238>
    82e4:	31 f6                	xor    %esi,%esi
    82e6:	48 89 df             	mov    %rbx,%rdi
    82e9:	e8 02 fc ff ff       	call   7ef0 <do_init_thread>
    82ee:	85 c0                	test   %eax,%eax
    82f0:	0f 84 d0 fe ff ff    	je     81c6 <do_ecall+0x76>
    82f6:	e9 8b fe ff ff       	jmp    8186 <do_ecall+0x36>
    82fb:	0f 1f 44 00 00       	nopl   0x0(%rax,%rax,1)
    8300:	48 8b 44 24 18       	mov    0x18(%rsp),%rax
    8305:	bf 01 00 00 00       	mov    $0x1,%edi
    830a:	48 c7 40 50 00 00 00 	movq   $0x0,0x50(%rax)
    8311:	00 
    8312:	e8 49 f5 ff ff       	call   7860 <sgx_set_ssa_aexnotify>
    8317:	e9 bf fe ff ff       	jmp    81db <do_ecall+0x8b>
    831c:	0f 1f 40 00          	nopl   0x0(%rax)
    8320:	48 8d 7c 24 30       	lea    0x30(%rsp),%rdi
    8325:	e8 86 fb ff ff       	call   7eb0 <_Z26_pthread_tls_store_contextPv>
    832a:	0f c7 f0             	rdrand %eax
    832d:	73 fb                	jae    832a <do_ecall+0x1da>
    832f:	8b 5c 24 20          	mov    0x20(%rsp),%ebx
    8333:	48 8b 74 24 08       	mov    0x8(%rsp),%rsi
    8338:	89 df                	mov    %ebx,%edi
    833a:	e8 31 fb ff ff       	call   7e70 <_Z30_random_stack_noinline_wrapperI9_status_tJjPvEJRiRS1_EET_PFS4_DpT0_EDpOT1_.constprop.0.isra.0>
    833f:	83 fb fa             	cmp    $0xfffffffa,%ebx
    8342:	0f 84 56 ff ff ff    	je     829e <do_ecall+0x14e>
    8348:	83 f8 09             	cmp    $0x9,%eax
    834b:	0f 85 5f ff ff ff    	jne    82b0 <do_ecall+0x160>
    8351:	e9 43 ff ff ff       	jmp    8299 <do_ecall+0x149>
    8356:	66 2e 0f 1f 84 00 00 	cs nopw 0x0(%rax,%rax,1)
    835d:	00 00 00 
    8360:	0f c7 f0             	rdrand %eax
    8363:	73 fb                	jae    8360 <do_ecall+0x210>
    8365:	48 8b 74 24 08       	mov    0x8(%rsp),%rsi
    836a:	8b 7c 24 20          	mov    0x20(%rsp),%edi
    836e:	e8 fd fa ff ff       	call   7e70 <_Z30_random_stack_noinline_wrapperI9_status_tJjPvEJRiRS1_EET_PFS4_DpT0_EDpOT1_.constprop.0.isra.0>
    8373:	48 8b 4c 24 18       	mov    0x18(%rsp),%rcx
    8378:	48 89 4c 24 10       	mov    %rcx,0x10(%rsp)
    837d:	e9 80 fe ff ff       	jmp    8202 <do_ecall+0xb2>
    8382:	66 0f 1f 44 00 00    	nopw   0x0(%rax,%rax,1)
    8388:	e8 13 fb ff ff       	call   7ea0 <_Z22_pthread_tls_get_statev>
    838d:	83 7c 24 20 fa       	cmpl   $0xfffffffa,0x20(%rsp)
    8392:	0f 84 4c ff ff ff    	je     82e4 <do_ecall+0x194>
    8398:	83 f8 09             	cmp    $0x9,%eax
    839b:	0f 85 25 fe ff ff    	jne    81c6 <do_ecall+0x76>
    83a1:	e9 3e ff ff ff       	jmp    82e4 <do_ecall+0x194>
    83a6:	e8 95 9a 00 00       	call   11e40 <__stack_chk_fail>
    83ab:	0f 1f 44 00 00       	nopl   0x0(%rax,%rax,1)

00000000000083b0 <do_ecall_add_thread>:
    83b0:	f3 0f 1e fa          	endbr64 
    83b4:	55                   	push   %rbp
    83b5:	53                   	push   %rbx
    83b6:	48 89 fb             	mov    %rdi,%rbx
    83b9:	48 83 ec 08          	sub    $0x8,%rsp
    83bd:	e8 5e 06 00 00       	call   8a20 <is_utility_thread>
    83c2:	48 85 db             	test   %rbx,%rbx
    83c5:	0f 84 a5 00 00 00    	je     8470 <do_ecall_add_thread+0xc0>
    83cb:	3c 01                	cmp    $0x1,%al
    83cd:	0f 85 9d 00 00 00    	jne    8470 <do_ecall_add_thread+0xc0>
    83d3:	be 08 00 00 00       	mov    $0x8,%esi
    83d8:	48 89 df             	mov    %rbx,%rdi
    83db:	e8 40 eb ff ff       	call   6f20 <sgx_is_outside_enclave>
    83e0:	85 c0                	test   %eax,%eax
    83e2:	0f 84 88 00 00 00    	je     8470 <do_ecall_add_thread+0xc0>
    83e8:	0f ae e8             	lfence 
    83eb:	48 8b 2b             	mov    (%rbx),%rbp
    83ee:	48 85 ed             	test   %rbp,%rbp
    83f1:	74 7d                	je     8470 <do_ecall_add_thread+0xc0>
    83f3:	0f ae e8             	lfence 
    83f6:	48 89 ef             	mov    %rbp,%rdi
    83f9:	e8 02 f7 ff ff       	call   7b00 <_ZL11do_save_tcsPv>
    83fe:	89 c3                	mov    %eax,%ebx
    8400:	85 c0                	test   %eax,%eax
    8402:	75 71                	jne    8475 <do_ecall_add_thread+0xc5>
    8404:	48 89 ef             	mov    %rbp,%rdi
    8407:	e8 94 f2 ff ff       	call   76a0 <do_add_thread>
    840c:	89 c3                	mov    %eax,%ebx
    840e:	85 c0                	test   %eax,%eax
    8410:	74 63                	je     8475 <do_ecall_add_thread+0xc5>
    8412:	e8 09 06 00 00       	call   8a20 <is_utility_thread>
    8417:	84 c0                	test   %al,%al
    8419:	74 5a                	je     8475 <do_ecall_add_thread+0xc5>
    841b:	48 8b 0d ae cf 01 00 	mov    0x1cfae(%rip),%rcx        # 253d0 <_ZL10g_tcs_node>
    8422:	48 85 c9             	test   %rcx,%rcx
    8425:	74 4e                	je     8475 <do_ecall_add_thread+0xc5>
    8427:	48 8b 35 9a cf 01 00 	mov    0x1cf9a(%rip),%rsi        # 253c8 <_ZL12g_tcs_cookie>
    842e:	48 8b 01             	mov    (%rcx),%rax
    8431:	48 8b 79 08          	mov    0x8(%rcx),%rdi
    8435:	48 31 f0             	xor    %rsi,%rax
    8438:	48 39 c5             	cmp    %rax,%rbp
    843b:	74 41                	je     847e <do_ecall_add_thread+0xce>
    843d:	48 85 ff             	test   %rdi,%rdi
    8440:	75 11                	jne    8453 <do_ecall_add_thread+0xa3>
    8442:	eb 31                	jmp    8475 <do_ecall_add_thread+0xc5>
    8444:	0f 1f 40 00          	nopl   0x0(%rax)
    8448:	48 89 f9             	mov    %rdi,%rcx
    844b:	48 85 c0             	test   %rax,%rax
    844e:	74 25                	je     8475 <do_ecall_add_thread+0xc5>
    8450:	48 89 c7             	mov    %rax,%rdi
    8453:	48 8b 17             	mov    (%rdi),%rdx
    8456:	48 8b 47 08          	mov    0x8(%rdi),%rax
    845a:	48 31 f2             	xor    %rsi,%rdx
    845d:	48 39 d5             	cmp    %rdx,%rbp
    8460:	75 e6                	jne    8448 <do_ecall_add_thread+0x98>
    8462:	48 89 41 08          	mov    %rax,0x8(%rcx)
    8466:	e8 15 7e 00 00       	call   10280 <dlfree>
    846b:	eb 08                	jmp    8475 <do_ecall_add_thread+0xc5>
    846d:	0f 1f 00             	nopl   (%rax)
    8470:	bb 01 00 00 00       	mov    $0x1,%ebx
    8475:	48 83 c4 08          	add    $0x8,%rsp
    8479:	89 d8                	mov    %ebx,%eax
    847b:	5b                   	pop    %rbx
    847c:	5d                   	pop    %rbp
    847d:	c3                   	ret    
    847e:	48 89 3d 4b cf 01 00 	mov    %rdi,0x1cf4b(%rip)        # 253d0 <_ZL10g_tcs_node>
    8485:	48 89 cf             	mov    %rcx,%rdi
    8488:	e8 f3 7d 00 00       	call   10280 <dlfree>
    848d:	eb e6                	jmp    8475 <do_ecall_add_thread+0xc5>
    848f:	90                   	nop

0000000000008490 <do_uninit_enclave>:
    8490:	f3 0f 1e fa          	endbr64 
    8494:	48 8d 05 99 a9 01 00 	lea    0x1a999(%rip),%rax        # 22e34 <EDMM_supported>
    849b:	41 54                	push   %r12
    849d:	55                   	push   %rbp
    849e:	53                   	push   %rbx
    849f:	8b 00                	mov    (%rax),%eax
    84a1:	85 c0                	test   %eax,%eax
    84a3:	0f 84 a4 00 00 00    	je     854d <do_uninit_enclave+0xbd>
    84a9:	49 89 fc             	mov    %rdi,%r12
    84ac:	e8 6f 05 00 00       	call   8a20 <is_utility_thread>
    84b1:	84 c0                	test   %al,%al
    84b3:	0f 84 87 00 00 00    	je     8540 <do_uninit_enclave+0xb0>
    84b9:	f0 83 0d ff ce 01 00 	lock orl $0x1,0x1ceff(%rip)        # 253c0 <g_uninit_flag>
    84c0:	01 
    84c1:	48 8b 1d 08 cf 01 00 	mov    0x1cf08(%rip),%rbx        # 253d0 <_ZL10g_tcs_node>
    84c8:	48 c7 05 fd ce 01 00 	movq   $0x0,0x1cefd(%rip)        # 253d0 <_ZL10g_tcs_node>
    84cf:	00 00 00 00 
    84d3:	eb 2f                	jmp    8504 <do_uninit_enclave+0x74>
    84d5:	0f 1f 00             	nopl   (%rax)
    84d8:	48 8b 3b             	mov    (%rbx),%rdi
    84db:	48 33 3d e6 ce 01 00 	xor    0x1cee6(%rip),%rdi        # 253c8 <_ZL12g_tcs_cookie>
    84e2:	4c 39 e7             	cmp    %r12,%rdi
    84e5:	74 0e                	je     84f5 <do_uninit_enclave+0x65>
    84e7:	be 00 10 00 00       	mov    $0x1000,%esi
    84ec:	e8 4f 48 00 00       	call   cd40 <mm_dealloc>
    84f1:	85 c0                	test   %eax,%eax
    84f3:	75 58                	jne    854d <do_uninit_enclave+0xbd>
    84f5:	48 8b 6b 08          	mov    0x8(%rbx),%rbp
    84f9:	48 89 df             	mov    %rbx,%rdi
    84fc:	e8 7f 7d 00 00       	call   10280 <dlfree>
    8501:	48 89 eb             	mov    %rbp,%rbx
    8504:	48 85 db             	test   %rbx,%rbx
    8507:	75 cf                	jne    84d8 <do_uninit_enclave+0x48>
    8509:	48 8d 1d b4 ce 01 00 	lea    0x1ceb4(%rip),%rbx        # 253c4 <_ZL10g_ife_lock>
    8510:	48 89 df             	mov    %rbx,%rdi
    8513:	e8 b8 55 00 00       	call   dad0 <sgx_spin_lock>
    8518:	0f b6 05 01 ad 01 00 	movzbl 0x1ad01(%rip),%eax        # 23220 <_ZL16g_is_first_ecall>
    851f:	84 c0                	test   %al,%al
    8521:	74 45                	je     8568 <do_uninit_enclave+0xd8>
    8523:	48 89 df             	mov    %rbx,%rdi
    8526:	e8 35 56 00 00       	call   db60 <sgx_spin_unlock>
    852b:	bf 03 00 00 00       	mov    $0x3,%edi
    8530:	e8 e0 2b 01 00       	call   1b115 <set_enclave_state>
    8535:	5b                   	pop    %rbx
    8536:	31 c0                	xor    %eax,%eax
    8538:	5d                   	pop    %rbp
    8539:	41 5c                	pop    %r12
    853b:	c3                   	ret    
    853c:	0f 1f 40 00          	nopl   0x0(%rax)
    8540:	e8 8b f0 ff ff       	call   75d0 <is_dynamic_thread_exist>
    8545:	85 c0                	test   %eax,%eax
    8547:	0f 84 6c ff ff ff    	je     84b9 <do_uninit_enclave+0x29>
    854d:	bf 03 00 00 00       	mov    $0x3,%edi
    8552:	e8 be 2b 01 00       	call   1b115 <set_enclave_state>
    8557:	5b                   	pop    %rbx
    8558:	b8 01 00 00 00       	mov    $0x1,%eax
    855d:	5d                   	pop    %rbp
    855e:	41 5c                	pop    %r12
    8560:	c3                   	ret    
    8561:	0f 1f 80 00 00 00 00 	nopl   0x0(%rax)
    8568:	e8 43 1b 00 00       	call   a0b0 <uninit_global_object>
    856d:	eb b4                	jmp    8523 <do_uninit_enclave+0x93>
    856f:	90                   	nop

0000000000008570 <sgx_ocall>:
    8570:	f3 0f 1e fa          	endbr64 
    8574:	8d 47 07             	lea    0x7(%rdi),%eax
    8577:	83 f8 05             	cmp    $0x5,%eax
    857a:	76 12                	jbe    858e <sgx_ocall+0x1e>
    857c:	85 ff                	test   %edi,%edi
    857e:	74 0e                	je     858e <sgx_ocall+0x1e>
    8580:	48 8d 15 c9 3c 01 00 	lea    0x13cc9(%rip),%rdx        # 1c250 <g_dyn_entry_table>
    8587:	89 f8                	mov    %edi,%eax
    8589:	48 3b 02             	cmp    (%rdx),%rax
    858c:	73 0a                	jae    8598 <sgx_ocall+0x28>
    858e:	e9 4c 2e 01 00       	jmp    1b3df <__morestack>
    8593:	0f 1f 44 00 00       	nopl   0x0(%rax,%rax,1)
    8598:	b8 01 10 00 00       	mov    $0x1001,%eax
    859d:	c3                   	ret    
    859e:	66 90                	xchg   %ax,%ax

00000000000085a0 <update_ocall_lastsp>:
    85a0:	f3 0f 1e fa          	endbr64 
    85a4:	53                   	push   %rbx
    85a5:	48 89 fb             	mov    %rdi,%rbx
    85a8:	e8 96 2b 01 00       	call   1b143 <get_thread_data>
    85ad:	b9 01 00 00 00       	mov    $0x1,%ecx
    85b2:	48 8b 50 08          	mov    0x8(%rax),%rdx
    85b6:	48 89 53 30          	mov    %rdx,0x30(%rbx)
    85ba:	48 39 50 10          	cmp    %rdx,0x10(%rax)
    85be:	74 0b                	je     85cb <update_ocall_lastsp+0x2b>
    85c0:	48 8b b2 90 00 00 00 	mov    0x90(%rdx),%rsi
    85c7:	48 8d 4e 01          	lea    0x1(%rsi),%rcx
    85cb:	48 89 8b 90 00 00 00 	mov    %rcx,0x90(%rbx)
    85d2:	48 89 58 08          	mov    %rbx,0x8(%rax)
    85d6:	48 89 d0             	mov    %rdx,%rax
    85d9:	5b                   	pop    %rbx
    85da:	c3                   	ret    
    85db:	0f 1f 44 00 00       	nopl   0x0(%rax,%rax,1)

00000000000085e0 <do_oret>:
    85e0:	f3 0f 1e fa          	endbr64 
    85e4:	55                   	push   %rbp
    85e5:	48 89 fd             	mov    %rdi,%rbp
    85e8:	53                   	push   %rbx
    85e9:	48 83 ec 18          	sub    $0x18,%rsp
    85ed:	64 48 8b 04 25 28 00 	mov    %fs:0x28,%rax
    85f4:	00 00 
    85f6:	48 89 44 24 08       	mov    %rax,0x8(%rsp)
    85fb:	31 c0                	xor    %eax,%eax
    85fd:	e8 41 2b 01 00       	call   1b143 <get_thread_data>
    8602:	48 83 78 50 01       	cmpq   $0x1,0x50(%rax)
    8607:	48 89 c3             	mov    %rax,%rbx
    860a:	74 74                	je     8680 <do_oret+0xa0>
    860c:	48 8b 7b 08          	mov    0x8(%rbx),%rdi
    8610:	48 89 e0             	mov    %rsp,%rax
    8613:	48 89 3c 24          	mov    %rdi,(%rsp)
    8617:	48 39 f8             	cmp    %rdi,%rax
    861a:	72 24                	jb     8640 <do_oret+0x60>
    861c:	48 8b 44 24 08       	mov    0x8(%rsp),%rax
    8621:	64 48 2b 04 25 28 00 	sub    %fs:0x28,%rax
    8628:	00 00 
    862a:	75 6b                	jne    8697 <do_oret+0xb7>
    862c:	48 83 c4 18          	add    $0x18,%rsp
    8630:	b8 01 00 00 00       	mov    $0x1,%eax
    8635:	5b                   	pop    %rbx
    8636:	5d                   	pop    %rbp
    8637:	c3                   	ret    
    8638:	0f 1f 84 00 00 00 00 	nopl   0x0(%rax,%rax,1)
    863f:	00 
    8640:	48 8b 43 10          	mov    0x10(%rbx),%rax
    8644:	48 8d 90 10 ff ff ff 	lea    -0xf0(%rax),%rdx
    864b:	48 39 fa             	cmp    %rdi,%rdx
    864e:	72 cc                	jb     861c <do_oret+0x3c>
    8650:	48 81 7f 20 44 49 43 	cmpq   $0x4f434944,0x20(%rdi)
    8657:	4f 
    8658:	75 c2                	jne    861c <do_oret+0x3c>
    865a:	48 8b 57 30          	mov    0x30(%rdi),%rdx
    865e:	48 39 d7             	cmp    %rdx,%rdi
    8661:	73 b9                	jae    861c <do_oret+0x3c>
    8663:	48 39 d0             	cmp    %rdx,%rax
    8666:	72 b4                	jb     861c <do_oret+0x3c>
    8668:	48 89 53 08          	mov    %rdx,0x8(%rbx)
    866c:	48 89 ee             	mov    %rbp,%rsi
    866f:	e8 7e 2d 01 00       	call   1b3f2 <asm_oret>
    8674:	eb a6                	jmp    861c <do_oret+0x3c>
    8676:	66 2e 0f 1f 84 00 00 	cs nopw 0x0(%rax,%rax,1)
    867d:	00 00 00 
    8680:	48 c7 40 50 00 00 00 	movq   $0x0,0x50(%rax)
    8687:	00 
    8688:	bf 01 00 00 00       	mov    $0x1,%edi
    868d:	e8 ce f1 ff ff       	call   7860 <sgx_set_ssa_aexnotify>
    8692:	e9 75 ff ff ff       	jmp    860c <do_oret+0x2c>
    8697:	e8 a4 97 00 00       	call   11e40 <__stack_chk_fail>
    869c:	0f 1f 40 00          	nopl   0x0(%rax)

00000000000086a0 <get_enclave_size>:
    86a0:	f3 0f 1e fa          	endbr64 
    86a4:	48 8d 05 d5 49 01 00 	lea    0x149d5(%rip),%rax        # 1d080 <g_global_data>
    86ab:	48 8b 40 08          	mov    0x8(%rax),%rax
    86af:	c3                   	ret    

00000000000086b0 <get_enclave_end>:
    86b0:	f3 0f 1e fa          	endbr64 
    86b4:	48 83 ec 08          	sub    $0x8,%rsp
    86b8:	e8 3b 2a 01 00       	call   1b0f8 <get_enclave_base>
    86bd:	48 8d 15 bc 49 01 00 	lea    0x149bc(%rip),%rdx        # 1d080 <g_global_data>
    86c4:	48 8b 52 08          	mov    0x8(%rdx),%rdx
    86c8:	48 83 c4 08          	add    $0x8,%rsp
    86cc:	48 8d 44 02 ff       	lea    -0x1(%rdx,%rax,1),%rax
    86d1:	c3                   	ret    
    86d2:	66 2e 0f 1f 84 00 00 	cs nopw 0x0(%rax,%rax,1)
    86d9:	00 00 00 
    86dc:	0f 1f 40 00          	nopl   0x0(%rax)

00000000000086e0 <get_heap_base>:
    86e0:	f3 0f 1e fa          	endbr64 
    86e4:	48 83 ec 08          	sub    $0x8,%rsp
    86e8:	e8 0b 2a 01 00       	call   1b0f8 <get_enclave_base>
    86ed:	48 8d 15 8c 49 01 00 	lea    0x1498c(%rip),%rdx        # 1d080 <g_global_data>
    86f4:	48 8b 52 10          	mov    0x10(%rdx),%rdx
    86f8:	48 83 c4 08          	add    $0x8,%rsp
    86fc:	48 01 d0             	add    %rdx,%rax
    86ff:	c3                   	ret    

0000000000008700 <get_heap_size>:
    8700:	f3 0f 1e fa          	endbr64 
    8704:	48 8d 05 29 a7 01 00 	lea    0x1a729(%rip),%rax        # 22e34 <EDMM_supported>
    870b:	48 8d 0d 6e 49 01 00 	lea    0x1496e(%rip),%rcx        # 1d080 <g_global_data>
    8712:	8b 00                	mov    (%rax),%eax
